[marking 0xecbf5c62231 <JS Function Entry (SharedFunctionInfo 0xecbf5c61d39)> for recompilation, reason: small function, ICs with typeinfo: 5/5 (100%)]
--- Raw source ---
(foo) {\x0a  this.foo = foo;\x0a  this.__guid__ = undefined;\x0a  this.__source__ = undefined;\x0a}\x0a

--- Optimized code ---
optimization_id = 0
source_position = 1166
kind = OPTIMIZED_FUNCTION
name = Entry
stack_slots = 0
Instructions (size = 286)
0x177bccd61600     0  488b4c2410     REX.W movq rcx,[rsp+0x10]
0x177bccd61605     5  493b4da8       REX.W cmpq rcx,[r13-0x58]
0x177bccd61609     9  750d           jnz 24  (0x177bccd61618)
0x177bccd6160b    11  488b4e27       REX.W movq rcx,[rsi+0x27]
0x177bccd6160f    15  488b492f       REX.W movq rcx,[rcx+0x2f]
0x177bccd61613    19  48894c2410     REX.W movq [rsp+0x10],rcx
0x177bccd61618    24  55             push rbp
0x177bccd61619    25  4889e5         REX.W movq rbp,rsp
0x177bccd6161c    28  56             push rsi
0x177bccd6161d    29  57             push rdi
                  ;;; <@0,#0> -------------------- B0 --------------------
                  ;;; <@2,#1> context
0x177bccd6161e    30  488b75f8       REX.W movq rsi,[rbp-0x8]
                  ;;; <@10,#8> -------------------- B1 --------------------
                  ;;; <@12,#10> stack-check
0x177bccd61622    34  493ba590070000 REX.W cmpq rsp,[r13+0x790]
0x177bccd61629    41  7305           jnc 48  (0x177bccd61630)
0x177bccd6162b    43  e810fbfcff     call StackCheck  (0x177bccd31140)    ;; code: BUILTIN
                  ;;; <@14,#10> lazy-bailout
                  ;;; <@15,#10> gap
0x177bccd61630    48  488b4518       REX.W movq rax,[rbp+0x18]
                  ;;; <@16,#12> check-non-smi
0x177bccd61634    52  a801           test al,0x1
0x177bccd61636    54  0f84c1000000   jz 253  (0x177bccd616fd)
                  ;;; <@18,#13> check-maps
0x177bccd6163c    60  49baf137c1134f1b0000 REX.W movq r10,0x1b4f13c137f1    ;; object: 0x1b4f13c137f1 <Map(elements=3)>
0x177bccd61646    70  4c3950ff       REX.W cmpq [rax-0x1],r10
0x177bccd6164a    74  0f85b2000000   jnz 258  (0x177bccd61702)
                  ;;; <@20,#15> check-maps
                  ;;; <@22,#17> check-maps
                  ;;; <@23,#17> gap
0x177bccd61650    80  488b5d10       REX.W movq rbx,[rbp+0x10]
                  ;;; <@24,#44> check-smi
0x177bccd61654    84  f6c301         testb rbx,0x1
0x177bccd61657    87  0f85aa000000   jnz 263  (0x177bccd61707)
                  ;;; <@26,#19> store-named-field
0x177bccd6165d    93  49bac938c1134f1b0000 REX.W movq r10,0x1b4f13c138c9    ;; object: 0x1b4f13c138c9 <Map(elements=3)>
0x177bccd61667   103  4c8950ff       REX.W movq [rax-0x1],r10
0x177bccd6166b   107  488d50ff       REX.W leaq rdx,[rax-0x1]
0x177bccd6166f   111  4981e20000f0ff REX.W andq r10,0xfffffffffff00000
0x177bccd61676   118  41f6420804     testb [r10+0x8],0x4
0x177bccd6167b   123  7405           jz 130  (0x177bccd61682)
0x177bccd6167d   125  e8bef5ffff     call 0x177bccd60c40     ;; code: STUB, RecordWriteStub, minor: 12960
0x177bccd61682   130  48895817       REX.W movq [rax+0x17],rbx
                  ;;; <@28,#29> store-named-field
0x177bccd61686   134  49ba1139c1134f1b0000 REX.W movq r10,0x1b4f13c13911    ;; object: 0x1b4f13c13911 <Map(elements=3)>
0x177bccd61690   144  4c8950ff       REX.W movq [rax-0x1],r10
0x177bccd61694   148  488d58ff       REX.W leaq rbx,[rax-0x1]
0x177bccd61698   152  4981e20000f0ff REX.W andq r10,0xfffffffffff00000
0x177bccd6169f   159  41f6420804     testb [r10+0x8],0x4
0x177bccd616a4   164  7405           jz 171  (0x177bccd616ab)
0x177bccd616a6   166  e875faffff     call 0x177bccd61120     ;; code: STUB, RecordWriteStub, minor: 13216
0x177bccd616ab   171  49ba2141c0f5cb0e0000 REX.W movq r10,0xecbf5c04121    ;; object: 0xecbf5c04121 <undefined>
0x177bccd616b5   181  4c89501f       REX.W movq [rax+0x1f],r10
                  ;;; <@30,#39> store-named-field
0x177bccd616b9   185  49ba5939c1134f1b0000 REX.W movq r10,0x1b4f13c13959    ;; object: 0x1b4f13c13959 <Map(elements=3)>
0x177bccd616c3   195  4c8950ff       REX.W movq [rax-0x1],r10
0x177bccd616c7   199  488d58ff       REX.W leaq rbx,[rax-0x1]
0x177bccd616cb   203  4981e20000f0ff REX.W andq r10,0xfffffffffff00000
0x177bccd616d2   210  41f6420804     testb [r10+0x8],0x4
0x177bccd616d7   215  7405           jz 222  (0x177bccd616de)
0x177bccd616d9   217  e842faffff     call 0x177bccd61120     ;; code: STUB, RecordWriteStub, minor: 13216
0x177bccd616de   222  49ba2141c0f5cb0e0000 REX.W movq r10,0xecbf5c04121    ;; object: 0xecbf5c04121 <undefined>
0x177bccd616e8   232  4c895027       REX.W movq [rax+0x27],r10
                  ;;; <@32,#5> constant-t
0x177bccd616ec   236  48b82141c0f5cb0e0000 REX.W movq rax,0xecbf5c04121    ;; object: 0xecbf5c04121 <undefined>
                  ;;; <@34,#42> return
0x177bccd616f6   246  488be5         REX.W movq rsp,rbp
0x177bccd616f9   249  5d             pop rbp
0x177bccd616fa   250  c21000         ret 0x10
                  ;;; -------------------- Jump table --------------------
                  ;;; jump table entry 0: deoptimization bailout 1.
0x177bccd616fd   253  e80849caff     call 0x177bcca0600a     ;; deoptimization bailout 1
                  ;;; jump table entry 1: deoptimization bailout 2.
0x177bccd61702   258  e80d49caff     call 0x177bcca06014     ;; deoptimization bailout 2
                  ;;; jump table entry 2: deoptimization bailout 3.
0x177bccd61707   263  e81249caff     call 0x177bcca0601e     ;; deoptimization bailout 3
                  ;;; Safepoint table.

Deoptimization Input Data (deopt points = 4)
 index  ast id    argc     pc
     0       3       0     48
     1       3       0     -1
     2       3       0     -1
     3       3       0     -1

Safepoints (size = 18)
0x177bccd61630    48  11111111 (sp -> fp)       0

RelocInfo (size = 259)
0x177bccd6161e  comment  (;;; <@0,#0> -------------------- B0 --------------------)
0x177bccd6161e  comment  (;;; <@2,#1> context)
0x177bccd61622  comment  (;;; <@10,#8> -------------------- B1 --------------------)
0x177bccd61622  comment  (;;; <@12,#10> stack-check)
0x177bccd6162c  code target (BUILTIN)  (0x177bccd31140)
0x177bccd61630  comment  (;;; <@14,#10> lazy-bailout)
0x177bccd61630  comment  (;;; <@15,#10> gap)
0x177bccd61634  comment  (;;; <@16,#12> check-non-smi)
0x177bccd6163c  comment  (;;; <@18,#13> check-maps)
0x177bccd6163e  embedded object  (0x1b4f13c137f1 <Map(elements=3)>)
0x177bccd61650  comment  (;;; <@20,#15> check-maps)
0x177bccd61650  comment  (;;; <@22,#17> check-maps)
0x177bccd61650  comment  (;;; <@23,#17> gap)
0x177bccd61654  comment  (;;; <@24,#44> check-smi)
0x177bccd6165d  comment  (;;; <@26,#19> store-named-field)
0x177bccd6165f  embedded object  (0x1b4f13c138c9 <Map(elements=3)>)
0x177bccd6167e  code target (STUB)  (0x177bccd60c40)
0x177bccd61686  comment  (;;; <@28,#29> store-named-field)
0x177bccd61688  embedded object  (0x1b4f13c13911 <Map(elements=3)>)
0x177bccd616a7  code target (STUB)  (0x177bccd61120)
0x177bccd616ad  embedded object  (0xecbf5c04121 <undefined>)
0x177bccd616b9  comment  (;;; <@30,#39> store-named-field)
0x177bccd616bb  embedded object  (0x1b4f13c13959 <Map(elements=3)>)
0x177bccd616da  code target (STUB)  (0x177bccd61120)
0x177bccd616e0  embedded object  (0xecbf5c04121 <undefined>)
0x177bccd616ec  comment  (;;; <@32,#5> constant-t)
0x177bccd616ee  embedded object  (0xecbf5c04121 <undefined>)
0x177bccd616f6  comment  (;;; <@34,#42> return)
0x177bccd616fd  comment  (;;; -------------------- Jump table --------------------)
0x177bccd616fd  comment  (;;; jump table entry 0: deoptimization bailout 1.)
0x177bccd616fe  runtime entry  (deoptimization bailout 1)
0x177bccd61702  comment  (;;; jump table entry 1: deoptimization bailout 2.)
0x177bccd61703  runtime entry  (deoptimization bailout 2)
0x177bccd61707  comment  (;;; jump table entry 2: deoptimization bailout 3.)
0x177bccd61708  runtime entry  (deoptimization bailout 3)
0x177bccd6170c  comment  (;;; Safepoint table.)

--- End code ---
[optimizing 0xecbf5c62231 <JS Function Entry (SharedFunctionInfo 0xecbf5c61d39)> - took 0.178, 0.691, 0.998 ms]
[deoptimize marked code in all contexts]
[deoptimizer unlinked: Entry / ecbf5c62231]
[evicting entry from optimizing code map (deoptimized code) for 0xecbf5c61d39 <SharedFunctionInfo Entry>]
[marking 0xecbf5c62111 <JS Function guid (SharedFunctionInfo 0xecbf5c61af9)> for recompilation, reason: small function, ICs with typeinfo: 6/7 (85%)]
--- Raw source ---
(obj) {\x0a  if (!obj.__guid__) {\x0a    obj.__guid__ = __guid++;\x0a  }\x0a\x0a  return obj.__guid__;\x0a}\x0a

--- Optimized code ---
optimization_id = 1
source_position = 136
kind = OPTIMIZED_FUNCTION
name = guid
stack_slots = 1
Instructions (size = 512)
0x177bccd63140     0  55             push rbp
0x177bccd63141     1  4889e5         REX.W movq rbp,rsp
0x177bccd63144     4  56             push rsi
0x177bccd63145     5  57             push rdi
0x177bccd63146     6  4883ec08       REX.W subq rsp,0x8
                  ;;; <@0,#0> -------------------- B0 --------------------
                  ;;; <@2,#1> context
0x177bccd6314a    10  488b45f8       REX.W movq rax,[rbp-0x8]
                  ;;; <@3,#1> gap
0x177bccd6314e    14  488945e8       REX.W movq [rbp-0x18],rax
                  ;;; <@10,#8> -------------------- B1 --------------------
                  ;;; <@11,#8> gap
0x177bccd63152    18  488bf0         REX.W movq rsi,rax
                  ;;; <@12,#10> stack-check
0x177bccd63155    21  493ba590070000 REX.W cmpq rsp,[r13+0x790]
0x177bccd6315c    28  7305           jnc 35  (0x177bccd63163)
0x177bccd6315e    30  e8dddffcff     call StackCheck  (0x177bccd31140)    ;; code: BUILTIN
                  ;;; <@14,#10> lazy-bailout
                  ;;; <@15,#10> gap
0x177bccd63163    35  488b75e8       REX.W movq rsi,[rbp-0x18]
0x177bccd63167    39  488b5510       REX.W movq rdx,[rbp+0x10]
                  ;;; <@16,#12> load-named-generic
0x177bccd6316b    43  0f1f440000     nop
0x177bccd63170    48  48b959da32fe38160000 REX.W movq rcx,0x1638fe32da59    ;; object: 0x1638fe32da59 <String[8]: __guid__>
0x177bccd6317a    58  e8a1d3fcff     call 0x177bccd30520     ;; code: LOAD_IC, UNINITIALIZED
                  ;;; <@18,#13> lazy-bailout
                  ;;; <@21,#14> branch
0x177bccd6317f    63  493b45a8       REX.W cmpq rax,[r13-0x58]
0x177bccd63183    67  0f8405000000   jz 78  (0x177bccd6318e)
0x177bccd63189    73  e8862ecaff     call 0x177bcca06014     ;; deoptimization bailout 2
                  ;;; <@22,#18> -------------------- B2 (unreachable/replaced) --------------------
                  ;;; <@26,#21> -------------------- B3 --------------------
                  ;;; <@28,#22> load-global-cell
0x177bccd6318e    78  48a1e8046125ac0f0000 REX.W movq rax,(0xfac256104e8)    ;; debug: position 192
                                                             ;; property cell
                  ;;; <@30,#44> tagged-to-i
0x177bccd63198    88  a801           test al,0x1
0x177bccd6319a    90  0f857f000000   jnz 223  (0x177bccd6321f)
0x177bccd631a0    96  48c1e820       REX.W shrq rax,32
                  ;;; <@31,#44> gap
0x177bccd631a4   100  488bd8         REX.W movq rbx,rax
                  ;;; <@32,#25> add-i
0x177bccd631a7   103  83c301         addl rbx,0x1
0x177bccd631aa   106  0f8043010000   jo 435  (0x177bccd632f3)
                  ;;; <@34,#46> smi-tag
0x177bccd631b0   112  8bd3           movl rdx,rbx
0x177bccd631b2   114  48c1e220       REX.W shlq rdx,32
                  ;;; <@36,#26> store-global-cell
0x177bccd631b6   118  49bae8046125ac0f0000 REX.W movq r10,0xfac256104e8    ;; property cell
0x177bccd631c0   128  498912         REX.W movq [r10],rdx
                  ;;; <@37,#26> gap
0x177bccd631c3   131  488b5510       REX.W movq rdx,[rbp+0x10]
                  ;;; <@38,#28> check-non-smi
0x177bccd631c7   135  f6c201         testb rdx,0x1
0x177bccd631ca   138  0f8428010000   jz 440  (0x177bccd632f8)
                  ;;; <@40,#29> check-maps
0x177bccd631d0   144  49bac13ac1134f1b0000 REX.W movq r10,0x1b4f13c13ac1    ;; object: 0x1b4f13c13ac1 <Map(elements=3)>
0x177bccd631da   154  4c3952ff       REX.W cmpq [rdx-0x1],r10
0x177bccd631de   158  0f8579000000   jnz 285  (0x177bccd6325d)
                  ;;; <@42,#45> smi-tag
0x177bccd631e4   164  8bd8           movl rbx,rax
0x177bccd631e6   166  48c1e320       REX.W shlq rbx,32
                  ;;; <@44,#30> store-named-field
0x177bccd631ea   170  48895a1f       REX.W movq [rdx+0x1f],rbx
                  ;;; <@47,#33> goto
0x177bccd631ee   174  e904000000     jmp 183  (0x177bccd631f7)
                  ;;; <@48,#15> -------------------- B4 --------------------
0x177bccd631f3   179  488b5510       REX.W movq rdx,[rbp+0x10]
                  ;;; <@52,#34> -------------------- B5 (unreachable/replaced) --------------------
                  ;;; <@56,#37> -------------------- B6 --------------------
                  ;;; <@58,#38> check-non-smi
0x177bccd631f7   183  f6c201         testb rdx,0x1
0x177bccd631fa   186  0f84fd000000   jz 445  (0x177bccd632fd)
                  ;;; <@60,#39> check-maps
0x177bccd63200   192  49bac13ac1134f1b0000 REX.W movq r10,0x1b4f13c13ac1    ;; object: 0x1b4f13c13ac1 <Map(elements=3)>
0x177bccd6320a   202  4c3952ff       REX.W cmpq [rdx-0x1],r10
0x177bccd6320e   206  0f8594000000   jnz 360  (0x177bccd632a8)
                  ;;; <@62,#40> load-named-field
0x177bccd63214   212  488b421f       REX.W movq rax,[rdx+0x1f]
                  ;;; <@64,#42> return
0x177bccd63218   216  488be5         REX.W movq rsp,rbp
0x177bccd6321b   219  5d             pop rbp
0x177bccd6321c   220  c21000         ret 0x10
                  ;;; <@30,#44> -------------------- Deferred tagged-to-i --------------------
0x177bccd6321f   223  4d8b5500       REX.W movq r10,[r13+0x0]
0x177bccd63223   227  4c3950ff       REX.W cmpq [rax-0x1],r10
0x177bccd63227   231  752a           jnz 275  (0x177bccd63253)
0x177bccd63229   233  f20f104007     movsd xmm0,[rax+0x7]
0x177bccd6322e   238  f20f2cc0       cvttsd2sil rax,xmm0
0x177bccd63232   242  0f57c9         xorps xmm1,xmm1
0x177bccd63235   245  f20f2ac8       cvtsi2sd xmm1,rax
0x177bccd63239   249  660f2ec1       ucomisd xmm0,xmm1
                  Deferred TaggedToI: lost precision
0x177bccd6323d   253  7514           jnz 275  (0x177bccd63253)
                  Deferred TaggedToI: NaN
0x177bccd6323f   255  7a12           jpe 275  (0x177bccd63253)
0x177bccd63241   257  85c0           testl rax,rax
0x177bccd63243   259  7509           jnz 270  (0x177bccd6324e)
0x177bccd63245   261  660f50c0       movmskpd rax,xmm0
0x177bccd63249   265  83e001         andl rax,0x1
0x177bccd6324c   268  7505           jnz 275  (0x177bccd63253)
0x177bccd6324e   270  e951ffffff     jmp 100  (0x177bccd631a4)
0x177bccd63253   275  e8e42dcaff     call 0x177bcca0603c     ;; deoptimization bailout 6
0x177bccd63258   280  e947ffffff     jmp 100  (0x177bccd631a4)
                  ;;; <@40,#29> -------------------- Deferred check-maps --------------------
0x177bccd6325d   285  50             push rax
0x177bccd6325e   286  51             push rcx
0x177bccd6325f   287  52             push rdx
0x177bccd63260   288  53             push rbx
0x177bccd63261   289  56             push rsi
0x177bccd63262   290  57             push rdi
0x177bccd63263   291  4150           push r8
0x177bccd63265   293  4151           push r9
0x177bccd63267   295  4153           push r11
0x177bccd63269   297  4156           push r14
0x177bccd6326b   299  4157           push r15
0x177bccd6326d   301  488d6424d8     REX.W leaq rsp,[rsp-0x28]
0x177bccd63272   306  52             push rdx
0x177bccd63273   307  33f6           xorl rsi,rsi
0x177bccd63275   309  b801000000     movl rax,0x1
0x177bccd6327a   314  498d9d482ae6fd REX.W leaq rbx,[r13-0x219d5b8]
0x177bccd63281   321  e81a30faff     call 0x177bccd062a0     ;; code: STUB, CEntryStub, minor: 1
0x177bccd63286   326  a801           test al,0x1
0x177bccd63288   328  488d642428     REX.W leaq rsp,[rsp+0x28]
0x177bccd6328d   333  415f           pop r15
0x177bccd6328f   335  415e           pop r14
0x177bccd63291   337  415b           pop r11
0x177bccd63293   339  4159           pop r9
0x177bccd63295   341  4158           pop r8
0x177bccd63297   343  5f             pop rdi
0x177bccd63298   344  5e             pop rsi
0x177bccd63299   345  5b             pop rbx
0x177bccd6329a   346  5a             pop rdx
0x177bccd6329b   347  59             pop rcx
0x177bccd6329c   348  58             pop rax
0x177bccd6329d   349  0f845f000000   jz 450  (0x177bccd63302)
0x177bccd632a3   355  e928ffffff     jmp 144  (0x177bccd631d0)
                  ;;; <@60,#39> -------------------- Deferred check-maps --------------------
0x177bccd632a8   360  50             push rax
0x177bccd632a9   361  51             push rcx
0x177bccd632aa   362  52             push rdx
0x177bccd632ab   363  53             push rbx
0x177bccd632ac   364  56             push rsi
0x177bccd632ad   365  57             push rdi
0x177bccd632ae   366  4150           push r8
0x177bccd632b0   368  4151           push r9
0x177bccd632b2   370  4153           push r11
0x177bccd632b4   372  4156           push r14
0x177bccd632b6   374  4157           push r15
0x177bccd632b8   376  488d6424d8     REX.W leaq rsp,[rsp-0x28]
0x177bccd632bd   381  52             push rdx
0x177bccd632be   382  33f6           xorl rsi,rsi
0x177bccd632c0   384  b801000000     movl rax,0x1
0x177bccd632c5   389  498d9d482ae6fd REX.W leaq rbx,[r13-0x219d5b8]
0x177bccd632cc   396  e8cf2ffaff     call 0x177bccd062a0     ;; code: STUB, CEntryStub, minor: 1
0x177bccd632d1   401  a801           test al,0x1
0x177bccd632d3   403  488d642428     REX.W leaq rsp,[rsp+0x28]
0x177bccd632d8   408  415f           pop r15
0x177bccd632da   410  415e           pop r14
0x177bccd632dc   412  415b           pop r11
0x177bccd632de   414  4159           pop r9
0x177bccd632e0   416  4158           pop r8
0x177bccd632e2   418  5f             pop rdi
0x177bccd632e3   419  5e             pop rsi
0x177bccd632e4   420  5b             pop rbx
0x177bccd632e5   421  5a             pop rdx
0x177bccd632e6   422  59             pop rcx
0x177bccd632e7   423  58             pop rax
0x177bccd632e8   424  0f8419000000   jz 455  (0x177bccd63307)
0x177bccd632ee   430  e90dffffff     jmp 192  (0x177bccd63200)
                  ;;; -------------------- Jump table --------------------
                  ;;; jump table entry 0: deoptimization bailout 3.
0x177bccd632f3   435  e8262dcaff     call 0x177bcca0601e     ;; deoptimization bailout 3
                  ;;; jump table entry 1: deoptimization bailout 4.
0x177bccd632f8   440  e82b2dcaff     call 0x177bcca06028     ;; deoptimization bailout 4
                  ;;; jump table entry 2: deoptimization bailout 5.
0x177bccd632fd   445  e8302dcaff     call 0x177bcca06032     ;; deoptimization bailout 5
                  ;;; jump table entry 3: deoptimization bailout 7.
0x177bccd63302   450  e83f2dcaff     call 0x177bcca06046     ;; deoptimization bailout 7
                  ;;; jump table entry 4: deoptimization bailout 8.
0x177bccd63307   455  e8442dcaff     call 0x177bcca06050     ;; deoptimization bailout 8
                  ;;; Safepoint table.

Deoptimization Input Data (deopt points = 9)
 index  ast id    argc     pc
     0       3       0     35
     1       8       0     63
     2       8       0     -1
     3      35       0     -1
     4      29       0     -1
     5      34       0     -1
     6      35       0     -1
     7      29       0     -1
     8      34       0     -1

Safepoints (size = 52)
0x177bccd63163    35  1 (sp -> fp)       0
0x177bccd6317f    63  0 (sp -> fp)       1
0x177bccd63286   326  0 | rdx (sp -> fp)  <none> argc: 1
0x177bccd632d1   401  0 | rdx (sp -> fp)  <none> argc: 1

RelocInfo (size = 516)
0x177bccd6314a  comment  (;;; <@0,#0> -------------------- B0 --------------------)
0x177bccd6314a  comment  (;;; <@2,#1> context)
0x177bccd6314e  comment  (;;; <@3,#1> gap)
0x177bccd63152  comment  (;;; <@10,#8> -------------------- B1 --------------------)
0x177bccd63152  comment  (;;; <@11,#8> gap)
0x177bccd63155  comment  (;;; <@12,#10> stack-check)
0x177bccd6315f  code target (BUILTIN)  (0x177bccd31140)
0x177bccd63163  comment  (;;; <@14,#10> lazy-bailout)
0x177bccd63163  comment  (;;; <@15,#10> gap)
0x177bccd6316b  comment  (;;; <@16,#12> load-named-generic)
0x177bccd63172  embedded object  (0x1638fe32da59 <String[8]: __guid__>)
0x177bccd6317b  code target (LOAD_IC)  (0x177bccd30520)
0x177bccd6317f  comment  (;;; <@18,#13> lazy-bailout)
0x177bccd6317f  comment  (;;; <@21,#14> branch)
0x177bccd6318a  runtime entry  (deoptimization bailout 2)
0x177bccd6318e  comment  (;;; <@22,#18> -------------------- B2 (unreachable/replaced) --------------------)
0x177bccd6318e  position  (192)
0x177bccd6318e  comment  (;;; <@26,#21> -------------------- B3 --------------------)
0x177bccd6318e  comment  (;;; <@28,#22> load-global-cell)
0x177bccd63190  property cell
0x177bccd63198  comment  (;;; <@30,#44> tagged-to-i)
0x177bccd631a4  comment  (;;; <@31,#44> gap)
0x177bccd631a7  comment  (;;; <@32,#25> add-i)
0x177bccd631b0  comment  (;;; <@34,#46> smi-tag)
0x177bccd631b6  comment  (;;; <@36,#26> store-global-cell)
0x177bccd631b8  property cell
0x177bccd631c3  comment  (;;; <@37,#26> gap)
0x177bccd631c7  comment  (;;; <@38,#28> check-non-smi)
0x177bccd631d0  comment  (;;; <@40,#29> check-maps)
0x177bccd631d2  embedded object  (0x1b4f13c13ac1 <Map(elements=3)>)
0x177bccd631e4  comment  (;;; <@42,#45> smi-tag)
0x177bccd631ea  comment  (;;; <@44,#30> store-named-field)
0x177bccd631ee  comment  (;;; <@47,#33> goto)
0x177bccd631f3  comment  (;;; <@48,#15> -------------------- B4 --------------------)
0x177bccd631f7  comment  (;;; <@52,#34> -------------------- B5 (unreachable/replaced) --------------------)
0x177bccd631f7  comment  (;;; <@56,#37> -------------------- B6 --------------------)
0x177bccd631f7  comment  (;;; <@58,#38> check-non-smi)
0x177bccd63200  comment  (;;; <@60,#39> check-maps)
0x177bccd63202  embedded object  (0x1b4f13c13ac1 <Map(elements=3)>)
0x177bccd63214  comment  (;;; <@62,#40> load-named-field)
0x177bccd63218  comment  (;;; <@64,#42> return)
0x177bccd6321f  comment  (;;; <@30,#44> -------------------- Deferred tagged-to-i --------------------)
0x177bccd6323d  comment  (Deferred TaggedToI: lost precision)
0x177bccd6323f  comment  (Deferred TaggedToI: NaN)
0x177bccd63254  runtime entry  (deoptimization bailout 6)
0x177bccd6325d  comment  (;;; <@40,#29> -------------------- Deferred check-maps --------------------)
0x177bccd63282  code target (STUB)  (0x177bccd062a0)
0x177bccd632a8  comment  (;;; <@60,#39> -------------------- Deferred check-maps --------------------)
0x177bccd632cd  code target (STUB)  (0x177bccd062a0)
0x177bccd632f3  comment  (;;; -------------------- Jump table --------------------)
0x177bccd632f3  comment  (;;; jump table entry 0: deoptimization bailout 3.)
0x177bccd632f4  runtime entry  (deoptimization bailout 3)
0x177bccd632f8  comment  (;;; jump table entry 1: deoptimization bailout 4.)
0x177bccd632f9  runtime entry  (deoptimization bailout 4)
0x177bccd632fd  comment  (;;; jump table entry 2: deoptimization bailout 5.)
0x177bccd632fe  runtime entry  (deoptimization bailout 5)
0x177bccd63302  comment  (;;; jump table entry 3: deoptimization bailout 7.)
0x177bccd63303  runtime entry  (deoptimization bailout 7)
0x177bccd63307  comment  (;;; jump table entry 4: deoptimization bailout 8.)
0x177bccd63308  runtime entry  (deoptimization bailout 8)
0x177bccd6330c  comment  (;;; Safepoint table.)

--- End code ---
[optimizing 0xecbf5c62111 <JS Function guid (SharedFunctionInfo 0xecbf5c61af9)> - took 0.155, 1.093, 1.243 ms]
[marking 0xecbf5c621a1 <JS Function syncMap (SharedFunctionInfo 0xecbf5c61c19)> for recompilation, reason: hot and stable, ICs with typeinfo: 9/24 (37%)]
Inlined makeMap called from syncMap.
Inlined guid called from syncMap.
Inlined guid called from syncMap.
Did not inline ident called from syncMap (target not inlineable).
--- Raw source ---
(mapped, source, mapFn) {\x0a  var i,x, l, guidMap = makeMap();\x0a\x0a  for (i = 0, l = mapped.length; i < l; i++) {\x0a    var mappedItem = mapped[i];\x0a    var sourceItem = mappedItem.__source__;\x0a    guidMap[guid(sourceItem)] = mappedItem;\x0a  }\x0a\x0a  mapped.length = source.length;\x0a\x0a  for (x = 0, l = source.length; x < l; x++) {\x0a    var sourceItem = source[x];\x0a    var sourceItemGuid = guid(source[x]);\x0a    var mappedItem;\x0a\x0a    if (guidMap[sourceItemGuid] === undefined) {\x0a      mappedItem = mapFn(sourceItem);\x0a      mappedItem.__source__ = sourceItem;\x0a    } else {\x0a      mappedItem = guidMap[sourceItemGuid];\x0a    }\x0a\x0a    mapped[x] = mappedItem;\x0a  }\x0a}\x0a

--- Optimized code ---
optimization_id = 2
source_position = 347
kind = OPTIMIZED_FUNCTION
name = syncMap
stack_slots = 20
Instructions (size = 2243)
0x177bccd65020     0  55             push rbp
0x177bccd65021     1  4889e5         REX.W movq rbp,rsp
0x177bccd65024     4  56             push rsi
0x177bccd65025     5  57             push rdi
0x177bccd65026     6  4881eca0000000 REX.W subq rsp,0xa0
                  ;;; <@0,#0> -------------------- B0 --------------------
                  ;;; <@2,#1> context
0x177bccd6502d    13  488b45f8       REX.W movq rax,[rbp-0x8]
                  ;;; <@3,#1> gap
0x177bccd65031    17  488945b0       REX.W movq [rbp-0x50],rax
                  ;;; <@14,#10> -------------------- B1 --------------------
                  ;;; <@15,#10> gap
0x177bccd65035    21  488bf0         REX.W movq rsi,rax
                  ;;; <@16,#12> stack-check
0x177bccd65038    24  493ba590070000 REX.W cmpq rsp,[r13+0x790]
0x177bccd6503f    31  7305           jnc 38  (0x177bccd65046)
0x177bccd65041    33  e8fac0fcff     call StackCheck  (0x177bccd31140)    ;; code: BUILTIN
                  ;;; <@18,#12> lazy-bailout
                  ;;; <@20,#16> constant-t
0x177bccd65046    38  48be49f7c6f5cb0e0000 REX.W movq rsi,0xecbf5c6f749    ;; object: 0xecbf5c6f749 <FixedArray[112]>
                  ;;; <@22,#20> constant-t
0x177bccd65050    48  48bab10ec5f5cb0e0000 REX.W movq rdx,0xecbf5c50eb1    ;; object: 0xecbf5c50eb1 <JS Function Object (SharedFunctionInfo 0xecbf5c3d169)>
                  ;;; <@24,#21> load-named-generic
0x177bccd6505a    58  48b9a12b31fe38160000 REX.W movq rcx,0x1638fe312ba1    ;; object: 0x1638fe312ba1 <String[6]: create>
0x177bccd65064    68  e8b7b4fcff     call 0x177bccd30520     ;; code: LOAD_IC, UNINITIALIZED
                  ;;; <@26,#22> lazy-bailout
                  ;;; <@28,#24> push-argument
0x177bccd65069    73  49bab10ec5f5cb0e0000 REX.W movq r10,0xecbf5c50eb1    ;; object: 0xecbf5c50eb1 <JS Function Object (SharedFunctionInfo 0xecbf5c3d169)>
0x177bccd65073    83  4152           push r10
                  ;;; <@30,#24> push-argument
0x177bccd65075    85  49ba0141c0f5cb0e0000 REX.W movq r10,0xecbf5c04101    ;; object: 0xecbf5c04101 <null>
0x177bccd6507f    95  4152           push r10
                  ;;; <@32,#16> constant-t
0x177bccd65081    97  48be49f7c6f5cb0e0000 REX.W movq rsi,0xecbf5c6f749    ;; object: 0xecbf5c6f749 <FixedArray[112]>
                  ;;; <@33,#16> gap
0x177bccd6508b   107  488bf8         REX.W movq rdi,rax
                  ;;; <@34,#25> call-function
0x177bccd6508e   110  e84d75fcff     call 0x177bccd2c5e0     ;; code: STUB, CallFunctionStub, argc = 1
                  ;;; <@35,#25> gap
0x177bccd65093   115  488945a8       REX.W movq [rbp-0x58],rax
0x177bccd65097   119  488bd8         REX.W movq rbx,rax
                  ;;; <@36,#26> lazy-bailout
                  ;;; <@38,#16> constant-t
0x177bccd6509a   122  48be49f7c6f5cb0e0000 REX.W movq rsi,0xecbf5c6f749    ;; object: 0xecbf5c6f749 <FixedArray[112]>
                  ;;; <@40,#344> constant-t
0x177bccd650a4   132  4c89e0         REX.W movq rax,r12
                  ;;; <@41,#344> gap
0x177bccd650a7   135  488bd3         REX.W movq rdx,rbx
                  ;;; <@42,#31> store-named-generic
0x177bccd650aa   138  48b961c432fe38160000 REX.W movq rcx,0x1638fe32c461    ;; object: 0x1638fe32c461 <String[3]: foo>
0x177bccd650b4   148  e8e7b4fcff     call 0x177bccd305a0     ;; code: STORE_IC, UNINITIALIZED
                  ;;; <@44,#32> lazy-bailout
                  ;;; <@46,#16> constant-t
0x177bccd650b9   153  48be49f7c6f5cb0e0000 REX.W movq rsi,0xecbf5c6f749    ;; object: 0xecbf5c6f749 <FixedArray[112]>
                  ;;; <@48,#35> load-named-field
0x177bccd650c3   163  488b4627       REX.W movq rax,[rsi+0x27]
                  ;;; <@50,#36> load-named-field
0x177bccd650c7   167  488b4017       REX.W movq rax,[rax+0x17]
                  ;;; <@52,#37> load-named-field
0x177bccd650cb   171  488bb8a7000000 REX.W movq rdi,[rax+0xa7]
                  ;;; <@54,#39> push-argument
0x177bccd650d2   178  ff75a8         push [rbp-0x58]
                  ;;; <@56,#39> push-argument
0x177bccd650d5   181  49ba61c432fe38160000 REX.W movq r10,0x1638fe32c461    ;; object: 0x1638fe32c461 <String[3]: foo>
0x177bccd650df   191  4152           push r10
                  ;;; <@58,#39> push-argument
0x177bccd650e1   193  6a00           push 0x0
                  ;;; <@60,#16> constant-t
0x177bccd650e3   195  48be49f7c6f5cb0e0000 REX.W movq rsi,0xecbf5c6f749    ;; object: 0xecbf5c6f749 <FixedArray[112]>
                  ;;; <@62,#40> invoke-function
0x177bccd650ed   205  488b5727       REX.W movq rdx,[rdi+0x27]
0x177bccd650f1   209  488b772f       REX.W movq rsi,[rdi+0x2f]
0x177bccd650f5   213  48635a63       REX.W movsxlq rbx,[rdx+0x63]
0x177bccd650f9   217  488b5717       REX.W movq rdx,[rdi+0x17]
0x177bccd650fd   221  4883fb02       REX.W cmpq rbx,0x2
0x177bccd65101   225  740c           jz 239  (0x177bccd6510f)
0x177bccd65103   227  b802000000     movl rax,0x2
0x177bccd65108   232  e8931cfaff     call ArgumentsAdaptorTrampoline  (0x177bccd06da0)    ;; code: BUILTIN
0x177bccd6510d   237  eb02           jmp 241  (0x177bccd65111)
0x177bccd6510f   239  ffd2           call rdx
                  ;;; <@64,#41> lazy-bailout
                  ;;; <@68,#46> -------------------- B2 --------------------
                  ;;; <@69,#46> gap
0x177bccd65111   241  488b75b0       REX.W movq rsi,[rbp-0x50]
0x177bccd65115   245  488b5520       REX.W movq rdx,[rbp+0x20]
                  ;;; <@70,#50> load-named-generic
0x177bccd65119   249  0f1f440000     nop
0x177bccd6511e   254  48b989f430fe38160000 REX.W movq rcx,0x1638fe30f489    ;; object: 0x1638fe30f489 <String[6]: length>
0x177bccd65128   264  e8f3b3fcff     call 0x177bccd30520     ;; code: LOAD_IC, UNINITIALIZED
                  ;;; <@72,#51> lazy-bailout
                  ;;; <@73,#51> gap
0x177bccd6512d   269  488bd8         REX.W movq rbx,rax
                  ;;; <@74,#346> tagged-to-i
0x177bccd65130   272  f6c301         testb rbx,0x1           ;; debug: position 444
0x177bccd65133   275  0f85f0030000   jnz 1289  (0x177bccd65529)
0x177bccd65139   281  48c1eb20       REX.W shrq rbx,32
                  ;;; <@76,#66> gap
0x177bccd6513d   285  33d2           xorl rdx,rdx
                  ;;; <@78,#67> -------------------- B3 (loop header) --------------------
                  ;;; <@81,#70> compare-numeric-and-branch
0x177bccd6513f   287  3bd3           cmpl rdx,rbx
0x177bccd65141   289  0f8d12000000   jge 313  (0x177bccd65159)
                  ;;; <@82,#71> -------------------- B4 (unreachable/replaced) --------------------
                  ;;; <@86,#77> -------------------- B5 --------------------
                  ;;; <@88,#79> stack-check
0x177bccd65147   295  493ba590070000 REX.W cmpq rsp,[r13+0x790]
0x177bccd6514e   302  0f8206040000   jc 1338  (0x177bccd6555a)
                  ;;; <@91,#81> deoptimize
                  ;;; deoptimize: Insufficient type feedback for keyed load
0x177bccd65154   308  e8ed0eeaff     call 0x177bccc06046     ;; soft deoptimization bailout 7
                  ;;; <@92,#82> -------------------- B6 (unreachable/replaced) --------------------
                  ;;; <@104,#88> -------------------- B7 (unreachable/replaced) --------------------
                  ;;; <@116,#107> -------------------- B8 (unreachable/replaced) --------------------
                  ;;; <@120,#110> -------------------- B9 (unreachable/replaced) --------------------
                  ;;; <@152,#104> -------------------- B10 (unreachable/replaced) --------------------
                  ;;; <@156,#123> -------------------- B11 (unreachable/replaced) --------------------
                  ;;; <@160,#126> -------------------- B12 (unreachable/replaced) --------------------
                  ;;; <@174,#133> -------------------- B13 (unreachable/replaced) --------------------
                  ;;; <@178,#136> -------------------- B14 (unreachable/replaced) --------------------
                  ;;; <@196,#74> -------------------- B15 (unreachable/replaced) --------------------
                  ;;; <@200,#144> -------------------- B16 --------------------
                  ;;; <@201,#144> gap
0x177bccd65159   313  488b75b0       REX.W movq rsi,[rbp-0x50]    ;; debug: position 450
0x177bccd6515d   317  488b5518       REX.W movq rdx,[rbp+0x18]
                  ;;; <@202,#145> load-named-generic
0x177bccd65161   321  48b989f430fe38160000 REX.W movq rcx,0x1638fe30f489    ;; object: 0x1638fe30f489 <String[6]: length>
0x177bccd6516b   331  e8b0b3fcff     call 0x177bccd30520     ;; code: LOAD_IC, UNINITIALIZED
                  ;;; <@204,#146> lazy-bailout
                  ;;; <@205,#146> gap
0x177bccd65170   336  488b75b0       REX.W movq rsi,[rbp-0x50]
0x177bccd65174   340  488b5520       REX.W movq rdx,[rbp+0x20]
                  ;;; <@206,#147> store-named-generic
0x177bccd65178   344  0f1f440000     nop
0x177bccd6517d   349  48b989f430fe38160000 REX.W movq rcx,0x1638fe30f489    ;; object: 0x1638fe30f489 <String[6]: length>
0x177bccd65187   359  e814b4fcff     call 0x177bccd305a0     ;; code: STORE_IC, UNINITIALIZED
                  ;;; <@208,#148> lazy-bailout
                  ;;; <@209,#148> gap
0x177bccd6518c   364  488b75b0       REX.W movq rsi,[rbp-0x50]
0x177bccd65190   368  488b5518       REX.W movq rdx,[rbp+0x18]
                  ;;; <@210,#151> load-named-generic
0x177bccd65194   372  0f1f440000     nop
0x177bccd65199   377  48b989f430fe38160000 REX.W movq rcx,0x1638fe30f489    ;; object: 0x1638fe30f489 <String[6]: length>
0x177bccd651a3   387  e878b3fcff     call 0x177bccd30520     ;; code: LOAD_IC, UNINITIALIZED
                  ;;; <@212,#152> lazy-bailout
                  ;;; <@215,#155> goto
0x177bccd651a8   392  e948000000     jmp 469  (0x177bccd651f5)
                  ;;; <@216,#159> -------------------- B17 (OSR entry) --------------------
0x177bccd651ad   397  4883ec68       REX.W subq rsp,0x68
                  ;;; <@244,#174> context
0x177bccd651b1   401  488b75f8       REX.W movq rsi,[rbp-0x8]
                  ;;; <@245,#174> gap
0x177bccd651b5   405  488b45e0       REX.W movq rax,[rbp-0x20]
                  ;;; <@246,#352> tagged-to-i
0x177bccd651b9   409  a801           test al,0x1
0x177bccd651bb   411  0f85da030000   jnz 1403  (0x177bccd6559b)
0x177bccd651c1   417  48c1e820       REX.W shrq rax,32
                  ;;; <@247,#352> gap
0x177bccd651c5   421  488b5dd8       REX.W movq rbx,[rbp-0x28]
                  ;;; <@248,#353> tagged-to-i
0x177bccd651c9   425  f6c301         testb rbx,0x1
0x177bccd651cc   428  0f8507040000   jnz 1465  (0x177bccd655d9)
0x177bccd651d2   434  48c1eb20       REX.W shrq rbx,32
                  ;;; <@250,#176> gap
0x177bccd651d6   438  4c8b5d28       REX.W movq r11,[rbp+0x28]
0x177bccd651da   442  4c8b4d20       REX.W movq r9,[rbp+0x20]
0x177bccd651de   446  4c8b4518       REX.W movq r8,[rbp+0x18]
0x177bccd651e2   450  488b7d10       REX.W movq rdi,[rbp+0x10]
0x177bccd651e6   454  488bce         REX.W movq rcx,rsi
0x177bccd651e9   457  488bd0         REX.W movq rdx,rax
0x177bccd651ec   460  488b45d0       REX.W movq rax,[rbp-0x30]
                  ;;; <@251,#176> goto
0x177bccd651f0   464  e92a000000     jmp 511  (0x177bccd6521f)
                  ;;; <@252,#156> -------------------- B18 --------------------
                  ;;; <@253,#156> gap
0x177bccd651f5   469  488bd8         REX.W movq rbx,rax
                  ;;; <@254,#351> tagged-to-i
0x177bccd651f8   472  f6c301         testb rbx,0x1
0x177bccd651fb   475  0f8509040000   jnz 1514  (0x177bccd6560a)
0x177bccd65201   481  48c1eb20       REX.W shrq rbx,32
                  ;;; <@256,#158> gap
0x177bccd65205   485  4c8b5d28       REX.W movq r11,[rbp+0x28]
0x177bccd65209   489  4c8b4d20       REX.W movq r9,[rbp+0x20]
0x177bccd6520d   493  4c8b4518       REX.W movq r8,[rbp+0x18]
0x177bccd65211   497  488b7d10       REX.W movq rdi,[rbp+0x10]
0x177bccd65215   501  488b4db0       REX.W movq rcx,[rbp-0x50]
0x177bccd65219   505  488b45a8       REX.W movq rax,[rbp-0x58]
0x177bccd6521d   509  33d2           xorl rdx,rdx
                  ;;; <@258,#201> -------------------- B19 --------------------
0x177bccd6521f   511  4c899d78ffffff REX.W movq [rbp-0x88],r11
0x177bccd65226   518  4c894d80       REX.W movq [rbp-0x80],r9
0x177bccd6522a   522  4c894588       REX.W movq [rbp-0x78],r8
0x177bccd6522e   526  48897d90       REX.W movq [rbp-0x70],rdi
0x177bccd65232   530  48898d60ffffff REX.W movq [rbp-0xa0],rcx
0x177bccd65239   537  48895d98       REX.W movq [rbp-0x68],rbx
0x177bccd6523d   541  488945a0       REX.W movq [rbp-0x60],rax
                  ;;; <@260,#218> check-non-smi
0x177bccd65241   545  41f6c001       testb r8,0x1            ;; debug: position 650
0x177bccd65245   549  0f8450050000   jz 1915  (0x177bccd6579b)
                  ;;; <@262,#284> check-value
0x177bccd6524b   555  49bae921c6f5cb0e0000 REX.W movq r10,0xecbf5c621e9    ;; debug: position 789
                                                             ;; object: 0xecbf5c621e9 <JS Function ident (SharedFunctionInfo 0xecbf5c61ca9)>
0x177bccd65255   565  493bfa         REX.W cmpq rdi,r10
0x177bccd65258   568  0f8542050000   jnz 1920  (0x177bccd657a0)
                  ;;; <@264,#314> check-non-smi
0x177bccd6525e   574  41f6c101       testb r9,0x1
0x177bccd65262   578  0f843d050000   jz 1925  (0x177bccd657a5)
                  ;;; <@266,#203> gap
0x177bccd65268   584  4c8bf2         REX.W movq r14,rdx      ;; debug: position 450
                  ;;; <@268,#204> -------------------- B20 (loop header) --------------------
0x177bccd6526b   587  4c89b570ffffff REX.W movq [rbp-0x90],r14    ;; debug: position 650
                  ;;; <@271,#207> compare-numeric-and-branch
0x177bccd65272   594  443bf3         cmpl r14,rbx
0x177bccd65275   597  0f8d9d020000   jge 1272  (0x177bccd65518)
                  ;;; <@272,#208> -------------------- B21 (unreachable/replaced) --------------------
                  ;;; <@276,#214> -------------------- B22 --------------------
                  ;;; <@278,#216> stack-check
0x177bccd6527b   603  493ba590070000 REX.W cmpq rsp,[r13+0x790]
0x177bccd65282   610  0f82b3030000   jc 1563  (0x177bccd6563b)
                  ;;; <@280,#219> check-maps
0x177bccd65288   616  49bac9d5c0134f1b0000 REX.W movq r10,0x1b4f13c0d5c9    ;; object: 0x1b4f13c0d5c9 <Map(elements=2)>
0x177bccd65292   626  4d3950ff       REX.W cmpq [r8-0x1],r10
0x177bccd65296   630  0f850e050000   jnz 1930  (0x177bccd657aa)
                  ;;; <@282,#220> load-named-field
0x177bccd6529c   636  498b500f       REX.W movq rdx,[r8+0xf]
                  ;;; <@284,#221> load-named-field
0x177bccd652a0   640  418b701b       movl rsi,[r8+0x1b]
                  ;;; <@286,#222> bounds-check
0x177bccd652a4   644  413bf6         cmpl rsi,r14
0x177bccd652a7   647  0f8602050000   jna 1935  (0x177bccd657af)
                  ;;; <@288,#223> load-keyed
0x177bccd652ad   653  4e8b7cf20f     REX.W movq r15,[rdx+r14*8+0xf]
                  ;;; <@289,#223> gap
0x177bccd652b2   658  4c89bd68ffffff REX.W movq [rbp-0x98],r15
                  ;;; <@290,#235> constant-t
0x177bccd652b9   665  48be49f7c6f5cb0e0000 REX.W movq rsi,0xecbf5c6f749    ;; object: 0xecbf5c6f749 <FixedArray[112]>
                  ;;; <@291,#235> gap
0x177bccd652c3   675  498bd7         REX.W movq rdx,r15
                  ;;; <@292,#239> load-named-generic
0x177bccd652c6   678  48b959da32fe38160000 REX.W movq rcx,0x1638fe32da59    ;; object: 0x1638fe32da59 <String[8]: __guid__>
0x177bccd652d0   688  e84bb2fcff     call 0x177bccd30520     ;; code: LOAD_IC, UNINITIALIZED
                  ;;; <@294,#240> lazy-bailout
                  ;;; <@297,#241> branch
0x177bccd652d5   693  493b45a8       REX.W cmpq rax,[r13-0x58]
0x177bccd652d9   697  0f8405000000   jz 708  (0x177bccd652e4)
0x177bccd652df   703  e8da0dcaff     call 0x177bcca060be     ;; deoptimization bailout 19
                  ;;; <@298,#245> -------------------- B23 (unreachable/replaced) --------------------
                  ;;; <@302,#248> -------------------- B24 --------------------
                  ;;; <@304,#249> load-global-cell
0x177bccd652e4   708  48a1e8046125ac0f0000 REX.W movq rax,(0xfac256104e8)    ;; debug: position 192
                                                             ;; property cell
                  ;;; <@306,#355> tagged-to-i
0x177bccd652ee   718  a801           test al,0x1
0x177bccd652f0   720  0f8586030000   jnz 1628  (0x177bccd6567c)
0x177bccd652f6   726  48c1e820       REX.W shrq rax,32
                  ;;; <@307,#355> gap
0x177bccd652fa   730  488bd8         REX.W movq rbx,rax
                  ;;; <@308,#251> add-i
0x177bccd652fd   733  83c301         addl rbx,0x1
0x177bccd65300   736  0f80ae040000   jo 1940  (0x177bccd657b4)
                  ;;; <@310,#357> smi-tag
0x177bccd65306   742  8bd3           movl rdx,rbx
0x177bccd65308   744  48c1e220       REX.W shlq rdx,32
                  ;;; <@312,#252> store-global-cell
0x177bccd6530c   748  49bae8046125ac0f0000 REX.W movq r10,0xfac256104e8    ;; property cell
0x177bccd65316   758  498912         REX.W movq [r10],rdx
                  ;;; <@313,#252> gap
0x177bccd65319   761  488bbd68ffffff REX.W movq rdi,[rbp-0x98]
                  ;;; <@314,#254> check-non-smi
0x177bccd65320   768  40f6c701       testb rdi,0x1
0x177bccd65324   772  0f848f040000   jz 1945  (0x177bccd657b9)
                  ;;; <@316,#255> check-maps
0x177bccd6532a   778  49bac13ac1134f1b0000 REX.W movq r10,0x1b4f13c13ac1    ;; object: 0x1b4f13c13ac1 <Map(elements=3)>
0x177bccd65334   788  4c3957ff       REX.W cmpq [rdi-0x1],r10
0x177bccd65338   792  0f857c030000   jnz 1690  (0x177bccd656ba)
                  ;;; <@318,#356> smi-tag
0x177bccd6533e   798  8bd8           movl rbx,rax
0x177bccd65340   800  48c1e320       REX.W shlq rbx,32
                  ;;; <@320,#256> store-named-field
0x177bccd65344   804  48895f1f       REX.W movq [rdi+0x1f],rbx
                  ;;; <@323,#259> goto
0x177bccd65348   808  e907000000     jmp 820  (0x177bccd65354)
                  ;;; <@324,#242> -------------------- B25 --------------------
0x177bccd6534d   813  488bbd68ffffff REX.W movq rdi,[rbp-0x98]    ;; debug: position 650
                  ;;; <@328,#260> -------------------- B26 (unreachable/replaced) --------------------
                  ;;; <@332,#263> -------------------- B27 --------------------
                  ;;; <@334,#264> check-non-smi
0x177bccd65354   820  40f6c701       testb rdi,0x1           ;; debug: position 192
0x177bccd65358   824  0f8460040000   jz 1950  (0x177bccd657be)
                  ;;; <@336,#265> check-maps
0x177bccd6535e   830  49bac13ac1134f1b0000 REX.W movq r10,0x1b4f13c13ac1    ;; object: 0x1b4f13c13ac1 <Map(elements=3)>
0x177bccd65368   840  4c3957ff       REX.W cmpq [rdi-0x1],r10
0x177bccd6536c   844  0f8593030000   jnz 1765  (0x177bccd65705)
                  ;;; <@338,#266> load-named-field
0x177bccd65372   850  488b471f       REX.W movq rax,[rdi+0x1f]
                  ;;; <@339,#266> gap
0x177bccd65376   854  48898558ffffff REX.W movq [rbp-0xa8],rax
                  ;;; <@342,#270> -------------------- B28 --------------------
                  ;;; <@343,#270> gap
0x177bccd6537d   861  488bb560ffffff REX.W movq rsi,[rbp-0xa0]
0x177bccd65384   868  488b55a0       REX.W movq rdx,[rbp-0x60]
0x177bccd65388   872  488bc8         REX.W movq rcx,rax
                  ;;; <@344,#274> load-keyed-generic
0x177bccd6538b   875  e8d0f4fcff     call KeyedLoadIC_Initialize  (0x177bccd34860)    ;; debug: position 789
                                                             ;; code: KEYED_LOAD_IC, UNINITIALIZED
                  ;;; <@346,#275> lazy-bailout
                  ;;; <@349,#276> cmp-object-eq-and-branch
0x177bccd65390   880  49ba2141c0f5cb0e0000 REX.W movq r10,0xecbf5c04121    ;; object: 0xecbf5c04121 <undefined>
0x177bccd6539a   890  493bc2         REX.W cmpq rax,r10
0x177bccd6539d   893  0f8405000000   jz 904  (0x177bccd653a8)
                  ;;; <@350,#280> -------------------- B29 (unreachable/replaced) --------------------
                  ;;; <@354,#298> -------------------- B30 --------------------
                  ;;; <@357,#301> deoptimize
                  ;;; deoptimize: Insufficient type feedback for keyed load
0x177bccd653a3   899  e8480deaff     call 0x177bccc060f0     ;; soft deoptimization bailout 24
                  ;;; <@358,#302> -------------------- B31 (unreachable/replaced) --------------------
                  ;;; <@368,#277> -------------------- B32 (unreachable/replaced) --------------------
                  ;;; <@372,#283> -------------------- B33 --------------------
                  ;;; <@374,#287> push-argument
0x177bccd653a8   904  49ba2103c6f5cb0e0000 REX.W movq r10,0xecbf5c60321    ;; object: 0xecbf5c60321 <JS Global Object>
0x177bccd653b2   914  4152           push r10
                  ;;; <@376,#287> push-argument
0x177bccd653b4   916  ffb568ffffff   push [rbp-0x98]
                  ;;; <@377,#287> gap
0x177bccd653ba   922  488bb560ffffff REX.W movq rsi,[rbp-0xa0]
0x177bccd653c1   929  488b7d90       REX.W movq rdi,[rbp-0x70]
                  ;;; <@378,#288> invoke-function
0x177bccd653c5   933  488b772f       REX.W movq rsi,[rdi+0x2f]
0x177bccd653c9   937  ff5717         call [rdi+0x17]
                  ;;; <@380,#289> lazy-bailout
                  ;;; <@382,#293> check-non-smi
0x177bccd653cc   940  a801           test al,0x1
0x177bccd653ce   942  0f84ef030000   jz 1955  (0x177bccd657c3)
                  ;;; <@384,#294> check-maps
0x177bccd653d4   948  49bac13ac1134f1b0000 REX.W movq r10,0x1b4f13c13ac1    ;; object: 0x1b4f13c13ac1 <Map(elements=3)>
0x177bccd653de   958  4c3950ff       REX.W cmpq [rax-0x1],r10
0x177bccd653e2   962  0f8568030000   jnz 1840  (0x177bccd65750)
                  ;;; <@385,#294> gap
0x177bccd653e8   968  488b9d68ffffff REX.W movq rbx,[rbp-0x98]
                  ;;; <@386,#296> store-named-field
0x177bccd653ef   975  48895827       REX.W movq [rax+0x27],rbx
0x177bccd653f3   979  488d5027       REX.W leaq rdx,[rax+0x27]
0x177bccd653f7   983  4881e30000f0ff REX.W andq rbx,0xfffffffffff00000
0x177bccd653fe   990  f6430804       testb [rbx+0x8],0x4
0x177bccd65402   994  7415           jz 1017  (0x177bccd65419)
0x177bccd65404   996  48c7c30000f0ff REX.W movq rbx,0xfff00000
0x177bccd6540b  1003  4823d8         REX.W andq rbx,rax
0x177bccd6540e  1006  f6430808       testb [rbx+0x8],0x8
0x177bccd65412  1010  7405           jz 1017  (0x177bccd65419)
0x177bccd65414  1012  e847e7ffff     call 0x177bccd63b60     ;; code: STUB, RecordWriteStub, minor: 8752
                  ;;; <@388,#307> gap
0x177bccd65419  1017  488bd8         REX.W movq rbx,rax
                  ;;; <@390,#311> -------------------- B34 --------------------
0x177bccd6541c  1020  48899d50ffffff REX.W movq [rbp-0xb0],rbx
                  ;;; <@392,#315> gap
0x177bccd65423  1027  488b7d80       REX.W movq rdi,[rbp-0x80]
                  ;;; <@393,#315> cmp-map-and-branch
0x177bccd65427  1031  49ba313ac1134f1b0000 REX.W movq r10,0x1b4f13c13a31    ;; object: 0x1b4f13c13a31 <Map(elements=6)>
0x177bccd65431  1041  4c3957ff       REX.W cmpq [rdi-0x1],r10
0x177bccd65435  1045  0f847f000000   jz 1178  (0x177bccd654ba)
                  ;;; <@394,#319> -------------------- B35 --------------------
                  ;;; <@397,#320> cmp-map-and-branch
0x177bccd6543b  1051  49ba093bc1134f1b0000 REX.W movq r10,0x1b4f13c13b09    ;; object: 0x1b4f13c13b09 <Map(elements=3)>
0x177bccd65445  1061  4c3957ff       REX.W cmpq [rdi-0x1],r10
0x177bccd65449  1065  0f85bd000000   jnz 1260  (0x177bccd6550c)
                  ;;; <@398,#321> -------------------- B36 --------------------
                  ;;; <@400,#322> load-named-field
0x177bccd6544f  1071  488b470f       REX.W movq rax,[rdi+0xf]
                  ;;; <@402,#323> check-maps
0x177bccd65453  1075  49ba2142c0134f1b0000 REX.W movq r10,0x1b4f13c04221    ;; object: 0x1b4f13c04221 <Map(elements=0)>
0x177bccd6545d  1085  4c3950ff       REX.W cmpq [rax-0x1],r10
0x177bccd65461  1089  0f8561030000   jnz 1960  (0x177bccd657c8)
                  ;;; <@404,#324> load-named-field
0x177bccd65467  1095  8b571b         movl rdx,[rdi+0x1b]
                  ;;; <@405,#324> gap
0x177bccd6546a  1098  4c8b8570ffffff REX.W movq r8,[rbp-0x90]
                  ;;; <@406,#325> bounds-check
0x177bccd65471  1105  413bd0         cmpl rdx,r8
0x177bccd65474  1108  0f8653030000   jna 1965  (0x177bccd657cd)
                  ;;; <@407,#325> gap
0x177bccd6547a  1114  488bd0         REX.W movq rdx,rax
0x177bccd6547d  1117  498bc0         REX.W movq rax,r8
                  ;;; <@408,#327> store-keyed
0x177bccd65480  1120  48895cc20f     REX.W movq [rdx+rax*8+0xf],rbx
0x177bccd65485  1125  488d44c20f     REX.W leaq rax,[rdx+rax*8+0xf]
0x177bccd6548a  1130  f6c301         testb rbx,0x1
0x177bccd6548d  1133  0f8422000000   jz 1173  (0x177bccd654b5)
0x177bccd65493  1139  4881e30000f0ff REX.W andq rbx,0xfffffffffff00000
0x177bccd6549a  1146  f6430804       testb [rbx+0x8],0x4
0x177bccd6549e  1150  7415           jz 1173  (0x177bccd654b5)
0x177bccd654a0  1152  48c7c30000f0ff REX.W movq rbx,0xfff00000
0x177bccd654a7  1159  4823da         REX.W andq rbx,rdx
0x177bccd654aa  1162  f6430808       testb [rbx+0x8],0x8
0x177bccd654ae  1166  7405           jz 1173  (0x177bccd654b5)
0x177bccd654b0  1168  e80bf1ffff     call 0x177bccd645c0     ;; code: STUB, RecordWriteStub, minor: 8242
                  ;;; <@411,#328> goto
0x177bccd654b5  1173  e920000000     jmp 1210  (0x177bccd654da)
                  ;;; <@412,#316> -------------------- B37 --------------------
0x177bccd654ba  1178  4c8b8570ffffff REX.W movq r8,[rbp-0x90]
                  ;;; <@414,#354> smi-tag
0x177bccd654c1  1185  418bc8         movl rcx,r8
0x177bccd654c4  1188  48c1e120       REX.W shlq rcx,32
                  ;;; <@415,#354> gap
0x177bccd654c8  1192  488bb560ffffff REX.W movq rsi,[rbp-0xa0]
0x177bccd654cf  1199  488bd7         REX.W movq rdx,rdi
0x177bccd654d2  1202  488bc3         REX.W movq rax,rbx
                  ;;; <@416,#317> store-keyed-generic
0x177bccd654d5  1205  e84619fdff     call KeyedStoreIC_Initialize  (0x177bccd36e20)    ;; code: KEYED_STORE_IC, UNINITIALIZED
                  ;;; <@418,#317> lazy-bailout
                  ;;; <@422,#333> -------------------- B38 --------------------
                  ;;; <@423,#333> gap
0x177bccd654da  1210  488b8570ffffff REX.W movq rax,[rbp-0x90]
                  ;;; <@424,#336> add-i
0x177bccd654e1  1217  448d7001       leal r14,[rax+0x1]      ;; debug: position 656
                  ;;; <@426,#339> gap
0x177bccd654e5  1221  4c8b9d78ffffff REX.W movq r11,[rbp-0x88]
0x177bccd654ec  1228  4c8b4d80       REX.W movq r9,[rbp-0x80]
0x177bccd654f0  1232  4c8b4588       REX.W movq r8,[rbp-0x78]
0x177bccd654f4  1236  488b7d90       REX.W movq rdi,[rbp-0x70]
0x177bccd654f8  1240  488b8d60ffffff REX.W movq rcx,[rbp-0xa0]
0x177bccd654ff  1247  488b5d98       REX.W movq rbx,[rbp-0x68]
0x177bccd65503  1251  488b45a0       REX.W movq rax,[rbp-0x60]
                  ;;; <@427,#339> goto
0x177bccd65507  1255  e95ffdffff     jmp 587  (0x177bccd6526b)
                  ;;; <@428,#329> -------------------- B39 --------------------
0x177bccd6550c  1260  488b8570ffffff REX.W movq rax,[rbp-0x90]    ;; debug: position 789
                  ;;; <@431,#330> deoptimize
                  ;;; deoptimize: Unknown map in polymorphic element access
0x177bccd65513  1267  e8140ccaff     call 0x177bcca0612c     ;; deoptimization bailout 30
                  ;;; <@432,#331> -------------------- B40 (unreachable/replaced) --------------------
                  ;;; <@434,#211> -------------------- B41 (unreachable/replaced) --------------------
                  ;;; <@438,#340> -------------------- B42 --------------------
                  ;;; <@440,#7> constant-t
0x177bccd65518  1272  48b82141c0f5cb0e0000 REX.W movq rax,0xecbf5c04121    ;; debug: position 656
                                                             ;; object: 0xecbf5c04121 <undefined>
                  ;;; <@442,#342> return
0x177bccd65522  1282  488be5         REX.W movq rsp,rbp
0x177bccd65525  1285  5d             pop rbp
0x177bccd65526  1286  c22000         ret 0x20
                  ;;; <@74,#346> -------------------- Deferred tagged-to-i --------------------
0x177bccd65529  1289  4d8b5500       REX.W movq r10,[r13+0x0]    ;; debug: position 444
0x177bccd6552d  1293  4c3953ff       REX.W cmpq [rbx-0x1],r10
0x177bccd65531  1297  751d           jnz 1328  (0x177bccd65550)
0x177bccd65533  1299  f20f104307     movsd xmm0,[rbx+0x7]
0x177bccd65538  1304  f20f2cd8       cvttsd2sil rbx,xmm0
0x177bccd6553c  1308  0f57c9         xorps xmm1,xmm1
0x177bccd6553f  1311  f20f2acb       cvtsi2sd xmm1,rbx
0x177bccd65543  1315  660f2ec1       ucomisd xmm0,xmm1
                  Deferred TaggedToI: lost precision
0x177bccd65547  1319  7507           jnz 1328  (0x177bccd65550)
                  Deferred TaggedToI: NaN
0x177bccd65549  1321  7a05           jpe 1328  (0x177bccd65550)
0x177bccd6554b  1323  e9edfbffff     jmp 285  (0x177bccd6513d)
0x177bccd65550  1328  e8e10bcaff     call 0x177bcca06136     ;; deoptimization bailout 31
0x177bccd65555  1333  e9e3fbffff     jmp 285  (0x177bccd6513d)
                  ;;; <@88,#79> -------------------- Deferred stack-check --------------------
0x177bccd6555a  1338  50             push rax
0x177bccd6555b  1339  51             push rcx
0x177bccd6555c  1340  52             push rdx
0x177bccd6555d  1341  53             push rbx
0x177bccd6555e  1342  56             push rsi
0x177bccd6555f  1343  57             push rdi
0x177bccd65560  1344  4150           push r8
0x177bccd65562  1346  4151           push r9
0x177bccd65564  1348  4153           push r11
0x177bccd65566  1350  4156           push r14
0x177bccd65568  1352  4157           push r15
0x177bccd6556a  1354  488d6424d8     REX.W leaq rsp,[rsp-0x28]
0x177bccd6556f  1359  488b75f8       REX.W movq rsi,[rbp-0x8]
0x177bccd65573  1363  33c0           xorl rax,rax
0x177bccd65575  1365  498d9d58bce4fd REX.W leaq rbx,[r13-0x21b43a8]
0x177bccd6557c  1372  e81f0dfaff     call 0x177bccd062a0     ;; code: STUB, CEntryStub, minor: 1
0x177bccd65581  1377  488d642428     REX.W leaq rsp,[rsp+0x28]
0x177bccd65586  1382  415f           pop r15
0x177bccd65588  1384  415e           pop r14
0x177bccd6558a  1386  415b           pop r11
0x177bccd6558c  1388  4159           pop r9
0x177bccd6558e  1390  4158           pop r8
0x177bccd65590  1392  5f             pop rdi
0x177bccd65591  1393  5e             pop rsi
0x177bccd65592  1394  5b             pop rbx
0x177bccd65593  1395  5a             pop rdx
0x177bccd65594  1396  59             pop rcx
0x177bccd65595  1397  58             pop rax
0x177bccd65596  1398  e9b9fbffff     jmp 308  (0x177bccd65154)
                  ;;; <@246,#352> -------------------- Deferred tagged-to-i --------------------
0x177bccd6559b  1403  4d8b5500       REX.W movq r10,[r13+0x0]    ;; debug: position 450
0x177bccd6559f  1407  4c3950ff       REX.W cmpq [rax-0x1],r10
0x177bccd655a3  1411  752a           jnz 1455  (0x177bccd655cf)
0x177bccd655a5  1413  f20f104007     movsd xmm0,[rax+0x7]
0x177bccd655aa  1418  f20f2cc0       cvttsd2sil rax,xmm0
0x177bccd655ae  1422  0f57c9         xorps xmm1,xmm1
0x177bccd655b1  1425  f20f2ac8       cvtsi2sd xmm1,rax
0x177bccd655b5  1429  660f2ec1       ucomisd xmm0,xmm1
                  Deferred TaggedToI: lost precision
0x177bccd655b9  1433  7514           jnz 1455  (0x177bccd655cf)
                  Deferred TaggedToI: NaN
0x177bccd655bb  1435  7a12           jpe 1455  (0x177bccd655cf)
0x177bccd655bd  1437  85c0           testl rax,rax
0x177bccd655bf  1439  7509           jnz 1450  (0x177bccd655ca)
0x177bccd655c1  1441  660f50c0       movmskpd rax,xmm0
0x177bccd655c5  1445  83e001         andl rax,0x1
0x177bccd655c8  1448  7505           jnz 1455  (0x177bccd655cf)
0x177bccd655ca  1450  e9f6fbffff     jmp 421  (0x177bccd651c5)
0x177bccd655cf  1455  e86c0bcaff     call 0x177bcca06140     ;; deoptimization bailout 32
0x177bccd655d4  1460  e9ecfbffff     jmp 421  (0x177bccd651c5)
                  ;;; <@248,#353> -------------------- Deferred tagged-to-i --------------------
0x177bccd655d9  1465  4d8b5500       REX.W movq r10,[r13+0x0]
0x177bccd655dd  1469  4c3953ff       REX.W cmpq [rbx-0x1],r10
0x177bccd655e1  1473  751d           jnz 1504  (0x177bccd65600)
0x177bccd655e3  1475  f20f104307     movsd xmm0,[rbx+0x7]
0x177bccd655e8  1480  f20f2cd8       cvttsd2sil rbx,xmm0
0x177bccd655ec  1484  0f57c9         xorps xmm1,xmm1
0x177bccd655ef  1487  f20f2acb       cvtsi2sd xmm1,rbx
0x177bccd655f3  1491  660f2ec1       ucomisd xmm0,xmm1
                  Deferred TaggedToI: lost precision
0x177bccd655f7  1495  7507           jnz 1504  (0x177bccd65600)
                  Deferred TaggedToI: NaN
0x177bccd655f9  1497  7a05           jpe 1504  (0x177bccd65600)
0x177bccd655fb  1499  e9d6fbffff     jmp 438  (0x177bccd651d6)
0x177bccd65600  1504  e8450bcaff     call 0x177bcca0614a     ;; deoptimization bailout 33
0x177bccd65605  1509  e9ccfbffff     jmp 438  (0x177bccd651d6)
                  ;;; <@254,#351> -------------------- Deferred tagged-to-i --------------------
0x177bccd6560a  1514  4d8b5500       REX.W movq r10,[r13+0x0]
0x177bccd6560e  1518  4c3953ff       REX.W cmpq [rbx-0x1],r10
0x177bccd65612  1522  751d           jnz 1553  (0x177bccd65631)
0x177bccd65614  1524  f20f104307     movsd xmm0,[rbx+0x7]
0x177bccd65619  1529  f20f2cd8       cvttsd2sil rbx,xmm0
0x177bccd6561d  1533  0f57c9         xorps xmm1,xmm1
0x177bccd65620  1536  f20f2acb       cvtsi2sd xmm1,rbx
0x177bccd65624  1540  660f2ec1       ucomisd xmm0,xmm1
                  Deferred TaggedToI: lost precision
0x177bccd65628  1544  7507           jnz 1553  (0x177bccd65631)
                  Deferred TaggedToI: NaN
0x177bccd6562a  1546  7a05           jpe 1553  (0x177bccd65631)
0x177bccd6562c  1548  e9d4fbffff     jmp 485  (0x177bccd65205)
0x177bccd65631  1553  e81e0bcaff     call 0x177bcca06154     ;; deoptimization bailout 34
0x177bccd65636  1558  e9cafbffff     jmp 485  (0x177bccd65205)
                  ;;; <@278,#216> -------------------- Deferred stack-check --------------------
0x177bccd6563b  1563  50             push rax                ;; debug: position 650
0x177bccd6563c  1564  51             push rcx
0x177bccd6563d  1565  52             push rdx
0x177bccd6563e  1566  53             push rbx
0x177bccd6563f  1567  56             push rsi
0x177bccd65640  1568  57             push rdi
0x177bccd65641  1569  4150           push r8
0x177bccd65643  1571  4151           push r9
0x177bccd65645  1573  4153           push r11
0x177bccd65647  1575  4156           push r14
0x177bccd65649  1577  4157           push r15
0x177bccd6564b  1579  488d6424d8     REX.W leaq rsp,[rsp-0x28]
0x177bccd65650  1584  488b75f8       REX.W movq rsi,[rbp-0x8]
0x177bccd65654  1588  33c0           xorl rax,rax
0x177bccd65656  1590  498d9d58bce4fd REX.W leaq rbx,[r13-0x21b43a8]
0x177bccd6565d  1597  e83e0cfaff     call 0x177bccd062a0     ;; code: STUB, CEntryStub, minor: 1
0x177bccd65662  1602  488d642428     REX.W leaq rsp,[rsp+0x28]
0x177bccd65667  1607  415f           pop r15
0x177bccd65669  1609  415e           pop r14
0x177bccd6566b  1611  415b           pop r11
0x177bccd6566d  1613  4159           pop r9
0x177bccd6566f  1615  4158           pop r8
0x177bccd65671  1617  5f             pop rdi
0x177bccd65672  1618  5e             pop rsi
0x177bccd65673  1619  5b             pop rbx
0x177bccd65674  1620  5a             pop rdx
0x177bccd65675  1621  59             pop rcx
0x177bccd65676  1622  58             pop rax
0x177bccd65677  1623  e90cfcffff     jmp 616  (0x177bccd65288)
                  ;;; <@306,#355> -------------------- Deferred tagged-to-i --------------------
0x177bccd6567c  1628  4d8b5500       REX.W movq r10,[r13+0x0]    ;; debug: position 192
0x177bccd65680  1632  4c3950ff       REX.W cmpq [rax-0x1],r10
0x177bccd65684  1636  752a           jnz 1680  (0x177bccd656b0)
0x177bccd65686  1638  f20f104007     movsd xmm0,[rax+0x7]
0x177bccd6568b  1643  f20f2cc0       cvttsd2sil rax,xmm0
0x177bccd6568f  1647  0f57c9         xorps xmm1,xmm1
0x177bccd65692  1650  f20f2ac8       cvtsi2sd xmm1,rax
0x177bccd65696  1654  660f2ec1       ucomisd xmm0,xmm1
                  Deferred TaggedToI: lost precision
0x177bccd6569a  1658  7514           jnz 1680  (0x177bccd656b0)
                  Deferred TaggedToI: NaN
0x177bccd6569c  1660  7a12           jpe 1680  (0x177bccd656b0)
0x177bccd6569e  1662  85c0           testl rax,rax
0x177bccd656a0  1664  7509           jnz 1675  (0x177bccd656ab)
0x177bccd656a2  1666  660f50c0       movmskpd rax,xmm0
0x177bccd656a6  1670  83e001         andl rax,0x1
0x177bccd656a9  1673  7505           jnz 1680  (0x177bccd656b0)
0x177bccd656ab  1675  e94afcffff     jmp 730  (0x177bccd652fa)
0x177bccd656b0  1680  e8a90acaff     call 0x177bcca0615e     ;; deoptimization bailout 35
0x177bccd656b5  1685  e940fcffff     jmp 730  (0x177bccd652fa)
                  ;;; <@316,#255> -------------------- Deferred check-maps --------------------
0x177bccd656ba  1690  50             push rax
0x177bccd656bb  1691  51             push rcx
0x177bccd656bc  1692  52             push rdx
0x177bccd656bd  1693  53             push rbx
0x177bccd656be  1694  56             push rsi
0x177bccd656bf  1695  57             push rdi
0x177bccd656c0  1696  4150           push r8
0x177bccd656c2  1698  4151           push r9
0x177bccd656c4  1700  4153           push r11
0x177bccd656c6  1702  4156           push r14
0x177bccd656c8  1704  4157           push r15
0x177bccd656ca  1706  488d6424d8     REX.W leaq rsp,[rsp-0x28]
0x177bccd656cf  1711  57             push rdi
0x177bccd656d0  1712  33f6           xorl rsi,rsi
0x177bccd656d2  1714  b801000000     movl rax,0x1
0x177bccd656d7  1719  498d9d482ae6fd REX.W leaq rbx,[r13-0x219d5b8]
0x177bccd656de  1726  e8bd0bfaff     call 0x177bccd062a0     ;; code: STUB, CEntryStub, minor: 1
0x177bccd656e3  1731  a801           test al,0x1
0x177bccd656e5  1733  488d642428     REX.W leaq rsp,[rsp+0x28]
0x177bccd656ea  1738  415f           pop r15
0x177bccd656ec  1740  415e           pop r14
0x177bccd656ee  1742  415b           pop r11
0x177bccd656f0  1744  4159           pop r9
0x177bccd656f2  1746  4158           pop r8
0x177bccd656f4  1748  5f             pop rdi
0x177bccd656f5  1749  5e             pop rsi
0x177bccd656f6  1750  5b             pop rbx
0x177bccd656f7  1751  5a             pop rdx
0x177bccd656f8  1752  59             pop rcx
0x177bccd656f9  1753  58             pop rax
0x177bccd656fa  1754  0f84d2000000   jz 1970  (0x177bccd657d2)
0x177bccd65700  1760  e925fcffff     jmp 778  (0x177bccd6532a)
                  ;;; <@336,#265> -------------------- Deferred check-maps --------------------
0x177bccd65705  1765  50             push rax
0x177bccd65706  1766  51             push rcx
0x177bccd65707  1767  52             push rdx
0x177bccd65708  1768  53             push rbx
0x177bccd65709  1769  56             push rsi
0x177bccd6570a  1770  57             push rdi
0x177bccd6570b  1771  4150           push r8
0x177bccd6570d  1773  4151           push r9
0x177bccd6570f  1775  4153           push r11
0x177bccd65711  1777  4156           push r14
0x177bccd65713  1779  4157           push r15
0x177bccd65715  1781  488d6424d8     REX.W leaq rsp,[rsp-0x28]
0x177bccd6571a  1786  57             push rdi
0x177bccd6571b  1787  33f6           xorl rsi,rsi
0x177bccd6571d  1789  b801000000     movl rax,0x1
0x177bccd65722  1794  498d9d482ae6fd REX.W leaq rbx,[r13-0x219d5b8]
0x177bccd65729  1801  e8720bfaff     call 0x177bccd062a0     ;; code: STUB, CEntryStub, minor: 1
0x177bccd6572e  1806  a801           test al,0x1
0x177bccd65730  1808  488d642428     REX.W leaq rsp,[rsp+0x28]
0x177bccd65735  1813  415f           pop r15
0x177bccd65737  1815  415e           pop r14
0x177bccd65739  1817  415b           pop r11
0x177bccd6573b  1819  4159           pop r9
0x177bccd6573d  1821  4158           pop r8
0x177bccd6573f  1823  5f             pop rdi
0x177bccd65740  1824  5e             pop rsi
0x177bccd65741  1825  5b             pop rbx
0x177bccd65742  1826  5a             pop rdx
0x177bccd65743  1827  59             pop rcx
0x177bccd65744  1828  58             pop rax
0x177bccd65745  1829  0f848c000000   jz 1975  (0x177bccd657d7)
0x177bccd6574b  1835  e90efcffff     jmp 830  (0x177bccd6535e)
                  ;;; <@384,#294> -------------------- Deferred check-maps --------------------
0x177bccd65750  1840  50             push rax                ;; debug: position 789
0x177bccd65751  1841  51             push rcx
0x177bccd65752  1842  52             push rdx
0x177bccd65753  1843  53             push rbx
0x177bccd65754  1844  56             push rsi
0x177bccd65755  1845  57             push rdi
0x177bccd65756  1846  4150           push r8
0x177bccd65758  1848  4151           push r9
0x177bccd6575a  1850  4153           push r11
0x177bccd6575c  1852  4156           push r14
0x177bccd6575e  1854  4157           push r15
0x177bccd65760  1856  488d6424d8     REX.W leaq rsp,[rsp-0x28]
0x177bccd65765  1861  50             push rax
0x177bccd65766  1862  33f6           xorl rsi,rsi
0x177bccd65768  1864  b801000000     movl rax,0x1
0x177bccd6576d  1869  498d9d482ae6fd REX.W leaq rbx,[r13-0x219d5b8]
0x177bccd65774  1876  e8270bfaff     call 0x177bccd062a0     ;; code: STUB, CEntryStub, minor: 1
0x177bccd65779  1881  a801           test al,0x1
0x177bccd6577b  1883  488d642428     REX.W leaq rsp,[rsp+0x28]
0x177bccd65780  1888  415f           pop r15
0x177bccd65782  1890  415e           pop r14
0x177bccd65784  1892  415b           pop r11
0x177bccd65786  1894  4159           pop r9
0x177bccd65788  1896  4158           pop r8
0x177bccd6578a  1898  5f             pop rdi
0x177bccd6578b  1899  5e             pop rsi
0x177bccd6578c  1900  5b             pop rbx
0x177bccd6578d  1901  5a             pop rdx
0x177bccd6578e  1902  59             pop rcx
0x177bccd6578f  1903  58             pop rax
0x177bccd65790  1904  0f8446000000   jz 1980  (0x177bccd657dc)
0x177bccd65796  1910  e939fcffff     jmp 948  (0x177bccd653d4)
                  ;;; -------------------- Jump table --------------------
                  ;;; jump table entry 0: deoptimization bailout 12.
0x177bccd6579b  1915  e8d808caff     call 0x177bcca06078     ;; deoptimization bailout 12
                  ;;; jump table entry 1: deoptimization bailout 13.
0x177bccd657a0  1920  e8dd08caff     call 0x177bcca06082     ;; deoptimization bailout 13
                  ;;; jump table entry 2: deoptimization bailout 14.
0x177bccd657a5  1925  e8e208caff     call 0x177bcca0608c     ;; deoptimization bailout 14
                  ;;; jump table entry 3: deoptimization bailout 16.
0x177bccd657aa  1930  e8f108caff     call 0x177bcca060a0     ;; deoptimization bailout 16
                  ;;; jump table entry 4: deoptimization bailout 17.
0x177bccd657af  1935  e8f608caff     call 0x177bcca060aa     ;; deoptimization bailout 17
                  ;;; jump table entry 5: deoptimization bailout 20.
0x177bccd657b4  1940  e80f09caff     call 0x177bcca060c8     ;; deoptimization bailout 20
                  ;;; jump table entry 6: deoptimization bailout 21.
0x177bccd657b9  1945  e81409caff     call 0x177bcca060d2     ;; deoptimization bailout 21
                  ;;; jump table entry 7: deoptimization bailout 22.
0x177bccd657be  1950  e81909caff     call 0x177bcca060dc     ;; deoptimization bailout 22
                  ;;; jump table entry 8: deoptimization bailout 26.
0x177bccd657c3  1955  e83c09caff     call 0x177bcca06104     ;; deoptimization bailout 26
                  ;;; jump table entry 9: deoptimization bailout 27.
0x177bccd657c8  1960  e84109caff     call 0x177bcca0610e     ;; deoptimization bailout 27
                  ;;; jump table entry 10: deoptimization bailout 28.
0x177bccd657cd  1965  e84609caff     call 0x177bcca06118     ;; deoptimization bailout 28
                  ;;; jump table entry 11: deoptimization bailout 36.
0x177bccd657d2  1970  e89109caff     call 0x177bcca06168     ;; deoptimization bailout 36
                  ;;; jump table entry 12: deoptimization bailout 37.
0x177bccd657d7  1975  e89609caff     call 0x177bcca06172     ;; deoptimization bailout 37
                  ;;; jump table entry 13: deoptimization bailout 38.
0x177bccd657dc  1980  e89b09caff     call 0x177bcca0617c     ;; deoptimization bailout 38
0x177bccd657e1  1985  0f1f00         nop
                  ;;; Safepoint table.

Deoptimization Input Data (deopt points = 39)
 index  ast id    argc     pc
     0       3       0     38
     1      15       0     73
     2      18       0    122
     3      35       0    153
     4      45       0    241
     5      38       0    269
     6      51       0    308
     7      51       0     -1
     8     129       0    336
     9     132       0    364
    10     148       0    392
    11     159       0     -1
    12     157       0     -1
    13     157       0     -1
    14     157       0     -1
    15     161       0    616
    16     161       0     -1
    17     161       0     -1
    18       8       0    693
    19       8       0     -1
    20      35       0     -1
    21      29       0     -1
    22      34       0     -1
    23     225       0    880
    24     276       0     -1
    25     241       0    940
    26     241       0     -1
    27     274       0     -1
    28     274       0     -1
    29     274       0   1210
    30     274       0     -1
    31      47       0     -1
    32     157       0     -1
    33     157       0     -1
    34     157       0     -1
    35      35       0     -1
    36      29       0     -1
    37      34       0     -1
    38     241       0     -1

Safepoints (size = 255)
0x177bccd65046    38  00000000000010000000 (sp -> fp)       0
0x177bccd65069    73  00000000000010000000 (sp -> fp)       1
0x177bccd65093   115  00000000000010000000 (sp -> fp)       2
0x177bccd650b9   153  00000000000110000000 (sp -> fp)       3
0x177bccd6510d   237  00000000000110000000 (sp -> fp)       4
0x177bccd65111   241  00000000000110000000 (sp -> fp)       4
0x177bccd6512d   269  00000000000110000000 (sp -> fp)       5
0x177bccd65170   336  00000000000110000000 (sp -> fp)       8
0x177bccd6518c   364  00000000000110000000 (sp -> fp)       9
0x177bccd651a8   392  00000000000110000000 (sp -> fp)      10
0x177bccd652d5   693  00110111101000000000 (sp -> fp)      18
0x177bccd65390   880  01110111101000000000 (sp -> fp)      23
0x177bccd653cc   940  00110111101000000000 (sp -> fp)      25
0x177bccd654da  1210  10100111101000000000 (sp -> fp)      29
0x177bccd65581  1377  00000000000110000000 | rax (sp -> fp)       6
0x177bccd65662  1602  00100111101000000000 | rax | rcx | rdi | r8 | r9 | r11 (sp -> fp)      15
0x177bccd656e3  1731  00110111101000000000 | rdi (sp -> fp)  <none> argc: 1
0x177bccd6572e  1806  00110111101000000000 | rdi (sp -> fp)  <none> argc: 1
0x177bccd65779  1881  00110111101000000000 | rax (sp -> fp)  <none> argc: 1

RelocInfo (size = 2545)
0x177bccd6502d  comment  (;;; <@0,#0> -------------------- B0 --------------------)
0x177bccd6502d  comment  (;;; <@2,#1> context)
0x177bccd65031  comment  (;;; <@3,#1> gap)
0x177bccd65035  comment  (;;; <@14,#10> -------------------- B1 --------------------)
0x177bccd65035  comment  (;;; <@15,#10> gap)
0x177bccd65038  comment  (;;; <@16,#12> stack-check)
0x177bccd65042  code target (BUILTIN)  (0x177bccd31140)
0x177bccd65046  comment  (;;; <@18,#12> lazy-bailout)
0x177bccd65046  comment  (;;; <@20,#16> constant-t)
0x177bccd65048  embedded object  (0xecbf5c6f749 <FixedArray[112]>)
0x177bccd65050  comment  (;;; <@22,#20> constant-t)
0x177bccd65052  embedded object  (0xecbf5c50eb1 <JS Function Object (SharedFunctionInfo 0xecbf5c3d169)>)
0x177bccd6505a  comment  (;;; <@24,#21> load-named-generic)
0x177bccd6505c  embedded object  (0x1638fe312ba1 <String[6]: create>)
0x177bccd65065  code target (LOAD_IC)  (0x177bccd30520)
0x177bccd65069  comment  (;;; <@26,#22> lazy-bailout)
0x177bccd65069  comment  (;;; <@28,#24> push-argument)
0x177bccd6506b  embedded object  (0xecbf5c50eb1 <JS Function Object (SharedFunctionInfo 0xecbf5c3d169)>)
0x177bccd65075  comment  (;;; <@30,#24> push-argument)
0x177bccd65077  embedded object  (0xecbf5c04101 <null>)
0x177bccd65081  comment  (;;; <@32,#16> constant-t)
0x177bccd65083  embedded object  (0xecbf5c6f749 <FixedArray[112]>)
0x177bccd6508b  comment  (;;; <@33,#16> gap)
0x177bccd6508e  comment  (;;; <@34,#25> call-function)
0x177bccd6508f  code target (STUB)  (0x177bccd2c5e0)
0x177bccd65093  comment  (;;; <@35,#25> gap)
0x177bccd6509a  comment  (;;; <@36,#26> lazy-bailout)
0x177bccd6509a  comment  (;;; <@38,#16> constant-t)
0x177bccd6509c  embedded object  (0xecbf5c6f749 <FixedArray[112]>)
0x177bccd650a4  comment  (;;; <@40,#344> constant-t)
0x177bccd650a7  comment  (;;; <@41,#344> gap)
0x177bccd650aa  comment  (;;; <@42,#31> store-named-generic)
0x177bccd650ac  embedded object  (0x1638fe32c461 <String[3]: foo>)
0x177bccd650b5  code target (STORE_IC)  (0x177bccd305a0)
0x177bccd650b9  comment  (;;; <@44,#32> lazy-bailout)
0x177bccd650b9  comment  (;;; <@46,#16> constant-t)
0x177bccd650bb  embedded object  (0xecbf5c6f749 <FixedArray[112]>)
0x177bccd650c3  comment  (;;; <@48,#35> load-named-field)
0x177bccd650c7  comment  (;;; <@50,#36> load-named-field)
0x177bccd650cb  comment  (;;; <@52,#37> load-named-field)
0x177bccd650d2  comment  (;;; <@54,#39> push-argument)
0x177bccd650d5  comment  (;;; <@56,#39> push-argument)
0x177bccd650d7  embedded object  (0x1638fe32c461 <String[3]: foo>)
0x177bccd650e1  comment  (;;; <@58,#39> push-argument)
0x177bccd650e3  comment  (;;; <@60,#16> constant-t)
0x177bccd650e5  embedded object  (0xecbf5c6f749 <FixedArray[112]>)
0x177bccd650ed  comment  (;;; <@62,#40> invoke-function)
0x177bccd65109  code target (BUILTIN)  (0x177bccd06da0)
0x177bccd65111  comment  (;;; <@64,#41> lazy-bailout)
0x177bccd65111  comment  (;;; <@68,#46> -------------------- B2 --------------------)
0x177bccd65111  comment  (;;; <@69,#46> gap)
0x177bccd65119  comment  (;;; <@70,#50> load-named-generic)
0x177bccd65120  embedded object  (0x1638fe30f489 <String[6]: length>)
0x177bccd65129  code target (LOAD_IC)  (0x177bccd30520)
0x177bccd6512d  comment  (;;; <@72,#51> lazy-bailout)
0x177bccd6512d  comment  (;;; <@73,#51> gap)
0x177bccd65130  comment  (;;; <@74,#346> tagged-to-i)
0x177bccd65130  position  (444)
0x177bccd6513d  comment  (;;; <@76,#66> gap)
0x177bccd6513f  comment  (;;; <@78,#67> -------------------- B3 (loop header) --------------------)
0x177bccd6513f  comment  (;;; <@81,#70> compare-numeric-and-branch)
0x177bccd65147  comment  (;;; <@82,#71> -------------------- B4 (unreachable/replaced) --------------------)
0x177bccd65147  comment  (;;; <@86,#77> -------------------- B5 --------------------)
0x177bccd65147  comment  (;;; <@88,#79> stack-check)
0x177bccd65154  comment  (;;; <@91,#81> deoptimize)
0x177bccd65154  comment  (;;; deoptimize: Insufficient type feedback for keyed load)
0x177bccd65155  runtime entry
0x177bccd65159  comment  (;;; <@92,#82> -------------------- B6 (unreachable/replaced) --------------------)
0x177bccd65159  comment  (;;; <@104,#88> -------------------- B7 (unreachable/replaced) --------------------)
0x177bccd65159  comment  (;;; <@116,#107> -------------------- B8 (unreachable/replaced) --------------------)
0x177bccd65159  comment  (;;; <@120,#110> -------------------- B9 (unreachable/replaced) --------------------)
0x177bccd65159  comment  (;;; <@152,#104> -------------------- B10 (unreachable/replaced) --------------------)
0x177bccd65159  comment  (;;; <@156,#123> -------------------- B11 (unreachable/replaced) --------------------)
0x177bccd65159  comment  (;;; <@160,#126> -------------------- B12 (unreachable/replaced) --------------------)
0x177bccd65159  comment  (;;; <@174,#133> -------------------- B13 (unreachable/replaced) --------------------)
0x177bccd65159  comment  (;;; <@178,#136> -------------------- B14 (unreachable/replaced) --------------------)
0x177bccd65159  comment  (;;; <@196,#74> -------------------- B15 (unreachable/replaced) --------------------)
0x177bccd65159  position  (450)
0x177bccd65159  comment  (;;; <@200,#144> -------------------- B16 --------------------)
0x177bccd65159  comment  (;;; <@201,#144> gap)
0x177bccd65161  comment  (;;; <@202,#145> load-named-generic)
0x177bccd65163  embedded object  (0x1638fe30f489 <String[6]: length>)
0x177bccd6516c  code target (LOAD_IC)  (0x177bccd30520)
0x177bccd65170  comment  (;;; <@204,#146> lazy-bailout)
0x177bccd65170  comment  (;;; <@205,#146> gap)
0x177bccd65178  comment  (;;; <@206,#147> store-named-generic)
0x177bccd6517f  embedded object  (0x1638fe30f489 <String[6]: length>)
0x177bccd65188  code target (STORE_IC)  (0x177bccd305a0)
0x177bccd6518c  comment  (;;; <@208,#148> lazy-bailout)
0x177bccd6518c  comment  (;;; <@209,#148> gap)
0x177bccd65194  comment  (;;; <@210,#151> load-named-generic)
0x177bccd6519b  embedded object  (0x1638fe30f489 <String[6]: length>)
0x177bccd651a4  code target (LOAD_IC)  (0x177bccd30520)
0x177bccd651a8  comment  (;;; <@212,#152> lazy-bailout)
0x177bccd651a8  comment  (;;; <@215,#155> goto)
0x177bccd651ad  comment  (;;; <@216,#159> -------------------- B17 (OSR entry) --------------------)
0x177bccd651b1  comment  (;;; <@244,#174> context)
0x177bccd651b5  comment  (;;; <@245,#174> gap)
0x177bccd651b9  comment  (;;; <@246,#352> tagged-to-i)
0x177bccd651c5  comment  (;;; <@247,#352> gap)
0x177bccd651c9  comment  (;;; <@248,#353> tagged-to-i)
0x177bccd651d6  comment  (;;; <@250,#176> gap)
0x177bccd651f0  comment  (;;; <@251,#176> goto)
0x177bccd651f5  comment  (;;; <@252,#156> -------------------- B18 --------------------)
0x177bccd651f5  comment  (;;; <@253,#156> gap)
0x177bccd651f8  comment  (;;; <@254,#351> tagged-to-i)
0x177bccd65205  comment  (;;; <@256,#158> gap)
0x177bccd6521f  comment  (;;; <@258,#201> -------------------- B19 --------------------)
0x177bccd65241  comment  (;;; <@260,#218> check-non-smi)
0x177bccd65241  position  (650)
0x177bccd6524b  comment  (;;; <@262,#284> check-value)
0x177bccd6524b  position  (789)
0x177bccd6524d  embedded object  (0xecbf5c621e9 <JS Function ident (SharedFunctionInfo 0xecbf5c61ca9)>)
0x177bccd6525e  comment  (;;; <@264,#314> check-non-smi)
0x177bccd65268  comment  (;;; <@266,#203> gap)
0x177bccd65268  position  (450)
0x177bccd6526b  position  (650)
0x177bccd6526b  comment  (;;; <@268,#204> -------------------- B20 (loop header) --------------------)
0x177bccd65272  comment  (;;; <@271,#207> compare-numeric-and-branch)
0x177bccd6527b  comment  (;;; <@272,#208> -------------------- B21 (unreachable/replaced) --------------------)
0x177bccd6527b  comment  (;;; <@276,#214> -------------------- B22 --------------------)
0x177bccd6527b  comment  (;;; <@278,#216> stack-check)
0x177bccd65288  comment  (;;; <@280,#219> check-maps)
0x177bccd6528a  embedded object  (0x1b4f13c0d5c9 <Map(elements=2)>)
0x177bccd6529c  comment  (;;; <@282,#220> load-named-field)
0x177bccd652a0  comment  (;;; <@284,#221> load-named-field)
0x177bccd652a4  comment  (;;; <@286,#222> bounds-check)
0x177bccd652ad  comment  (;;; <@288,#223> load-keyed)
0x177bccd652b2  comment  (;;; <@289,#223> gap)
0x177bccd652b9  comment  (;;; <@290,#235> constant-t)
0x177bccd652bb  embedded object  (0xecbf5c6f749 <FixedArray[112]>)
0x177bccd652c3  comment  (;;; <@291,#235> gap)
0x177bccd652c6  comment  (;;; <@292,#239> load-named-generic)
0x177bccd652c8  embedded object  (0x1638fe32da59 <String[8]: __guid__>)
0x177bccd652d1  code target (LOAD_IC)  (0x177bccd30520)
0x177bccd652d5  comment  (;;; <@294,#240> lazy-bailout)
0x177bccd652d5  comment  (;;; <@297,#241> branch)
0x177bccd652e0  runtime entry  (deoptimization bailout 19)
0x177bccd652e4  comment  (;;; <@298,#245> -------------------- B23 (unreachable/replaced) --------------------)
0x177bccd652e4  position  (192)
0x177bccd652e4  comment  (;;; <@302,#248> -------------------- B24 --------------------)
0x177bccd652e4  comment  (;;; <@304,#249> load-global-cell)
0x177bccd652e6  property cell
0x177bccd652ee  comment  (;;; <@306,#355> tagged-to-i)
0x177bccd652fa  comment  (;;; <@307,#355> gap)
0x177bccd652fd  comment  (;;; <@308,#251> add-i)
0x177bccd65306  comment  (;;; <@310,#357> smi-tag)
0x177bccd6530c  comment  (;;; <@312,#252> store-global-cell)
0x177bccd6530e  property cell
0x177bccd65319  comment  (;;; <@313,#252> gap)
0x177bccd65320  comment  (;;; <@314,#254> check-non-smi)
0x177bccd6532a  comment  (;;; <@316,#255> check-maps)
0x177bccd6532c  embedded object  (0x1b4f13c13ac1 <Map(elements=3)>)
0x177bccd6533e  comment  (;;; <@318,#356> smi-tag)
0x177bccd65344  comment  (;;; <@320,#256> store-named-field)
0x177bccd65348  comment  (;;; <@323,#259> goto)
0x177bccd6534d  position  (650)
0x177bccd6534d  comment  (;;; <@324,#242> -------------------- B25 --------------------)
0x177bccd65354  comment  (;;; <@328,#260> -------------------- B26 (unreachable/replaced) --------------------)
0x177bccd65354  position  (192)
0x177bccd65354  comment  (;;; <@332,#263> -------------------- B27 --------------------)
0x177bccd65354  comment  (;;; <@334,#264> check-non-smi)
0x177bccd6535e  comment  (;;; <@336,#265> check-maps)
0x177bccd65360  embedded object  (0x1b4f13c13ac1 <Map(elements=3)>)
0x177bccd65372  comment  (;;; <@338,#266> load-named-field)
0x177bccd65376  comment  (;;; <@339,#266> gap)
0x177bccd6537d  comment  (;;; <@342,#270> -------------------- B28 --------------------)
0x177bccd6537d  comment  (;;; <@343,#270> gap)
0x177bccd6538b  comment  (;;; <@344,#274> load-keyed-generic)
0x177bccd6538b  position  (789)
0x177bccd6538c  code target (KEYED_LOAD_IC)  (0x177bccd34860)
0x177bccd65390  comment  (;;; <@346,#275> lazy-bailout)
0x177bccd65390  comment  (;;; <@349,#276> cmp-object-eq-and-branch)
0x177bccd65392  embedded object  (0xecbf5c04121 <undefined>)
0x177bccd653a3  comment  (;;; <@350,#280> -------------------- B29 (unreachable/replaced) --------------------)
0x177bccd653a3  comment  (;;; <@354,#298> -------------------- B30 --------------------)
0x177bccd653a3  comment  (;;; <@357,#301> deoptimize)
0x177bccd653a3  comment  (;;; deoptimize: Insufficient type feedback for keyed load)
0x177bccd653a4  runtime entry
0x177bccd653a8  comment  (;;; <@358,#302> -------------------- B31 (unreachable/replaced) --------------------)
0x177bccd653a8  comment  (;;; <@368,#277> -------------------- B32 (unreachable/replaced) --------------------)
0x177bccd653a8  comment  (;;; <@372,#283> -------------------- B33 --------------------)
0x177bccd653a8  comment  (;;; <@374,#287> push-argument)
0x177bccd653aa  embedded object  (0xecbf5c60321 <JS Global Object>)
0x177bccd653b4  comment  (;;; <@376,#287> push-argument)
0x177bccd653ba  comment  (;;; <@377,#287> gap)
0x177bccd653c5  comment  (;;; <@378,#288> invoke-function)
0x177bccd653cc  comment  (;;; <@380,#289> lazy-bailout)
0x177bccd653cc  comment  (;;; <@382,#293> check-non-smi)
0x177bccd653d4  comment  (;;; <@384,#294> check-maps)
0x177bccd653d6  embedded object  (0x1b4f13c13ac1 <Map(elements=3)>)
0x177bccd653e8  comment  (;;; <@385,#294> gap)
0x177bccd653ef  comment  (;;; <@386,#296> store-named-field)
0x177bccd65415  code target (STUB)  (0x177bccd63b60)
0x177bccd65419  comment  (;;; <@388,#307> gap)
0x177bccd6541c  comment  (;;; <@390,#311> -------------------- B34 --------------------)
0x177bccd65423  comment  (;;; <@392,#315> gap)
0x177bccd65427  comment  (;;; <@393,#315> cmp-map-and-branch)
0x177bccd65429  embedded object  (0x1b4f13c13a31 <Map(elements=6)>)
0x177bccd6543b  comment  (;;; <@394,#319> -------------------- B35 --------------------)
0x177bccd6543b  comment  (;;; <@397,#320> cmp-map-and-branch)
0x177bccd6543d  embedded object  (0x1b4f13c13b09 <Map(elements=3)>)
0x177bccd6544f  comment  (;;; <@398,#321> -------------------- B36 --------------------)
0x177bccd6544f  comment  (;;; <@400,#322> load-named-field)
0x177bccd65453  comment  (;;; <@402,#323> check-maps)
0x177bccd65455  embedded object  (0x1b4f13c04221 <Map(elements=0)>)
0x177bccd65467  comment  (;;; <@404,#324> load-named-field)
0x177bccd6546a  comment  (;;; <@405,#324> gap)
0x177bccd65471  comment  (;;; <@406,#325> bounds-check)
0x177bccd6547a  comment  (;;; <@407,#325> gap)
0x177bccd65480  comment  (;;; <@408,#327> store-keyed)
0x177bccd654b1  code target (STUB)  (0x177bccd645c0)
0x177bccd654b5  comment  (;;; <@411,#328> goto)
0x177bccd654ba  comment  (;;; <@412,#316> -------------------- B37 --------------------)
0x177bccd654c1  comment  (;;; <@414,#354> smi-tag)
0x177bccd654c8  comment  (;;; <@415,#354> gap)
0x177bccd654d5  comment  (;;; <@416,#317> store-keyed-generic)
0x177bccd654d6  code target (KEYED_STORE_IC)  (0x177bccd36e20)
0x177bccd654da  comment  (;;; <@418,#317> lazy-bailout)
0x177bccd654da  comment  (;;; <@422,#333> -------------------- B38 --------------------)
0x177bccd654da  comment  (;;; <@423,#333> gap)
0x177bccd654e1  comment  (;;; <@424,#336> add-i)
0x177bccd654e1  position  (656)
0x177bccd654e5  comment  (;;; <@426,#339> gap)
0x177bccd65507  comment  (;;; <@427,#339> goto)
0x177bccd6550c  position  (789)
0x177bccd6550c  comment  (;;; <@428,#329> -------------------- B39 --------------------)
0x177bccd65513  comment  (;;; <@431,#330> deoptimize)
0x177bccd65513  comment  (;;; deoptimize: Unknown map in polymorphic element access)
0x177bccd65514  runtime entry  (deoptimization bailout 30)
0x177bccd65518  comment  (;;; <@432,#331> -------------------- B40 (unreachable/replaced) --------------------)
0x177bccd65518  comment  (;;; <@434,#211> -------------------- B41 (unreachable/replaced) --------------------)
0x177bccd65518  position  (656)
0x177bccd65518  comment  (;;; <@438,#340> -------------------- B42 --------------------)
0x177bccd65518  comment  (;;; <@440,#7> constant-t)
0x177bccd6551a  embedded object  (0xecbf5c04121 <undefined>)
0x177bccd65522  comment  (;;; <@442,#342> return)
0x177bccd65529  position  (444)
0x177bccd65529  comment  (;;; <@74,#346> -------------------- Deferred tagged-to-i --------------------)
0x177bccd65547  comment  (Deferred TaggedToI: lost precision)
0x177bccd65549  comment  (Deferred TaggedToI: NaN)
0x177bccd65551  runtime entry  (deoptimization bailout 31)
0x177bccd6555a  comment  (;;; <@88,#79> -------------------- Deferred stack-check --------------------)
0x177bccd6557d  code target (STUB)  (0x177bccd062a0)
0x177bccd6559b  position  (450)
0x177bccd6559b  comment  (;;; <@246,#352> -------------------- Deferred tagged-to-i --------------------)
0x177bccd655b9  comment  (Deferred TaggedToI: lost precision)
0x177bccd655bb  comment  (Deferred TaggedToI: NaN)
0x177bccd655d0  runtime entry  (deoptimization bailout 32)
0x177bccd655d9  comment  (;;; <@248,#353> -------------------- Deferred tagged-to-i --------------------)
0x177bccd655f7  comment  (Deferred TaggedToI: lost precision)
0x177bccd655f9  comment  (Deferred TaggedToI: NaN)
0x177bccd65601  runtime entry  (deoptimization bailout 33)
0x177bccd6560a  comment  (;;; <@254,#351> -------------------- Deferred tagged-to-i --------------------)
0x177bccd65628  comment  (Deferred TaggedToI: lost precision)
0x177bccd6562a  comment  (Deferred TaggedToI: NaN)
0x177bccd65632  runtime entry  (deoptimization bailout 34)
0x177bccd6563b  position  (650)
0x177bccd6563b  comment  (;;; <@278,#216> -------------------- Deferred stack-check --------------------)
0x177bccd6565e  code target (STUB)  (0x177bccd062a0)
0x177bccd6567c  position  (192)
0x177bccd6567c  comment  (;;; <@306,#355> -------------------- Deferred tagged-to-i --------------------)
0x177bccd6569a  comment  (Deferred TaggedToI: lost precision)
0x177bccd6569c  comment  (Deferred TaggedToI: NaN)
0x177bccd656b1  runtime entry  (deoptimization bailout 35)
0x177bccd656ba  comment  (;;; <@316,#255> -------------------- Deferred check-maps --------------------)
0x177bccd656df  code target (STUB)  (0x177bccd062a0)
0x177bccd65705  comment  (;;; <@336,#265> -------------------- Deferred check-maps --------------------)
0x177bccd6572a  code target (STUB)  (0x177bccd062a0)
0x177bccd65750  position  (789)
0x177bccd65750  comment  (;;; <@384,#294> -------------------- Deferred check-maps --------------------)
0x177bccd65775  code target (STUB)  (0x177bccd062a0)
0x177bccd6579b  comment  (;;; -------------------- Jump table --------------------)
0x177bccd6579b  comment  (;;; jump table entry 0: deoptimization bailout 12.)
0x177bccd6579c  runtime entry  (deoptimization bailout 12)
0x177bccd657a0  comment  (;;; jump table entry 1: deoptimization bailout 13.)
0x177bccd657a1  runtime entry  (deoptimization bailout 13)
0x177bccd657a5  comment  (;;; jump table entry 2: deoptimization bailout 14.)
0x177bccd657a6  runtime entry  (deoptimization bailout 14)
0x177bccd657aa  comment  (;;; jump table entry 3: deoptimization bailout 16.)
0x177bccd657ab  runtime entry  (deoptimization bailout 16)
0x177bccd657af  comment  (;;; jump table entry 4: deoptimization bailout 17.)
0x177bccd657b0  runtime entry  (deoptimization bailout 17)
0x177bccd657b4  comment  (;;; jump table entry 5: deoptimization bailout 20.)
0x177bccd657b5  runtime entry  (deoptimization bailout 20)
0x177bccd657b9  comment  (;;; jump table entry 6: deoptimization bailout 21.)
0x177bccd657ba  runtime entry  (deoptimization bailout 21)
0x177bccd657be  comment  (;;; jump table entry 7: deoptimization bailout 22.)
0x177bccd657bf  runtime entry  (deoptimization bailout 22)
0x177bccd657c3  comment  (;;; jump table entry 8: deoptimization bailout 26.)
0x177bccd657c4  runtime entry  (deoptimization bailout 26)
0x177bccd657c8  comment  (;;; jump table entry 9: deoptimization bailout 27.)
0x177bccd657c9  runtime entry  (deoptimization bailout 27)
0x177bccd657cd  comment  (;;; jump table entry 10: deoptimization bailout 28.)
0x177bccd657ce  runtime entry  (deoptimization bailout 28)
0x177bccd657d2  comment  (;;; jump table entry 11: deoptimization bailout 36.)
0x177bccd657d3  runtime entry  (deoptimization bailout 36)
0x177bccd657d7  comment  (;;; jump table entry 12: deoptimization bailout 37.)
0x177bccd657d8  runtime entry  (deoptimization bailout 37)
0x177bccd657dc  comment  (;;; jump table entry 13: deoptimization bailout 38.)
0x177bccd657dd  runtime entry  (deoptimization bailout 38)
0x177bccd657e4  comment  (;;; Safepoint table.)

--- End code ---
[optimizing 0xecbf5c621a1 <JS Function syncMap (SharedFunctionInfo 0xecbf5c61c19)> - took 1.309, 4.731, 6.048 ms]
[marking 0xecbf5c586d1 <JS Function imul (SharedFunctionInfo 0xecbf5c10c11)> for recompilation, reason: small function, ICs with typeinfo: 0/4 (0%)]
[marking 0xecbf5c54309 <JS Function random (SharedFunctionInfo 0xecbf5c108b9)> for recompilation, reason: small function, ICs with typeinfo: 29/31 (93%)]
[marking 0xecbf5c52339 <JS Function floor (SharedFunctionInfo 0xecbf5c10549)> for recompilation, reason: small function, ICs with typeinfo: 3/5 (60%)]
Inlining builtin 0xecbf5c586d1 <JS Function imul (SharedFunctionInfo 0xecbf5c10c11)>
Inlining builtin 0xecbf5c586d1 <JS Function imul (SharedFunctionInfo 0xecbf5c10c11)>
--- Raw source ---
(){\x0avar a=(MathImul(18273,rngstate[0]&0xFFFF)+(rngstate[0]>>>16))|0;\x0arngstate[0]=a;\x0avar b=(MathImul(36969,rngstate[1]&0xFFFF)+(rngstate[1]>>>16))|0;\x0arngstate[1]=b;\x0avar c=((a<<16)+(b&0xFFFF))|0;\x0areturn(c<0?(c+0x100000000):c)*2.3283064365386962890625e-10;\x0a}\x0a

--- Optimized code ---
optimization_id = 3
source_position = 2375
kind = OPTIMIZED_FUNCTION
name = random
stack_slots = 0
Instructions (size = 372)
0x177bccd67fe0     0  55             push rbp
0x177bccd67fe1     1  4889e5         REX.W movq rbp,rsp
0x177bccd67fe4     4  56             push rsi
0x177bccd67fe5     5  57             push rdi
                  ;;; <@0,#0> -------------------- B0 --------------------
                  ;;; <@2,#1> context
0x177bccd67fe6     6  488b75f8       REX.W movq rsi,[rbp-0x8]
                  ;;; <@8,#7> -------------------- B1 --------------------
                  ;;; <@10,#9> stack-check
0x177bccd67fea    10  0f1f00         nop
0x177bccd67fed    13  493ba590070000 REX.W cmpq rsp,[r13+0x790]
0x177bccd67ff4    20  7305           jnc 27  (0x177bccd67ffb)
0x177bccd67ff6    22  e84591fcff     call StackCheck  (0x177bccd31140)    ;; code: BUILTIN
                  ;;; <@12,#9> lazy-bailout
                  ;;; <@14,#15> check-maps
                  ;;; <@16,#13> constant-t
0x177bccd67ffb    27  48b8296bc0a33f010000 REX.W movq rax,0x13fa3c06b29    ;; object: 0x13fa3c06b29 <an Uint32Array with map 0x1b4f13c13719>
                  ;;; <@18,#16> load-named-field
0x177bccd68005    37  488b400f       REX.W movq rax,[rax+0xf]
                  ;;; <@20,#17> load-named-field
0x177bccd68009    41  8b580b         movl rbx,[rax+0xb]
                  ;;; <@22,#18> load-named-field
0x177bccd6800c    44  488b400f       REX.W movq rax,[rax+0xf]
                  ;;; <@24,#19> bounds-check
0x177bccd68010    48  83fb00         cmpl rbx,0x0
0x177bccd68013    51  0f8613010000   jna 332  (0x177bccd6812c)
                  ;;; <@26,#66> bounds-check
0x177bccd68019    57  83fb01         cmpl rbx,0x1            ;; debug: position 2440
0x177bccd6801c    60  0f860f010000   jna 337  (0x177bccd68131)
                  ;;; <@28,#20> load-keyed
0x177bccd68022    66  8b18           movl rbx,[rax]
                  ;;; <@29,#20> gap
0x177bccd68024    68  488bd3         REX.W movq rdx,rbx
                  ;;; <@30,#22> bit-i
0x177bccd68027    71  81e2ffff0000   andl rdx,0xffff         ;; debug: position 2412
                  ;;; <@32,#24> mul-i
0x177bccd6802d    77  69d261470000   imull rdx,rdx,0x4761
                  ;;; <@34,#34> shift-i
0x177bccd68033    83  c1eb10         shrl rbx,16             ;; debug: position 2433
                  ;;; <@36,#36> add-i
0x177bccd68036    86  03da           addl rbx,rdx            ;; debug: position 2420
                  ;;; <@38,#48> check-maps
                  ;;; <@40,#50> check-maps
                  ;;; <@42,#55> store-keyed
0x177bccd68038    88  8918           movl [rax],rbx          ;; debug: position 2440
                  ;;; <@44,#67> load-keyed
0x177bccd6803a    90  8b5004         movl rdx,[rax+0x4]
                  ;;; <@45,#67> gap
0x177bccd6803d    93  488bca         REX.W movq rcx,rdx
                  ;;; <@46,#69> bit-i
0x177bccd68040    96  81e1ffff0000   andl rcx,0xffff         ;; debug: position 2492
                  ;;; <@48,#71> mul-i
0x177bccd68046   102  69c969900000   imull rcx,rcx,0x9069
                  ;;; <@50,#81> shift-i
0x177bccd6804c   108  c1ea10         shrl rdx,16             ;; debug: position 2513
                  ;;; <@52,#83> add-i
0x177bccd6804f   111  03d1           addl rdx,rcx            ;; debug: position 2500
                  ;;; <@54,#101> store-keyed
0x177bccd68051   113  895004         movl [rax+0x4],rdx      ;; debug: position 2520
                  ;;; <@56,#105> shift-i
0x177bccd68054   116  c1e310         shll rbx,16             ;; debug: position 2548
                  ;;; <@58,#109> bit-i
0x177bccd68057   119  81e2ffff0000   andl rdx,0xffff         ;; debug: position 2556
                  ;;; <@60,#111> add-i
0x177bccd6805d   125  03d3           addl rdx,rbx            ;; debug: position 2553
                  ;;; <@63,#119> compare-numeric-and-branch
0x177bccd6805f   127  83fa00         cmpl rdx,0x0            ;; debug: position 2577
0x177bccd68062   130  0f8c0f000000   jl 151  (0x177bccd68077)
                  ;;; <@64,#123> -------------------- B2 (unreachable/replaced) --------------------
                  ;;; <@68,#131> -------------------- B3 --------------------
                  ;;; <@70,#145> int32-to-double
0x177bccd68068   136  0f57c9         xorps xmm1,xmm1         ;; debug: position 2582
0x177bccd6806b   139  f20f2aca       cvtsi2sd xmm1,rdx
                  ;;; <@72,#136> gap
0x177bccd6806f   143  0f28d1         movaps xmm2,xmm1
                  ;;; <@73,#136> goto
0x177bccd68072   146  e91a000000     jmp 177  (0x177bccd68091)
                  ;;; <@74,#120> -------------------- B4 (unreachable/replaced) --------------------
                  ;;; <@78,#126> -------------------- B5 --------------------
                  ;;; <@80,#128> constant-d
0x177bccd68077   151  48b8000000000000f041 REX.W movq rax,0x41f0000000000000    ;; debug: position 2577
0x177bccd68081   161  66480f6ec8     REX.W movq xmm1,rax
                  ;;; <@82,#146> int32-to-double
0x177bccd68086   166  0f57d2         xorps xmm2,xmm2         ;; debug: position 2582
0x177bccd68089   169  f20f2ad2       cvtsi2sd xmm2,rdx
                  ;;; <@84,#129> add-d
0x177bccd6808d   173  f20f58d1       addsd xmm2,xmm1
                  ;;; <@88,#138> -------------------- B6 --------------------
                  ;;; <@90,#139> constant-d
0x177bccd68091   177  48b8000000000000f03d REX.W movq rax,0x3df0000000000000
0x177bccd6809b   187  66480f6ec8     REX.W movq xmm1,rax
                  ;;; <@92,#140> mul-d
0x177bccd680a0   192  f20f59d1       mulsd xmm2,xmm1         ;; debug: position 2598
                  ;;; <@94,#147> number-tag-d
0x177bccd680a4   196  498b9d980a0000 REX.W movq rbx,[r13+0xa98]
0x177bccd680ab   203  488bc3         REX.W movq rax,rbx
0x177bccd680ae   206  4883c010       REX.W addq rax,0x10
0x177bccd680b2   210  0f822e000000   jc 262  (0x177bccd680e6)
0x177bccd680b8   216  493b85a00a0000 REX.W cmpq rax,[r13+0xaa0]
0x177bccd680bf   223  0f8721000000   ja 262  (0x177bccd680e6)
0x177bccd680c5   229  498985980a0000 REX.W movq [r13+0xa98],rax
0x177bccd680cc   236  48ffc3         REX.W incq rbx
0x177bccd680cf   239  4d8b5500       REX.W movq r10,[r13+0x0]
0x177bccd680d3   243  4c8953ff       REX.W movq [rbx-0x1],r10
0x177bccd680d7   247  f20f115307     movsd [rbx+0x7],xmm2
                  ;;; <@95,#147> gap
0x177bccd680dc   252  488bc3         REX.W movq rax,rbx
                  ;;; <@96,#143> return
0x177bccd680df   255  488be5         REX.W movq rsp,rbp
0x177bccd680e2   258  5d             pop rbp
0x177bccd680e3   259  c20800         ret 0x8
                  ;;; <@94,#147> -------------------- Deferred number-tag-d --------------------
0x177bccd680e6   262  33db           xorl rbx,rbx
0x177bccd680e8   264  50             push rax
0x177bccd680e9   265  51             push rcx
0x177bccd680ea   266  52             push rdx
0x177bccd680eb   267  53             push rbx
0x177bccd680ec   268  56             push rsi
0x177bccd680ed   269  57             push rdi
0x177bccd680ee   270  4150           push r8
0x177bccd680f0   272  4151           push r9
0x177bccd680f2   274  4153           push r11
0x177bccd680f4   276  4156           push r14
0x177bccd680f6   278  4157           push r15
0x177bccd680f8   280  488d6424d8     REX.W leaq rsp,[rsp-0x28]
0x177bccd680fd   285  488b75f8       REX.W movq rsi,[rbp-0x8]
0x177bccd68101   289  33c0           xorl rax,rax
0x177bccd68103   291  498d9d48c0e3fd REX.W leaq rbx,[r13-0x21c3fb8]
0x177bccd6810a   298  e891e1f9ff     call 0x177bccd062a0     ;; code: STUB, CEntryStub, minor: 1
0x177bccd6810f   303  4c8bd0         REX.W movq r10,rax
0x177bccd68112   306  488d642428     REX.W leaq rsp,[rsp+0x28]
0x177bccd68117   311  415f           pop r15
0x177bccd68119   313  415e           pop r14
0x177bccd6811b   315  415b           pop r11
0x177bccd6811d   317  4159           pop r9
0x177bccd6811f   319  4158           pop r8
0x177bccd68121   321  5f             pop rdi
0x177bccd68122   322  5e             pop rsi
0x177bccd68123   323  5b             pop rbx
0x177bccd68124   324  5a             pop rdx
0x177bccd68125   325  59             pop rcx
0x177bccd68126   326  58             pop rax
0x177bccd68127   327  498bda         REX.W movq rbx,r10
0x177bccd6812a   330  ebab           jmp 247  (0x177bccd680d7)
                  ;;; -------------------- Jump table --------------------
                  ;;; jump table entry 0: deoptimization bailout 1.
0x177bccd6812c   332  e8d9dec9ff     call 0x177bcca0600a     ;; deoptimization bailout 1
                  ;;; jump table entry 1: deoptimization bailout 2.
0x177bccd68131   337  e8dedec9ff     call 0x177bcca06014     ;; deoptimization bailout 2
0x177bccd68136   342  6690           nop
                  ;;; Safepoint table.

Deoptimization Input Data (deopt points = 3)
 index  ast id    argc     pc
     0       3       0     27
     1       3       0     -1
     2       3       0     -1

Safepoints (size = 28)
0x177bccd67ffb    27  11111111 (sp -> fp)       0
0x177bccd6810f   303  00000000 | rbx (sp -> fp)  <none>

RelocInfo (size = 634)
0x177bccd67fe6  comment  (;;; <@0,#0> -------------------- B0 --------------------)
0x177bccd67fe6  comment  (;;; <@2,#1> context)
0x177bccd67fea  comment  (;;; <@8,#7> -------------------- B1 --------------------)
0x177bccd67fea  comment  (;;; <@10,#9> stack-check)
0x177bccd67ff7  code target (BUILTIN)  (0x177bccd31140)
0x177bccd67ffb  comment  (;;; <@12,#9> lazy-bailout)
0x177bccd67ffb  comment  (;;; <@14,#15> check-maps)
0x177bccd67ffb  comment  (;;; <@16,#13> constant-t)
0x177bccd67ffd  embedded object  (0x13fa3c06b29 <an Uint32Array with map 0x1b4f13c13719>)
0x177bccd68005  comment  (;;; <@18,#16> load-named-field)
0x177bccd68009  comment  (;;; <@20,#17> load-named-field)
0x177bccd6800c  comment  (;;; <@22,#18> load-named-field)
0x177bccd68010  comment  (;;; <@24,#19> bounds-check)
0x177bccd68019  comment  (;;; <@26,#66> bounds-check)
0x177bccd68019  position  (2440)
0x177bccd68022  comment  (;;; <@28,#20> load-keyed)
0x177bccd68024  comment  (;;; <@29,#20> gap)
0x177bccd68027  comment  (;;; <@30,#22> bit-i)
0x177bccd68027  position  (2412)
0x177bccd6802d  comment  (;;; <@32,#24> mul-i)
0x177bccd68033  comment  (;;; <@34,#34> shift-i)
0x177bccd68033  position  (2433)
0x177bccd68036  comment  (;;; <@36,#36> add-i)
0x177bccd68036  position  (2420)
0x177bccd68038  comment  (;;; <@38,#48> check-maps)
0x177bccd68038  position  (2440)
0x177bccd68038  comment  (;;; <@40,#50> check-maps)
0x177bccd68038  comment  (;;; <@42,#55> store-keyed)
0x177bccd6803a  comment  (;;; <@44,#67> load-keyed)
0x177bccd6803d  comment  (;;; <@45,#67> gap)
0x177bccd68040  comment  (;;; <@46,#69> bit-i)
0x177bccd68040  position  (2492)
0x177bccd68046  comment  (;;; <@48,#71> mul-i)
0x177bccd6804c  comment  (;;; <@50,#81> shift-i)
0x177bccd6804c  position  (2513)
0x177bccd6804f  comment  (;;; <@52,#83> add-i)
0x177bccd6804f  position  (2500)
0x177bccd68051  comment  (;;; <@54,#101> store-keyed)
0x177bccd68051  position  (2520)
0x177bccd68054  comment  (;;; <@56,#105> shift-i)
0x177bccd68054  position  (2548)
0x177bccd68057  comment  (;;; <@58,#109> bit-i)
0x177bccd68057  position  (2556)
0x177bccd6805d  comment  (;;; <@60,#111> add-i)
0x177bccd6805d  position  (2553)
0x177bccd6805f  position  (2577)
0x177bccd6805f  comment  (;;; <@63,#119> compare-numeric-and-branch)
0x177bccd68068  comment  (;;; <@64,#123> -------------------- B2 (unreachable/replaced) --------------------)
0x177bccd68068  position  (2582)
0x177bccd68068  comment  (;;; <@68,#131> -------------------- B3 --------------------)
0x177bccd68068  comment  (;;; <@70,#145> int32-to-double)
0x177bccd6806f  comment  (;;; <@72,#136> gap)
0x177bccd68072  comment  (;;; <@73,#136> goto)
0x177bccd68077  comment  (;;; <@74,#120> -------------------- B4 (unreachable/replaced) --------------------)
0x177bccd68077  position  (2577)
0x177bccd68077  comment  (;;; <@78,#126> -------------------- B5 --------------------)
0x177bccd68077  comment  (;;; <@80,#128> constant-d)
0x177bccd68086  comment  (;;; <@82,#146> int32-to-double)
0x177bccd68086  position  (2582)
0x177bccd6808d  comment  (;;; <@84,#129> add-d)
0x177bccd68091  comment  (;;; <@88,#138> -------------------- B6 --------------------)
0x177bccd68091  comment  (;;; <@90,#139> constant-d)
0x177bccd680a0  comment  (;;; <@92,#140> mul-d)
0x177bccd680a0  position  (2598)
0x177bccd680a4  comment  (;;; <@94,#147> number-tag-d)
0x177bccd680dc  comment  (;;; <@95,#147> gap)
0x177bccd680df  comment  (;;; <@96,#143> return)
0x177bccd680e6  comment  (;;; <@94,#147> -------------------- Deferred number-tag-d --------------------)
0x177bccd6810b  code target (STUB)  (0x177bccd062a0)
0x177bccd6812c  comment  (;;; -------------------- Jump table --------------------)
0x177bccd6812c  comment  (;;; jump table entry 0: deoptimization bailout 1.)
0x177bccd6812d  runtime entry  (deoptimization bailout 1)
0x177bccd68131  comment  (;;; jump table entry 1: deoptimization bailout 2.)
0x177bccd68132  runtime entry  (deoptimization bailout 2)
0x177bccd68138  comment  (;;; Safepoint table.)

--- End code ---
[optimizing 0xecbf5c54309 <JS Function random (SharedFunctionInfo 0xecbf5c108b9)> - took 0.575, 2.147, 1.224 ms]
--- Raw source ---
(a,b){\x0areturn %NumberImul(((typeof(%IS_VAR(a))==='number')?a:NonNumberToNumber(a)),((typeof(%IS_VAR(b))==='number')?b:NonNumberToNumber(b)));\x0a}\x0a

--- Optimized code ---
optimization_id = 4
source_position = 3008
kind = OPTIMIZED_FUNCTION
name = imul
stack_slots = 2
Instructions (size = 268)
0x177bccd681c0     0  55             push rbp
0x177bccd681c1     1  4889e5         REX.W movq rbp,rsp
0x177bccd681c4     4  56             push rsi
0x177bccd681c5     5  57             push rdi
0x177bccd681c6     6  4883ec10       REX.W subq rsp,0x10
                  ;;; <@0,#0> -------------------- B0 --------------------
                  ;;; <@2,#1> context
0x177bccd681ca    10  488b45f8       REX.W movq rax,[rbp-0x8]
                  ;;; <@3,#1> gap
0x177bccd681ce    14  488945e8       REX.W movq [rbp-0x18],rax
                  ;;; <@12,#9> -------------------- B1 --------------------
                  ;;; <@13,#9> gap
0x177bccd681d2    18  488bf0         REX.W movq rsi,rax
                  ;;; <@14,#11> stack-check
0x177bccd681d5    21  493ba590070000 REX.W cmpq rsp,[r13+0x790]
0x177bccd681dc    28  7305           jnc 35  (0x177bccd681e3)
0x177bccd681de    30  e85d8ffcff     call StackCheck  (0x177bccd31140)    ;; code: BUILTIN
                  ;;; <@16,#11> lazy-bailout
                  ;;; <@18,#13> gap
0x177bccd681e3    35  488b4518       REX.W movq rax,[rbp+0x18]    ;; debug: position 3054
                  ;;; <@19,#13> typeof-is-and-branch
0x177bccd681e7    39  a801           test al,0x1
0x177bccd681e9    41  0f8435000000   jz 100  (0x177bccd68224)
0x177bccd681ef    47  4d8b5500       REX.W movq r10,[r13+0x0]
0x177bccd681f3    51  4c3950ff       REX.W cmpq [rax-0x1],r10
0x177bccd681f7    55  0f8427000000   jz 100  (0x177bccd68224)
                  ;;; <@20,#17> -------------------- B2 (unreachable/replaced) --------------------
                  ;;; <@24,#20> -------------------- B3 --------------------
                  ;;; <@26,#24> push-argument
0x177bccd681fd    61  49ba2103c6f5cb0e0000 REX.W movq r10,0xecbf5c60321    ;; object: 0xecbf5c60321 <JS Global Object>
0x177bccd68207    71  4152           push r10
                  ;;; <@27,#24> gap
0x177bccd68209    73  488b4518       REX.W movq rax,[rbp+0x18]
                  ;;; <@28,#24> push-argument
0x177bccd6820d    77  50             push rax
                  ;;; <@30,#21> constant-t
0x177bccd6820e    78  48bfa922c5f5cb0e0000 REX.W movq rdi,0xecbf5c522a9    ;; object: 0xecbf5c522a9 <JS Function NonNumberToNumber (SharedFunctionInfo 0xecbf5c267a9)>
                  ;;; <@32,#26> call-js-function
0x177bccd68218    88  488b772f       REX.W movq rsi,[rdi+0x2f]
0x177bccd6821c    92  ff5717         call [rdi+0x17]
                  ;;; <@34,#27> lazy-bailout
                  ;;; <@37,#32> goto
0x177bccd6821f    95  e904000000     jmp 104  (0x177bccd68228)
                  ;;; <@38,#14> -------------------- B4 (unreachable/replaced) --------------------
                  ;;; <@42,#28> -------------------- B5 --------------------
                  ;;; <@44,#30> gap
0x177bccd68224   100  488b4518       REX.W movq rax,[rbp+0x18]
                  ;;; <@46,#34> -------------------- B6 --------------------
0x177bccd68228   104  488945e0       REX.W movq [rbp-0x20],rax    ;; debug: position 3111
                  ;;; <@48,#35> gap
0x177bccd6822c   108  488b5d10       REX.W movq rbx,[rbp+0x10]
                  ;;; <@49,#35> typeof-is-and-branch
0x177bccd68230   112  f6c301         testb rbx,0x1
0x177bccd68233   115  0f8435000000   jz 174  (0x177bccd6826e)
0x177bccd68239   121  4d8b5500       REX.W movq r10,[r13+0x0]
0x177bccd6823d   125  4c3953ff       REX.W cmpq [rbx-0x1],r10
0x177bccd68241   129  0f8427000000   jz 174  (0x177bccd6826e)
                  ;;; <@50,#39> -------------------- B7 (unreachable/replaced) --------------------
                  ;;; <@54,#42> -------------------- B8 --------------------
                  ;;; <@56,#46> push-argument
0x177bccd68247   135  49ba2103c6f5cb0e0000 REX.W movq r10,0xecbf5c60321    ;; object: 0xecbf5c60321 <JS Global Object>
0x177bccd68251   145  4152           push r10
                  ;;; <@57,#46> gap
0x177bccd68253   147  488b5d10       REX.W movq rbx,[rbp+0x10]
                  ;;; <@58,#46> push-argument
0x177bccd68257   151  53             push rbx
                  ;;; <@60,#43> constant-t
0x177bccd68258   152  48bfa922c5f5cb0e0000 REX.W movq rdi,0xecbf5c522a9    ;; object: 0xecbf5c522a9 <JS Function NonNumberToNumber (SharedFunctionInfo 0xecbf5c267a9)>
                  ;;; <@62,#48> call-js-function
0x177bccd68262   162  488b772f       REX.W movq rsi,[rdi+0x2f]
0x177bccd68266   166  ff5717         call [rdi+0x17]
                  ;;; <@64,#49> lazy-bailout
                  ;;; <@67,#54> goto
0x177bccd68269   169  e904000000     jmp 178  (0x177bccd68272)
                  ;;; <@68,#36> -------------------- B9 (unreachable/replaced) --------------------
                  ;;; <@72,#50> -------------------- B10 --------------------
                  ;;; <@74,#52> gap
0x177bccd6826e   174  488b4510       REX.W movq rax,[rbp+0x10]
                  ;;; <@76,#56> -------------------- B11 --------------------
                  ;;; <@78,#57> push-argument
0x177bccd68272   178  ff75e0         push [rbp-0x20]
                  ;;; <@80,#57> push-argument
0x177bccd68275   181  50             push rax
                  ;;; <@81,#57> gap
0x177bccd68276   182  488b75e8       REX.W movq rsi,[rbp-0x18]
                  ;;; <@82,#58> call-runtime
0x177bccd6827a   186  b802000000     movl rax,0x2
0x177bccd6827f   191  498d9d88cce3fd REX.W leaq rbx,[r13-0x21c3378]
0x177bccd68286   198  e815e4f9ff     call 0x177bccd066a0     ;; code: STUB, CEntryStub, minor: 0
                  ;;; <@84,#59> lazy-bailout
                  ;;; <@86,#61> return
0x177bccd6828b   203  488be5         REX.W movq rsp,rbp
0x177bccd6828e   206  5d             pop rbp
0x177bccd6828f   207  c21800         ret 0x18
0x177bccd68292   210  660f1f440000   nop
                  ;;; Safepoint table.

Deoptimization Input Data (deopt points = 4)
 index  ast id    argc     pc
     0       3       0     35
     1      20       0     95
     2      43       0    169
     3      50       0    203

Safepoints (size = 52)
0x177bccd681e3    35  01 (sp -> fp)       0
0x177bccd6821f    95  01 (sp -> fp)       1
0x177bccd68269   169  11 (sp -> fp)       2
0x177bccd6828b   203  00 (sp -> fp)       3

RelocInfo (size = 504)
0x177bccd681ca  comment  (;;; <@0,#0> -------------------- B0 --------------------)
0x177bccd681ca  comment  (;;; <@2,#1> context)
0x177bccd681ce  comment  (;;; <@3,#1> gap)
0x177bccd681d2  comment  (;;; <@12,#9> -------------------- B1 --------------------)
0x177bccd681d2  comment  (;;; <@13,#9> gap)
0x177bccd681d5  comment  (;;; <@14,#11> stack-check)
0x177bccd681df  code target (BUILTIN)  (0x177bccd31140)
0x177bccd681e3  comment  (;;; <@16,#11> lazy-bailout)
0x177bccd681e3  comment  (;;; <@18,#13> gap)
0x177bccd681e3  position  (3054)
0x177bccd681e7  comment  (;;; <@19,#13> typeof-is-and-branch)
0x177bccd681fd  comment  (;;; <@20,#17> -------------------- B2 (unreachable/replaced) --------------------)
0x177bccd681fd  comment  (;;; <@24,#20> -------------------- B3 --------------------)
0x177bccd681fd  comment  (;;; <@26,#24> push-argument)
0x177bccd681ff  embedded object  (0xecbf5c60321 <JS Global Object>)
0x177bccd68209  comment  (;;; <@27,#24> gap)
0x177bccd6820d  comment  (;;; <@28,#24> push-argument)
0x177bccd6820e  comment  (;;; <@30,#21> constant-t)
0x177bccd68210  embedded object  (0xecbf5c522a9 <JS Function NonNumberToNumber (SharedFunctionInfo 0xecbf5c267a9)>)
0x177bccd68218  comment  (;;; <@32,#26> call-js-function)
0x177bccd6821f  comment  (;;; <@34,#27> lazy-bailout)
0x177bccd6821f  comment  (;;; <@37,#32> goto)
0x177bccd68224  comment  (;;; <@38,#14> -------------------- B4 (unreachable/replaced) --------------------)
0x177bccd68224  comment  (;;; <@42,#28> -------------------- B5 --------------------)
0x177bccd68224  comment  (;;; <@44,#30> gap)
0x177bccd68228  position  (3111)
0x177bccd68228  comment  (;;; <@46,#34> -------------------- B6 --------------------)
0x177bccd6822c  comment  (;;; <@48,#35> gap)
0x177bccd68230  comment  (;;; <@49,#35> typeof-is-and-branch)
0x177bccd68247  comment  (;;; <@50,#39> -------------------- B7 (unreachable/replaced) --------------------)
0x177bccd68247  comment  (;;; <@54,#42> -------------------- B8 --------------------)
0x177bccd68247  comment  (;;; <@56,#46> push-argument)
0x177bccd68249  embedded object  (0xecbf5c60321 <JS Global Object>)
0x177bccd68253  comment  (;;; <@57,#46> gap)
0x177bccd68257  comment  (;;; <@58,#46> push-argument)
0x177bccd68258  comment  (;;; <@60,#43> constant-t)
0x177bccd6825a  embedded object  (0xecbf5c522a9 <JS Function NonNumberToNumber (SharedFunctionInfo 0xecbf5c267a9)>)
0x177bccd68262  comment  (;;; <@62,#48> call-js-function)
0x177bccd68269  comment  (;;; <@64,#49> lazy-bailout)
0x177bccd68269  comment  (;;; <@67,#54> goto)
0x177bccd6826e  comment  (;;; <@68,#36> -------------------- B9 (unreachable/replaced) --------------------)
0x177bccd6826e  comment  (;;; <@72,#50> -------------------- B10 --------------------)
0x177bccd6826e  comment  (;;; <@74,#52> gap)
0x177bccd68272  comment  (;;; <@76,#56> -------------------- B11 --------------------)
0x177bccd68272  comment  (;;; <@78,#57> push-argument)
0x177bccd68275  comment  (;;; <@80,#57> push-argument)
0x177bccd68276  comment  (;;; <@81,#57> gap)
0x177bccd6827a  comment  (;;; <@82,#58> call-runtime)
0x177bccd68287  code target (STUB)  (0x177bccd066a0)
0x177bccd6828b  comment  (;;; <@84,#59> lazy-bailout)
0x177bccd6828b  comment  (;;; <@86,#61> return)
0x177bccd68298  comment  (;;; Safepoint table.)

--- End code ---
[optimizing 0xecbf5c586d1 <JS Function imul (SharedFunctionInfo 0xecbf5c10c11)> - took 0.223, 1.344, 0.842 ms]
--- Raw source ---
(a){\x0aa=((typeof(%IS_VAR(a))==='number')?a:NonNumberToNumber(a));\x0aif(a<0x80000000&&a>0){\x0areturn(a>>>0);\x0a}else{\x0areturn %MathFloorRT(a);\x0a}\x0a}\x0a

--- Optimized code ---
optimization_id = 5
source_position = 978
kind = OPTIMIZED_FUNCTION
name = floor
stack_slots = 2
Instructions (size = 663)
0x177bccd68400     0  55             push rbp
0x177bccd68401     1  4889e5         REX.W movq rbp,rsp
0x177bccd68404     4  56             push rsi
0x177bccd68405     5  57             push rdi
0x177bccd68406     6  4883ec10       REX.W subq rsp,0x10
                  ;;; <@0,#0> -------------------- B0 --------------------
                  ;;; <@2,#1> context
0x177bccd6840a    10  488b45f8       REX.W movq rax,[rbp-0x8]
                  ;;; <@3,#1> gap
0x177bccd6840e    14  488945e8       REX.W movq [rbp-0x18],rax
                  ;;; <@10,#8> -------------------- B1 --------------------
                  ;;; <@11,#8> gap
0x177bccd68412    18  488bf0         REX.W movq rsi,rax
                  ;;; <@12,#10> stack-check
0x177bccd68415    21  493ba590070000 REX.W cmpq rsp,[r13+0x790]
0x177bccd6841c    28  7305           jnc 35  (0x177bccd68423)
0x177bccd6841e    30  e81d8dfcff     call StackCheck  (0x177bccd31140)    ;; code: BUILTIN
                  ;;; <@14,#10> lazy-bailout
                  ;;; <@16,#12> gap
0x177bccd68423    35  488b4510       REX.W movq rax,[rbp+0x10]    ;; debug: position 1005
                  ;;; <@17,#12> typeof-is-and-branch
0x177bccd68427    39  a801           test al,0x1
0x177bccd68429    41  0f845d000000   jz 140  (0x177bccd6848c)
0x177bccd6842f    47  4d8b5500       REX.W movq r10,[r13+0x0]
0x177bccd68433    51  4c3950ff       REX.W cmpq [rax-0x1],r10
0x177bccd68437    55  0f844f000000   jz 140  (0x177bccd6848c)
                  ;;; <@18,#16> -------------------- B2 (unreachable/replaced) --------------------
                  ;;; <@22,#19> -------------------- B3 --------------------
                  ;;; <@24,#23> push-argument
0x177bccd6843d    61  49ba2103c6f5cb0e0000 REX.W movq r10,0xecbf5c60321    ;; object: 0xecbf5c60321 <JS Global Object>
0x177bccd68447    71  4152           push r10
                  ;;; <@25,#23> gap
0x177bccd68449    73  488b4510       REX.W movq rax,[rbp+0x10]
                  ;;; <@26,#23> push-argument
0x177bccd6844d    77  50             push rax
                  ;;; <@28,#20> constant-t
0x177bccd6844e    78  48bfa922c5f5cb0e0000 REX.W movq rdi,0xecbf5c522a9    ;; object: 0xecbf5c522a9 <JS Function NonNumberToNumber (SharedFunctionInfo 0xecbf5c267a9)>
                  ;;; <@30,#25> call-js-function
0x177bccd68458    88  488b772f       REX.W movq rsi,[rdi+0x2f]
0x177bccd6845c    92  ff5717         call [rdi+0x17]
                  ;;; <@32,#26> lazy-bailout
                  ;;; <@34,#65> double-untag
0x177bccd6845f    95  a801           test al,0x1             ;; debug: position 1047
0x177bccd68461    97  7415           jz 120  (0x177bccd68478)
0x177bccd68463    99  4d8b5500       REX.W movq r10,[r13+0x0]
0x177bccd68467   103  4c3950ff       REX.W cmpq [rax-0x1],r10
0x177bccd6846b   107  f20f104807     movsd xmm1,[rax+0x7]
0x177bccd68470   112  0f85d8010000   jnz 590  (0x177bccd6864e)
0x177bccd68476   118  eb0f           jmp 135  (0x177bccd68487)
0x177bccd68478   120  4c8bd0         REX.W movq r10,rax
0x177bccd6847b   123  49c1ea20       REX.W shrq r10,32
0x177bccd6847f   127  0f57c9         xorps xmm1,xmm1
0x177bccd68482   130  f2410f2aca     cvtsi2sd xmm1,r10
                  ;;; <@37,#31> goto
0x177bccd68487   135  e92c000000     jmp 184  (0x177bccd684b8)    ;; debug: position 1005
                  ;;; <@38,#13> -------------------- B4 (unreachable/replaced) --------------------
                  ;;; <@42,#27> -------------------- B5 --------------------
                  ;;; <@43,#27> gap
0x177bccd6848c   140  488b4510       REX.W movq rax,[rbp+0x10]
                  ;;; <@44,#64> double-untag
0x177bccd68490   144  a801           test al,0x1             ;; debug: position 1047
0x177bccd68492   146  7415           jz 169  (0x177bccd684a9)
0x177bccd68494   148  4d8b5500       REX.W movq r10,[r13+0x0]
0x177bccd68498   152  4c3950ff       REX.W cmpq [rax-0x1],r10
0x177bccd6849c   156  f20f104807     movsd xmm1,[rax+0x7]
0x177bccd684a1   161  0f85ac010000   jnz 595  (0x177bccd68653)
0x177bccd684a7   167  eb0f           jmp 184  (0x177bccd684b8)
0x177bccd684a9   169  4c8bd0         REX.W movq r10,rax
0x177bccd684ac   172  49c1ea20       REX.W shrq r10,32
0x177bccd684b0   176  0f57c9         xorps xmm1,xmm1
0x177bccd684b3   179  f2410f2aca     cvtsi2sd xmm1,r10
                  ;;; <@48,#33> -------------------- B6 --------------------
0x177bccd684b8   184  f20f114de0     movsd [rbp-0x20],xmm1    ;; debug: position 1005
                                                             ;; debug: position 1047
                  ;;; <@50,#34> constant-d
0x177bccd684bd   189  48b8000000000000e041 REX.W movq rax,0x41e0000000000000
0x177bccd684c7   199  66480f6ed0     REX.W movq xmm2,rax
                  ;;; <@53,#35> compare-numeric-and-branch
0x177bccd684cc   204  660f2eca       ucomisd xmm1,xmm2
0x177bccd684d0   208  0f8a19000000   jpe 239  (0x177bccd684ef)
0x177bccd684d6   214  0f8313000000   jnc 239  (0x177bccd684ef)
                  ;;; <@54,#39> -------------------- B7 (unreachable/replaced) --------------------
                  ;;; <@58,#36> -------------------- B8 (unreachable/replaced) --------------------
                  ;;; <@62,#42> -------------------- B9 --------------------
                  ;;; <@64,#68> constant-d
0x177bccd684dc   220  0f57d2         xorps xmm2,xmm2         ;; debug: position 1061
                  ;;; <@67,#44> compare-numeric-and-branch
0x177bccd684df   223  660f2eca       ucomisd xmm1,xmm2
0x177bccd684e3   227  0f8a06000000   jpe 239  (0x177bccd684ef)
0x177bccd684e9   233  0f8755000000   ja 324  (0x177bccd68544)
                  ;;; <@68,#48> -------------------- B10 (unreachable/replaced) --------------------
                  ;;; <@72,#57> -------------------- B11 --------------------
                  ;;; <@74,#66> number-tag-d
0x177bccd684ef   239  498b9d980a0000 REX.W movq rbx,[r13+0xa98]    ;; debug: position 1074
0x177bccd684f6   246  488bc3         REX.W movq rax,rbx
0x177bccd684f9   249  4883c010       REX.W addq rax,0x10
0x177bccd684fd   253  0f827b000000   jc 382  (0x177bccd6857e)
0x177bccd68503   259  493b85a00a0000 REX.W cmpq rax,[r13+0xaa0]
0x177bccd6850a   266  0f876e000000   ja 382  (0x177bccd6857e)
0x177bccd68510   272  498985980a0000 REX.W movq [r13+0xa98],rax
0x177bccd68517   279  48ffc3         REX.W incq rbx
0x177bccd6851a   282  4d8b5500       REX.W movq r10,[r13+0x0]
0x177bccd6851e   286  4c8953ff       REX.W movq [rbx-0x1],r10
0x177bccd68522   290  f20f114b07     movsd [rbx+0x7],xmm1
                  ;;; <@76,#58> push-argument
0x177bccd68527   295  53             push rbx
                  ;;; <@77,#58> gap
0x177bccd68528   296  488b75e8       REX.W movq rsi,[rbp-0x18]
                  ;;; <@78,#59> call-runtime
0x177bccd6852c   300  b801000000     movl rax,0x1
0x177bccd68531   305  498d9d0817e4fd REX.W leaq rbx,[r13-0x21be8f8]
0x177bccd68538   312  e863e1f9ff     call 0x177bccd066a0     ;; code: STUB, CEntryStub, minor: 0
                  ;;; <@80,#60> lazy-bailout
                  ;;; <@82,#62> return
0x177bccd6853d   317  488be5         REX.W movq rsp,rbp
0x177bccd68540   320  5d             pop rbp
0x177bccd68541   321  c21000         ret 0x10
                  ;;; <@84,#45> -------------------- B12 (unreachable/replaced) --------------------
                  ;;; <@88,#51> -------------------- B13 --------------------
                  ;;; <@89,#51> gap
0x177bccd68544   324  f20f104de0     movsd xmm1,[rbp-0x20]    ;; debug: position 1061
                  ;;; <@90,#67> double-to-i
0x177bccd68549   329  f2480f2cc1     REX.W cvttsd2siq rax,xmm1    ;; debug: position 1074
0x177bccd6854e   334  4883f801       REX.W cmpq rax,0x1
0x177bccd68552   338  7112           jno 358  (0x177bccd68566)
0x177bccd68554   340  4883ec08       REX.W subq rsp,0x8
0x177bccd68558   344  f20f110c24     movsd [rsp],xmm1
0x177bccd6855d   349  e8defdffff     call 0x177bccd68340     ;; code: STUB, DoubleToIStub, minor: 135172
0x177bccd68562   354  4883c408       REX.W addq rsp,0x8
0x177bccd68566   358  8bc0           movl rax,rax
                  ;;; <@92,#53> shift-i
                  ;;; <@94,#70> number-tag-u
0x177bccd68568   360  3dffffff7f     cmp rax,0x7fffffff
0x177bccd6856d   365  0f8754000000   ja 455  (0x177bccd685c7)
0x177bccd68573   371  48c1e020       REX.W shlq rax,32
                  ;;; <@96,#56> return
0x177bccd68577   375  488be5         REX.W movq rsp,rbp
0x177bccd6857a   378  5d             pop rbp
0x177bccd6857b   379  c21000         ret 0x10
                  ;;; <@74,#66> -------------------- Deferred number-tag-d --------------------
0x177bccd6857e   382  33db           xorl rbx,rbx
0x177bccd68580   384  50             push rax
0x177bccd68581   385  51             push rcx
0x177bccd68582   386  52             push rdx
0x177bccd68583   387  53             push rbx
0x177bccd68584   388  56             push rsi
0x177bccd68585   389  57             push rdi
0x177bccd68586   390  4150           push r8
0x177bccd68588   392  4151           push r9
0x177bccd6858a   394  4153           push r11
0x177bccd6858c   396  4156           push r14
0x177bccd6858e   398  4157           push r15
0x177bccd68590   400  488d6424d8     REX.W leaq rsp,[rsp-0x28]
0x177bccd68595   405  488b75f8       REX.W movq rsi,[rbp-0x8]
0x177bccd68599   409  33c0           xorl rax,rax
0x177bccd6859b   411  498d9d48c0e3fd REX.W leaq rbx,[r13-0x21c3fb8]
0x177bccd685a2   418  e8f9dcf9ff     call 0x177bccd062a0     ;; code: STUB, CEntryStub, minor: 1
0x177bccd685a7   423  4c8bd0         REX.W movq r10,rax
0x177bccd685aa   426  488d642428     REX.W leaq rsp,[rsp+0x28]
0x177bccd685af   431  415f           pop r15
0x177bccd685b1   433  415e           pop r14
0x177bccd685b3   435  415b           pop r11
0x177bccd685b5   437  4159           pop r9
0x177bccd685b7   439  4158           pop r8
0x177bccd685b9   441  5f             pop rdi
0x177bccd685ba   442  5e             pop rsi
0x177bccd685bb   443  5b             pop rbx
0x177bccd685bc   444  5a             pop rdx
0x177bccd685bd   445  59             pop rcx
0x177bccd685be   446  58             pop rax
0x177bccd685bf   447  498bda         REX.W movq rbx,r10
0x177bccd685c2   450  e95bffffff     jmp 290  (0x177bccd68522)
                  ;;; <@94,#70> -------------------- Deferred number-tag-u --------------------
0x177bccd685c7   455  f2480f2ac8     REX.W cvtsi2sd xmm1,rax
0x177bccd685cc   460  498b85980a0000 REX.W movq rax,[r13+0xa98]
0x177bccd685d3   467  488bd8         REX.W movq rbx,rax
0x177bccd685d6   470  4883c310       REX.W addq rbx,0x10
0x177bccd685da   474  0f8221000000   jc 513  (0x177bccd68601)
0x177bccd685e0   480  493b9da00a0000 REX.W cmpq rbx,[r13+0xaa0]
0x177bccd685e7   487  0f8714000000   ja 513  (0x177bccd68601)
0x177bccd685ed   493  49899d980a0000 REX.W movq [r13+0xa98],rbx
0x177bccd685f4   500  48ffc0         REX.W incq rax
0x177bccd685f7   503  4d8b5500       REX.W movq r10,[r13+0x0]
0x177bccd685fb   507  4c8950ff       REX.W movq [rax-0x1],r10
0x177bccd685ff   511  eb43           jmp 580  (0x177bccd68644)
0x177bccd68601   513  33c0           xorl rax,rax
0x177bccd68603   515  50             push rax
0x177bccd68604   516  51             push rcx
0x177bccd68605   517  52             push rdx
0x177bccd68606   518  53             push rbx
0x177bccd68607   519  56             push rsi
0x177bccd68608   520  57             push rdi
0x177bccd68609   521  4150           push r8
0x177bccd6860b   523  4151           push r9
0x177bccd6860d   525  4153           push r11
0x177bccd6860f   527  4156           push r14
0x177bccd68611   529  4157           push r15
0x177bccd68613   531  488d6424d8     REX.W leaq rsp,[rsp-0x28]
0x177bccd68618   536  488b75f8       REX.W movq rsi,[rbp-0x8]
0x177bccd6861c   540  33c0           xorl rax,rax
0x177bccd6861e   542  498d9d48c0e3fd REX.W leaq rbx,[r13-0x21c3fb8]
0x177bccd68625   549  e876dcf9ff     call 0x177bccd062a0     ;; code: STUB, CEntryStub, minor: 1
0x177bccd6862a   554  4889442478     REX.W movq [rsp+0x78],rax
0x177bccd6862f   559  488d642428     REX.W leaq rsp,[rsp+0x28]
0x177bccd68634   564  415f           pop r15
0x177bccd68636   566  415e           pop r14
0x177bccd68638   568  415b           pop r11
0x177bccd6863a   570  4159           pop r9
0x177bccd6863c   572  4158           pop r8
0x177bccd6863e   574  5f             pop rdi
0x177bccd6863f   575  5e             pop rsi
0x177bccd68640   576  5b             pop rbx
0x177bccd68641   577  5a             pop rdx
0x177bccd68642   578  59             pop rcx
0x177bccd68643   579  58             pop rax
0x177bccd68644   580  f20f114807     movsd [rax+0x7],xmm1
0x177bccd68649   585  e929ffffff     jmp 375  (0x177bccd68577)
                  ;;; -------------------- Jump table --------------------
                  ;;; jump table entry 0: deoptimization bailout 2.
0x177bccd6864e   590  e8c1d9c9ff     call 0x177bcca06014     ;; deoptimization bailout 2
                  ;;; jump table entry 1: deoptimization bailout 3.
0x177bccd68653   595  e8c6d9c9ff     call 0x177bcca0601e     ;; deoptimization bailout 3
                  ;;; Safepoint table.

Deoptimization Input Data (deopt points = 5)
 index  ast id    argc     pc
     0       3       0     35
     1      22       0     95
     2      25       0     -1
     3      25       0     -1
     4      62       0    317

Safepoints (size = 63)
0x177bccd68423    35  01 (sp -> fp)       0
0x177bccd6845f    95  01 (sp -> fp)       1
0x177bccd6853d   317  00 (sp -> fp)       4
0x177bccd685a7   423  01 | rbx (sp -> fp)  <none>
0x177bccd6862a   554  00 | rax (sp -> fp)  <none>

RelocInfo (size = 635)
0x177bccd6840a  comment  (;;; <@0,#0> -------------------- B0 --------------------)
0x177bccd6840a  comment  (;;; <@2,#1> context)
0x177bccd6840e  comment  (;;; <@3,#1> gap)
0x177bccd68412  comment  (;;; <@10,#8> -------------------- B1 --------------------)
0x177bccd68412  comment  (;;; <@11,#8> gap)
0x177bccd68415  comment  (;;; <@12,#10> stack-check)
0x177bccd6841f  code target (BUILTIN)  (0x177bccd31140)
0x177bccd68423  comment  (;;; <@14,#10> lazy-bailout)
0x177bccd68423  comment  (;;; <@16,#12> gap)
0x177bccd68423  position  (1005)
0x177bccd68427  comment  (;;; <@17,#12> typeof-is-and-branch)
0x177bccd6843d  comment  (;;; <@18,#16> -------------------- B2 (unreachable/replaced) --------------------)
0x177bccd6843d  comment  (;;; <@22,#19> -------------------- B3 --------------------)
0x177bccd6843d  comment  (;;; <@24,#23> push-argument)
0x177bccd6843f  embedded object  (0xecbf5c60321 <JS Global Object>)
0x177bccd68449  comment  (;;; <@25,#23> gap)
0x177bccd6844d  comment  (;;; <@26,#23> push-argument)
0x177bccd6844e  comment  (;;; <@28,#20> constant-t)
0x177bccd68450  embedded object  (0xecbf5c522a9 <JS Function NonNumberToNumber (SharedFunctionInfo 0xecbf5c267a9)>)
0x177bccd68458  comment  (;;; <@30,#25> call-js-function)
0x177bccd6845f  comment  (;;; <@32,#26> lazy-bailout)
0x177bccd6845f  comment  (;;; <@34,#65> double-untag)
0x177bccd6845f  position  (1047)
0x177bccd68487  position  (1005)
0x177bccd68487  comment  (;;; <@37,#31> goto)
0x177bccd6848c  comment  (;;; <@38,#13> -------------------- B4 (unreachable/replaced) --------------------)
0x177bccd6848c  comment  (;;; <@42,#27> -------------------- B5 --------------------)
0x177bccd6848c  comment  (;;; <@43,#27> gap)
0x177bccd68490  comment  (;;; <@44,#64> double-untag)
0x177bccd68490  position  (1047)
0x177bccd684b8  position  (1005)
0x177bccd684b8  position  (1047)
0x177bccd684b8  comment  (;;; <@48,#33> -------------------- B6 --------------------)
0x177bccd684bd  comment  (;;; <@50,#34> constant-d)
0x177bccd684cc  comment  (;;; <@53,#35> compare-numeric-and-branch)
0x177bccd684dc  comment  (;;; <@54,#39> -------------------- B7 (unreachable/replaced) --------------------)
0x177bccd684dc  comment  (;;; <@58,#36> -------------------- B8 (unreachable/replaced) --------------------)
0x177bccd684dc  position  (1061)
0x177bccd684dc  comment  (;;; <@62,#42> -------------------- B9 --------------------)
0x177bccd684dc  comment  (;;; <@64,#68> constant-d)
0x177bccd684df  comment  (;;; <@67,#44> compare-numeric-and-branch)
0x177bccd684ef  comment  (;;; <@68,#48> -------------------- B10 (unreachable/replaced) --------------------)
0x177bccd684ef  position  (1074)
0x177bccd684ef  comment  (;;; <@72,#57> -------------------- B11 --------------------)
0x177bccd684ef  comment  (;;; <@74,#66> number-tag-d)
0x177bccd68527  comment  (;;; <@76,#58> push-argument)
0x177bccd68528  comment  (;;; <@77,#58> gap)
0x177bccd6852c  comment  (;;; <@78,#59> call-runtime)
0x177bccd68539  code target (STUB)  (0x177bccd066a0)
0x177bccd6853d  comment  (;;; <@80,#60> lazy-bailout)
0x177bccd6853d  comment  (;;; <@82,#62> return)
0x177bccd68544  comment  (;;; <@84,#45> -------------------- B12 (unreachable/replaced) --------------------)
0x177bccd68544  position  (1061)
0x177bccd68544  comment  (;;; <@88,#51> -------------------- B13 --------------------)
0x177bccd68544  comment  (;;; <@89,#51> gap)
0x177bccd68549  comment  (;;; <@90,#67> double-to-i)
0x177bccd68549  position  (1074)
0x177bccd6855e  code target (STUB)  (0x177bccd68340)
0x177bccd68568  comment  (;;; <@92,#53> shift-i)
0x177bccd68568  comment  (;;; <@94,#70> number-tag-u)
0x177bccd68577  comment  (;;; <@96,#56> return)
0x177bccd6857e  comment  (;;; <@74,#66> -------------------- Deferred number-tag-d --------------------)
0x177bccd685a3  code target (STUB)  (0x177bccd062a0)
0x177bccd685c7  comment  (;;; <@94,#70> -------------------- Deferred number-tag-u --------------------)
0x177bccd68626  code target (STUB)  (0x177bccd062a0)
0x177bccd6864e  comment  (;;; -------------------- Jump table --------------------)
0x177bccd6864e  comment  (;;; jump table entry 0: deoptimization bailout 2.)
0x177bccd6864f  runtime entry  (deoptimization bailout 2)
0x177bccd68653  comment  (;;; jump table entry 1: deoptimization bailout 3.)
0x177bccd68654  runtime entry  (deoptimization bailout 3)
0x177bccd68658  comment  (;;; Safepoint table.)

--- End code ---
[optimizing 0xecbf5c52339 <JS Function floor (SharedFunctionInfo 0xecbf5c10549)> - took 0.237, 1.510, 2.560 ms]
[deoptimizing (DEOPT soft): begin 0xecbf5c621a1 syncMap (opt #2) @7, FP to SP delta: 176]
            ;;; deoptimize: Insufficient type feedback for keyed load
  translating syncMap => node=51, height=56
    0x7fff5fbfe118: [top + 112] <- 0xecbf5c04121 ; [sp + 216] 0xecbf5c04121 <undefined>
    0x7fff5fbfe110: [top + 104] <- 0x13fa3c0c369 ; [sp + 208] 0x13fa3c0c369 <JS Array[50000]>
    0x7fff5fbfe108: [top + 96] <- 0xecbf5c6fad9 ; [sp + 200] 0xecbf5c6fad9 <JS Array[50000]>
    0x7fff5fbfe100: [top + 88] <- 0xecbf5c621e9 ; [sp + 192] 0xecbf5c621e9 <JS Function ident (SharedFunctionInfo 0xecbf5c61ca9)>
    0x7fff5fbfe0f8: [top + 80] <- 0x177bccd5f816 ; caller's pc
    0x7fff5fbfe0f0: [top + 72] <- 0x7fff5fbfe140 ; caller's fp
    0x7fff5fbfe0e8: [top + 64] <- 0xecbf5c6f749; context
    0x7fff5fbfe0e0: [top + 56] <- 0xecbf5c621a1; function
    0x7fff5fbfe0d8: [top + 48] <- 0 ; rdx (smi)
    0x7fff5fbfe0d0: [top + 40] <- 0xecbf5c04121 <undefined> ; literal
    0x7fff5fbfe0c8: [top + 32] <- 0xc35000000000 ; rax 50000
    0x7fff5fbfe0c0: [top + 24] <- 0x1a4409395379 ; [sp + 88] 0x1a4409395379 <an Object with map 0x1b4f13c139e9>
    0x7fff5fbfe0b8: [top + 16] <- 0xecbf5c04121 <undefined> ; literal
    0x7fff5fbfe0b0: [top + 8] <- 0xecbf5c04121 <undefined> ; literal
    0x7fff5fbfe0a8: [top + 0] <- 0xecbf5c04121 <undefined> ; literal
[deoptimizing (soft): end 0xecbf5c621a1 syncMap @7 => node=51, pc=0x177bccd619d4, state=NO_REGISTERS, alignment=no padding, took 0.115 ms]
[removing optimized code for: syncMap]
[evicting entry from optimizing code map (notify deoptimized) for 0xecbf5c61c19 <SharedFunctionInfo syncMap> (osr ast id 159)]
[deoptimizing (DEOPT eager): begin 0xecbf5c62111 guid (opt #1) @2, FP to SP delta: 24]
            ;;; <@21,#14> branch
  translating guid => node=8, height=8
    0x7fff5fbfe090: [top + 48] <- 0xecbf5c04121 ; [sp + 48] 0xecbf5c04121 <undefined>
    0x7fff5fbfe088: [top + 40] <- 0x13fa3c0cd39 ; [sp + 40] 0x13fa3c0cd39 <an Entry with map 0x1b4f13c13ac1>
    0x7fff5fbfe080: [top + 32] <- 0x177bccd61a35 ; caller's pc
    0x7fff5fbfe078: [top + 24] <- 0x7fff5fbfe0f0 ; caller's fp
    0x7fff5fbfe070: [top + 16] <- 0xecbf5c6f749; context
    0x7fff5fbfe068: [top + 8] <- 0xecbf5c62111; function
    0x7fff5fbfe060: [top + 0] <- 0x00000000 ; rax 0
[deoptimizing (eager): end 0xecbf5c62111 guid @2 => node=8, pc=0x177bccd624a2, state=TOS_REG, alignment=no padding, took 0.023 ms]
[removing optimized code for: guid]
[evicting entry from optimizing code map (notify deoptimized) for 0xecbf5c61af9 <SharedFunctionInfo guid>]
[marking 0xecbf5c62111 <JS Function guid (SharedFunctionInfo 0xecbf5c61af9)> for recompilation, reason: small function, ICs with typeinfo: 7/7 (100%)]
--- Raw source ---
(obj) {\x0a  if (!obj.__guid__) {\x0a    obj.__guid__ = __guid++;\x0a  }\x0a\x0a  return obj.__guid__;\x0a}\x0a

--- Optimized code ---
optimization_id = 6
source_position = 136
kind = OPTIMIZED_FUNCTION
name = guid
stack_slots = 0
Instructions (size = 356)
0x177bccd691a0     0  55             push rbp
0x177bccd691a1     1  4889e5         REX.W movq rbp,rsp
0x177bccd691a4     4  56             push rsi
0x177bccd691a5     5  57             push rdi
                  ;;; <@0,#0> -------------------- B0 --------------------
                  ;;; <@2,#1> context
0x177bccd691a6     6  488b75f8       REX.W movq rsi,[rbp-0x8]
                  ;;; <@10,#8> -------------------- B1 --------------------
                  ;;; <@12,#10> stack-check
0x177bccd691aa    10  0f1f00         nop
0x177bccd691ad    13  493ba590070000 REX.W cmpq rsp,[r13+0x790]
0x177bccd691b4    20  7305           jnc 27  (0x177bccd691bb)
0x177bccd691b6    22  e8857ffcff     call StackCheck  (0x177bccd31140)    ;; code: BUILTIN
                  ;;; <@14,#10> lazy-bailout
                  ;;; <@15,#10> gap
0x177bccd691bb    27  488b4510       REX.W movq rax,[rbp+0x10]
                  ;;; <@16,#12> check-non-smi
0x177bccd691bf    31  a801           test al,0x1
0x177bccd691c1    33  0f8410010000   jz 311  (0x177bccd692d7)
                  ;;; <@18,#13> check-maps
0x177bccd691c7    39  49bac13ac1134f1b0000 REX.W movq r10,0x1b4f13c13ac1    ;; object: 0x1b4f13c13ac1 <Map(elements=3)>
0x177bccd691d1    49  4c3950ff       REX.W cmpq [rax-0x1],r10
0x177bccd691d5    53  0f8573000000   jnz 174  (0x177bccd6924e)
                  ;;; <@20,#14> load-named-field
0x177bccd691db    59  488b581f       REX.W movq rbx,[rax+0x1f]
                  ;;; <@23,#15> branch
0x177bccd691df    63  493b5da8       REX.W cmpq rbx,[r13-0x58]
0x177bccd691e3    67  0f8417000000   jz 96  (0x177bccd69200)
0x177bccd691e9    73  4885db         REX.W testq rbx,rbx
0x177bccd691ec    76  0f840e000000   jz 96  (0x177bccd69200)
0x177bccd691f2    82  f6c301         testb rbx,0x1
0x177bccd691f5    85  0f8448000000   jz 163  (0x177bccd69243)
0x177bccd691fb    91  e814cec9ff     call 0x177bcca06014     ;; deoptimization bailout 2
                  ;;; <@24,#19> -------------------- B2 (unreachable/replaced) --------------------
                  ;;; <@28,#22> -------------------- B3 --------------------
                  ;;; <@30,#23> load-global-cell
0x177bccd69200    96  48bbe8046125ac0f0000 REX.W movq rbx,0xfac256104e8    ;; debug: position 192
                                                             ;; property cell
0x177bccd6920a   106  488b1b         REX.W movq rbx,[rbx]
                  ;;; <@32,#45> tagged-to-i
0x177bccd6920d   109  f6c301         testb rbx,0x1
0x177bccd69210   112  0f8583000000   jnz 249  (0x177bccd69299)
0x177bccd69216   118  48c1eb20       REX.W shrq rbx,32
                  ;;; <@33,#45> gap
0x177bccd6921a   122  488bd3         REX.W movq rdx,rbx
                  ;;; <@34,#26> add-i
0x177bccd6921d   125  83c201         addl rdx,0x1
0x177bccd69220   128  0f80b6000000   jo 316  (0x177bccd692dc)
                  ;;; <@36,#47> smi-tag
0x177bccd69226   134  8bca           movl rcx,rdx
0x177bccd69228   136  48c1e120       REX.W shlq rcx,32
                  ;;; <@38,#27> store-global-cell
0x177bccd6922c   140  49bae8046125ac0f0000 REX.W movq r10,0xfac256104e8    ;; property cell
0x177bccd69236   150  49890a         REX.W movq [r10],rcx
                  ;;; <@40,#46> smi-tag
0x177bccd69239   153  8bd3           movl rdx,rbx
0x177bccd6923b   155  48c1e220       REX.W shlq rdx,32
                  ;;; <@42,#31> store-named-field
0x177bccd6923f   159  4889501f       REX.W movq [rax+0x1f],rdx
                  ;;; <@46,#16> -------------------- B4 (unreachable/replaced) --------------------
                  ;;; <@50,#35> -------------------- B5 (unreachable/replaced) --------------------
                  ;;; <@54,#38> -------------------- B6 --------------------
                  ;;; <@56,#41> load-named-field
0x177bccd69243   163  488b401f       REX.W movq rax,[rax+0x1f]
                  ;;; <@58,#43> return
0x177bccd69247   167  488be5         REX.W movq rsp,rbp
0x177bccd6924a   170  5d             pop rbp
0x177bccd6924b   171  c21000         ret 0x10
                  ;;; <@18,#13> -------------------- Deferred check-maps --------------------
0x177bccd6924e   174  50             push rax
0x177bccd6924f   175  51             push rcx
0x177bccd69250   176  52             push rdx
0x177bccd69251   177  53             push rbx
0x177bccd69252   178  56             push rsi
0x177bccd69253   179  57             push rdi
0x177bccd69254   180  4150           push r8
0x177bccd69256   182  4151           push r9
0x177bccd69258   184  4153           push r11
0x177bccd6925a   186  4156           push r14
0x177bccd6925c   188  4157           push r15
0x177bccd6925e   190  488d6424d8     REX.W leaq rsp,[rsp-0x28]
0x177bccd69263   195  50             push rax
0x177bccd69264   196  33f6           xorl rsi,rsi
0x177bccd69266   198  b801000000     movl rax,0x1
0x177bccd6926b   203  498d9d482ae6fd REX.W leaq rbx,[r13-0x219d5b8]
0x177bccd69272   210  e829d0f9ff     call 0x177bccd062a0     ;; code: STUB, CEntryStub, minor: 1
0x177bccd69277   215  a801           test al,0x1
0x177bccd69279   217  488d642428     REX.W leaq rsp,[rsp+0x28]
0x177bccd6927e   222  415f           pop r15
0x177bccd69280   224  415e           pop r14
0x177bccd69282   226  415b           pop r11
0x177bccd69284   228  4159           pop r9
0x177bccd69286   230  4158           pop r8
0x177bccd69288   232  5f             pop rdi
0x177bccd69289   233  5e             pop rsi
0x177bccd6928a   234  5b             pop rbx
0x177bccd6928b   235  5a             pop rdx
0x177bccd6928c   236  59             pop rcx
0x177bccd6928d   237  58             pop rax
0x177bccd6928e   238  0f844d000000   jz 321  (0x177bccd692e1)
0x177bccd69294   244  e92effffff     jmp 39  (0x177bccd691c7)
                  ;;; <@32,#45> -------------------- Deferred tagged-to-i --------------------
0x177bccd69299   249  4d8b5500       REX.W movq r10,[r13+0x0]
0x177bccd6929d   253  4c3953ff       REX.W cmpq [rbx-0x1],r10
0x177bccd692a1   257  752a           jnz 301  (0x177bccd692cd)
0x177bccd692a3   259  f20f104307     movsd xmm0,[rbx+0x7]
0x177bccd692a8   264  f20f2cd8       cvttsd2sil rbx,xmm0
0x177bccd692ac   268  0f57c9         xorps xmm1,xmm1
0x177bccd692af   271  f20f2acb       cvtsi2sd xmm1,rbx
0x177bccd692b3   275  660f2ec1       ucomisd xmm0,xmm1
                  Deferred TaggedToI: lost precision
0x177bccd692b7   279  7514           jnz 301  (0x177bccd692cd)
                  Deferred TaggedToI: NaN
0x177bccd692b9   281  7a12           jpe 301  (0x177bccd692cd)
0x177bccd692bb   283  85db           testl rbx,rbx
0x177bccd692bd   285  7509           jnz 296  (0x177bccd692c8)
0x177bccd692bf   287  660f50d8       movmskpd rbx,xmm0
0x177bccd692c3   291  83e301         andl rbx,0x1
0x177bccd692c6   294  7505           jnz 301  (0x177bccd692cd)
0x177bccd692c8   296  e94dffffff     jmp 122  (0x177bccd6921a)
0x177bccd692cd   301  e860cdc9ff     call 0x177bcca06032     ;; deoptimization bailout 5
0x177bccd692d2   306  e943ffffff     jmp 122  (0x177bccd6921a)
                  ;;; -------------------- Jump table --------------------
                  ;;; jump table entry 0: deoptimization bailout 1.
0x177bccd692d7   311  e82ecdc9ff     call 0x177bcca0600a     ;; deoptimization bailout 1
                  ;;; jump table entry 1: deoptimization bailout 3.
0x177bccd692dc   316  e83dcdc9ff     call 0x177bcca0601e     ;; deoptimization bailout 3
                  ;;; jump table entry 2: deoptimization bailout 4.
0x177bccd692e1   321  e842cdc9ff     call 0x177bcca06028     ;; deoptimization bailout 4
0x177bccd692e6   326  6690           nop
                  ;;; Safepoint table.

Deoptimization Input Data (deopt points = 6)
 index  ast id    argc     pc
     0       3       0     27
     1       3       0     -1
     2       3       0     -1
     3      35       0     -1
     4       3       0     -1
     5      35       0     -1

Safepoints (size = 28)
0x177bccd691bb    27  11111111 (sp -> fp)       0
0x177bccd69277   215  00000000 | rax (sp -> fp)  <none> argc: 1

RelocInfo (size = 398)
0x177bccd691a6  comment  (;;; <@0,#0> -------------------- B0 --------------------)
0x177bccd691a6  comment  (;;; <@2,#1> context)
0x177bccd691aa  comment  (;;; <@10,#8> -------------------- B1 --------------------)
0x177bccd691aa  comment  (;;; <@12,#10> stack-check)
0x177bccd691b7  code target (BUILTIN)  (0x177bccd31140)
0x177bccd691bb  comment  (;;; <@14,#10> lazy-bailout)
0x177bccd691bb  comment  (;;; <@15,#10> gap)
0x177bccd691bf  comment  (;;; <@16,#12> check-non-smi)
0x177bccd691c7  comment  (;;; <@18,#13> check-maps)
0x177bccd691c9  embedded object  (0x1b4f13c13ac1 <Map(elements=3)>)
0x177bccd691db  comment  (;;; <@20,#14> load-named-field)
0x177bccd691df  comment  (;;; <@23,#15> branch)
0x177bccd691fc  runtime entry  (deoptimization bailout 2)
0x177bccd69200  comment  (;;; <@24,#19> -------------------- B2 (unreachable/replaced) --------------------)
0x177bccd69200  position  (192)
0x177bccd69200  comment  (;;; <@28,#22> -------------------- B3 --------------------)
0x177bccd69200  comment  (;;; <@30,#23> load-global-cell)
0x177bccd69202  property cell
0x177bccd6920d  comment  (;;; <@32,#45> tagged-to-i)
0x177bccd6921a  comment  (;;; <@33,#45> gap)
0x177bccd6921d  comment  (;;; <@34,#26> add-i)
0x177bccd69226  comment  (;;; <@36,#47> smi-tag)
0x177bccd6922c  comment  (;;; <@38,#27> store-global-cell)
0x177bccd6922e  property cell
0x177bccd69239  comment  (;;; <@40,#46> smi-tag)
0x177bccd6923f  comment  (;;; <@42,#31> store-named-field)
0x177bccd69243  comment  (;;; <@46,#16> -------------------- B4 (unreachable/replaced) --------------------)
0x177bccd69243  comment  (;;; <@50,#35> -------------------- B5 (unreachable/replaced) --------------------)
0x177bccd69243  comment  (;;; <@54,#38> -------------------- B6 --------------------)
0x177bccd69243  comment  (;;; <@56,#41> load-named-field)
0x177bccd69247  comment  (;;; <@58,#43> return)
0x177bccd6924e  comment  (;;; <@18,#13> -------------------- Deferred check-maps --------------------)
0x177bccd69273  code target (STUB)  (0x177bccd062a0)
0x177bccd69299  comment  (;;; <@32,#45> -------------------- Deferred tagged-to-i --------------------)
0x177bccd692b7  comment  (Deferred TaggedToI: lost precision)
0x177bccd692b9  comment  (Deferred TaggedToI: NaN)
0x177bccd692ce  runtime entry  (deoptimization bailout 5)
0x177bccd692d7  comment  (;;; -------------------- Jump table --------------------)
0x177bccd692d7  comment  (;;; jump table entry 0: deoptimization bailout 1.)
0x177bccd692d8  runtime entry  (deoptimization bailout 1)
0x177bccd692dc  comment  (;;; jump table entry 1: deoptimization bailout 3.)
0x177bccd692dd  runtime entry  (deoptimization bailout 3)
0x177bccd692e1  comment  (;;; jump table entry 2: deoptimization bailout 4.)
0x177bccd692e2  runtime entry  (deoptimization bailout 4)
0x177bccd692e8  comment  (;;; Safepoint table.)

--- End code ---
[optimizing 0xecbf5c62111 <JS Function guid (SharedFunctionInfo 0xecbf5c61af9)> - took 0.128, 0.928, 0.916 ms]
[marking 0xecbf5c621a1 <JS Function syncMap (SharedFunctionInfo 0xecbf5c61c19)> for recompilation, reason: hot and stable, ICs with typeinfo: 14/24 (58%)]
Inlined makeMap called from syncMap.
Inlined guid called from syncMap.
Inlined guid called from syncMap.
Did not inline ident called from syncMap (target not inlineable).
--- Raw source ---
(mapped, source, mapFn) {\x0a  var i,x, l, guidMap = makeMap();\x0a\x0a  for (i = 0, l = mapped.length; i < l; i++) {\x0a    var mappedItem = mapped[i];\x0a    var sourceItem = mappedItem.__source__;\x0a    guidMap[guid(sourceItem)] = mappedItem;\x0a  }\x0a\x0a  mapped.length = source.length;\x0a\x0a  for (x = 0, l = source.length; x < l; x++) {\x0a    var sourceItem = source[x];\x0a    var sourceItemGuid = guid(source[x]);\x0a    var mappedItem;\x0a\x0a    if (guidMap[sourceItemGuid] === undefined) {\x0a      mappedItem = mapFn(sourceItem);\x0a      mappedItem.__source__ = sourceItem;\x0a    } else {\x0a      mappedItem = guidMap[sourceItemGuid];\x0a    }\x0a\x0a    mapped[x] = mappedItem;\x0a  }\x0a}\x0a

--- Optimized code ---
optimization_id = 7
source_position = 347
kind = OPTIMIZED_FUNCTION
name = syncMap
stack_slots = 24
Instructions (size = 3128)
0x177bccd69ec0     0  55             push rbp
0x177bccd69ec1     1  4889e5         REX.W movq rbp,rsp
0x177bccd69ec4     4  56             push rsi
0x177bccd69ec5     5  57             push rdi
0x177bccd69ec6     6  4881ecc0000000 REX.W subq rsp,0xc0
                  ;;; <@0,#0> -------------------- B0 --------------------
                  ;;; <@2,#1> context
0x177bccd69ecd    13  488b45f8       REX.W movq rax,[rbp-0x8]
                  ;;; <@3,#1> gap
0x177bccd69ed1    17  488945b0       REX.W movq [rbp-0x50],rax
                  ;;; <@14,#10> -------------------- B1 --------------------
                  ;;; <@15,#10> gap
0x177bccd69ed5    21  488bf0         REX.W movq rsi,rax
                  ;;; <@16,#12> stack-check
0x177bccd69ed8    24  493ba590070000 REX.W cmpq rsp,[r13+0x790]
0x177bccd69edf    31  7305           jnc 38  (0x177bccd69ee6)
0x177bccd69ee1    33  e85a72fcff     call StackCheck  (0x177bccd31140)    ;; code: BUILTIN
                  ;;; <@18,#12> lazy-bailout
                  ;;; <@20,#16> constant-t
0x177bccd69ee6    38  48be49f7c6f5cb0e0000 REX.W movq rsi,0xecbf5c6f749    ;; object: 0xecbf5c6f749 <FixedArray[112]>
                  ;;; <@22,#20> constant-t
0x177bccd69ef0    48  48bab10ec5f5cb0e0000 REX.W movq rdx,0xecbf5c50eb1    ;; object: 0xecbf5c50eb1 <JS Function Object (SharedFunctionInfo 0xecbf5c3d169)>
                  ;;; <@24,#21> load-named-generic
0x177bccd69efa    58  48b9a12b31fe38160000 REX.W movq rcx,0x1638fe312ba1    ;; object: 0x1638fe312ba1 <String[6]: create>
0x177bccd69f04    68  e81766fcff     call 0x177bccd30520     ;; code: LOAD_IC, UNINITIALIZED
                  ;;; <@26,#22> lazy-bailout
                  ;;; <@28,#24> push-argument
0x177bccd69f09    73  49bab10ec5f5cb0e0000 REX.W movq r10,0xecbf5c50eb1    ;; object: 0xecbf5c50eb1 <JS Function Object (SharedFunctionInfo 0xecbf5c3d169)>
0x177bccd69f13    83  4152           push r10
                  ;;; <@30,#24> push-argument
0x177bccd69f15    85  49ba0141c0f5cb0e0000 REX.W movq r10,0xecbf5c04101    ;; object: 0xecbf5c04101 <null>
0x177bccd69f1f    95  4152           push r10
                  ;;; <@32,#16> constant-t
0x177bccd69f21    97  48be49f7c6f5cb0e0000 REX.W movq rsi,0xecbf5c6f749    ;; object: 0xecbf5c6f749 <FixedArray[112]>
                  ;;; <@33,#16> gap
0x177bccd69f2b   107  488bf8         REX.W movq rdi,rax
                  ;;; <@34,#25> call-function
0x177bccd69f2e   110  e8ad26fcff     call 0x177bccd2c5e0     ;; code: STUB, CallFunctionStub, argc = 1
                  ;;; <@35,#25> gap
0x177bccd69f33   115  488945a8       REX.W movq [rbp-0x58],rax
0x177bccd69f37   119  488bd8         REX.W movq rbx,rax
                  ;;; <@36,#26> lazy-bailout
                  ;;; <@38,#16> constant-t
0x177bccd69f3a   122  48be49f7c6f5cb0e0000 REX.W movq rsi,0xecbf5c6f749    ;; object: 0xecbf5c6f749 <FixedArray[112]>
                  ;;; <@40,#371> constant-t
0x177bccd69f44   132  4c89e0         REX.W movq rax,r12
                  ;;; <@41,#371> gap
0x177bccd69f47   135  488bd3         REX.W movq rdx,rbx
                  ;;; <@42,#31> store-named-generic
0x177bccd69f4a   138  48b961c432fe38160000 REX.W movq rcx,0x1638fe32c461    ;; object: 0x1638fe32c461 <String[3]: foo>
0x177bccd69f54   148  e84766fcff     call 0x177bccd305a0     ;; code: STORE_IC, UNINITIALIZED
                  ;;; <@44,#32> lazy-bailout
                  ;;; <@46,#16> constant-t
0x177bccd69f59   153  48be49f7c6f5cb0e0000 REX.W movq rsi,0xecbf5c6f749    ;; object: 0xecbf5c6f749 <FixedArray[112]>
                  ;;; <@48,#35> load-named-field
0x177bccd69f63   163  488b4627       REX.W movq rax,[rsi+0x27]
                  ;;; <@50,#36> load-named-field
0x177bccd69f67   167  488b4017       REX.W movq rax,[rax+0x17]
                  ;;; <@52,#37> load-named-field
0x177bccd69f6b   171  488bb8a7000000 REX.W movq rdi,[rax+0xa7]
                  ;;; <@54,#39> push-argument
0x177bccd69f72   178  ff75a8         push [rbp-0x58]
                  ;;; <@56,#39> push-argument
0x177bccd69f75   181  49ba61c432fe38160000 REX.W movq r10,0x1638fe32c461    ;; object: 0x1638fe32c461 <String[3]: foo>
0x177bccd69f7f   191  4152           push r10
                  ;;; <@58,#39> push-argument
0x177bccd69f81   193  6a00           push 0x0
                  ;;; <@60,#16> constant-t
0x177bccd69f83   195  48be49f7c6f5cb0e0000 REX.W movq rsi,0xecbf5c6f749    ;; object: 0xecbf5c6f749 <FixedArray[112]>
                  ;;; <@62,#40> invoke-function
0x177bccd69f8d   205  488b5727       REX.W movq rdx,[rdi+0x27]
0x177bccd69f91   209  488b772f       REX.W movq rsi,[rdi+0x2f]
0x177bccd69f95   213  48635a63       REX.W movsxlq rbx,[rdx+0x63]
0x177bccd69f99   217  488b5717       REX.W movq rdx,[rdi+0x17]
0x177bccd69f9d   221  4883fb02       REX.W cmpq rbx,0x2
0x177bccd69fa1   225  740c           jz 239  (0x177bccd69faf)
0x177bccd69fa3   227  b802000000     movl rax,0x2
0x177bccd69fa8   232  e8f3cdf9ff     call ArgumentsAdaptorTrampoline  (0x177bccd06da0)    ;; code: BUILTIN
0x177bccd69fad   237  eb02           jmp 241  (0x177bccd69fb1)
0x177bccd69faf   239  ffd2           call rdx
                  ;;; <@64,#41> lazy-bailout
                  ;;; <@68,#46> -------------------- B2 --------------------
                  ;;; <@69,#46> gap
0x177bccd69fb1   241  488b75b0       REX.W movq rsi,[rbp-0x50]
0x177bccd69fb5   245  488b5520       REX.W movq rdx,[rbp+0x20]
                  ;;; <@70,#50> load-named-generic
0x177bccd69fb9   249  0f1f440000     nop
0x177bccd69fbe   254  48b989f430fe38160000 REX.W movq rcx,0x1638fe30f489    ;; object: 0x1638fe30f489 <String[6]: length>
0x177bccd69fc8   264  e85365fcff     call 0x177bccd30520     ;; code: LOAD_IC, UNINITIALIZED
                  ;;; <@72,#51> lazy-bailout
                  ;;; <@75,#54> goto
0x177bccd69fcd   269  e94b000000     jmp 349  (0x177bccd6a01d)
                  ;;; <@76,#58> -------------------- B3 (OSR entry) --------------------
0x177bccd69fd2   274  4881ec88000000 REX.W subq rsp,0x88
                  ;;; <@104,#73> context
0x177bccd69fd9   281  488b75f8       REX.W movq rsi,[rbp-0x8]
                  ;;; <@105,#73> gap
0x177bccd69fdd   285  488b45e8       REX.W movq rax,[rbp-0x18]
                  ;;; <@106,#374> tagged-to-i
0x177bccd69fe1   289  a801           test al,0x1
0x177bccd69fe3   291  0f8536060000   jnz 1887  (0x177bccd6a61f)
0x177bccd69fe9   297  48c1e820       REX.W shrq rax,32
                  ;;; <@107,#374> gap
0x177bccd69fed   301  488b5dd8       REX.W movq rbx,[rbp-0x28]
                  ;;; <@108,#375> tagged-to-i
0x177bccd69ff1   305  f6c301         testb rbx,0x1
0x177bccd69ff4   308  0f8556060000   jnz 1936  (0x177bccd6a650)
0x177bccd69ffa   314  48c1eb20       REX.W shrq rbx,32
                  ;;; <@110,#75> gap
0x177bccd69ffe   318  4c8b7d28       REX.W movq r15,[rbp+0x28]
0x177bccd6a002   322  4c8b7520       REX.W movq r14,[rbp+0x20]
0x177bccd6a006   326  4c8b5d18       REX.W movq r11,[rbp+0x18]
0x177bccd6a00a   330  4c8b4d10       REX.W movq r9,[rbp+0x10]
0x177bccd6a00e   334  4c8bc6         REX.W movq r8,rsi
0x177bccd6a011   337  488bfb         REX.W movq rdi,rbx
0x177bccd6a014   340  488b5dd0       REX.W movq rbx,[rbp-0x30]
                  ;;; <@111,#75> goto
0x177bccd6a018   344  e92d000000     jmp 394  (0x177bccd6a04a)
                  ;;; <@112,#55> -------------------- B4 --------------------
                  ;;; <@113,#55> gap
0x177bccd6a01d   349  488bd8         REX.W movq rbx,rax
                  ;;; <@114,#373> tagged-to-i
0x177bccd6a020   352  f6c301         testb rbx,0x1
0x177bccd6a023   355  0f8558060000   jnz 1985  (0x177bccd6a681)
0x177bccd6a029   361  48c1eb20       REX.W shrq rbx,32
                  ;;; <@116,#57> gap
0x177bccd6a02d   365  4c8b7d28       REX.W movq r15,[rbp+0x28]
0x177bccd6a031   369  4c8b7520       REX.W movq r14,[rbp+0x20]
0x177bccd6a035   373  4c8b5d18       REX.W movq r11,[rbp+0x18]
0x177bccd6a039   377  4c8b4d10       REX.W movq r9,[rbp+0x10]
0x177bccd6a03d   381  4c8b45b0       REX.W movq r8,[rbp-0x50]
0x177bccd6a041   385  488bfb         REX.W movq rdi,rbx
0x177bccd6a044   388  488b5da8       REX.W movq rbx,[rbp-0x58]
0x177bccd6a048   392  33c0           xorl rax,rax
                  ;;; <@118,#100> -------------------- B5 --------------------
0x177bccd6a04a   394  4c89bd68ffffff REX.W movq [rbp-0x98],r15
0x177bccd6a051   401  4c89b570ffffff REX.W movq [rbp-0x90],r14
0x177bccd6a058   408  4c899d78ffffff REX.W movq [rbp-0x88],r11
0x177bccd6a05f   415  4c894d80       REX.W movq [rbp-0x80],r9
0x177bccd6a063   419  4c894598       REX.W movq [rbp-0x68],r8
0x177bccd6a067   423  48897da0       REX.W movq [rbp-0x60],rdi
0x177bccd6a06b   427  48895d88       REX.W movq [rbp-0x78],rbx
                  ;;; <@120,#117> check-non-smi
0x177bccd6a06f   431  41f6c601       testb r14,0x1           ;; debug: position 444
0x177bccd6a073   435  0f84fa080000   jz 2739  (0x177bccd6a973)
                  ;;; <@122,#170> check-non-smi
0x177bccd6a079   441  f6c301         testb rbx,0x1           ;; debug: position 192
0x177bccd6a07c   444  0f84f6080000   jz 2744  (0x177bccd6a978)
                  ;;; <@126,#103> -------------------- B6 (loop header) --------------------
0x177bccd6a082   450  48898558ffffff REX.W movq [rbp-0xa8],rax    ;; debug: position 444
                  ;;; <@129,#106> compare-numeric-and-branch
0x177bccd6a089   457  3bc7           cmpl rax,rdi
0x177bccd6a08b   459  0f8d67020000   jge 1080  (0x177bccd6a2f8)
                  ;;; <@130,#107> -------------------- B7 (unreachable/replaced) --------------------
                  ;;; <@134,#113> -------------------- B8 --------------------
                  ;;; <@136,#115> stack-check
0x177bccd6a091   465  493ba590070000 REX.W cmpq rsp,[r13+0x790]
0x177bccd6a098   472  0f8214060000   jc 2034  (0x177bccd6a6b2)
                  ;;; <@138,#118> check-maps
0x177bccd6a09e   478  49ba093bc1134f1b0000 REX.W movq r10,0x1b4f13c13b09    ;; object: 0x1b4f13c13b09 <Map(elements=3)>
0x177bccd6a0a8   488  4d3956ff       REX.W cmpq [r14-0x1],r10
0x177bccd6a0ac   492  0f85cb080000   jnz 2749  (0x177bccd6a97d)
                  ;;; <@140,#119> load-named-field
0x177bccd6a0b2   498  498b560f       REX.W movq rdx,[r14+0xf]
                  ;;; <@142,#120> load-named-field
0x177bccd6a0b6   502  418b4e1b       movl rcx,[r14+0x1b]
                  ;;; <@144,#121> bounds-check
0x177bccd6a0ba   506  3bc8           cmpl rcx,rax
0x177bccd6a0bc   508  0f86c0080000   jna 2754  (0x177bccd6a982)
                  ;;; <@146,#122> load-keyed
0x177bccd6a0c2   514  488b54c20f     REX.W movq rdx,[rdx+rax*8+0xf]
0x177bccd6a0c7   519  493b55b0       REX.W cmpq rdx,[r13-0x50]
0x177bccd6a0cb   523  0f84b6080000   jz 2759  (0x177bccd6a987)
                  ;;; <@147,#122> gap
0x177bccd6a0d1   529  48895590       REX.W movq [rbp-0x70],rdx
                  ;;; <@148,#125> check-non-smi
0x177bccd6a0d5   533  f6c201         testb rdx,0x1
0x177bccd6a0d8   536  0f84ae080000   jz 2764  (0x177bccd6a98c)
                  ;;; <@150,#126> check-maps
0x177bccd6a0de   542  49bac13ac1134f1b0000 REX.W movq r10,0x1b4f13c13ac1    ;; object: 0x1b4f13c13ac1 <Map(elements=3)>
0x177bccd6a0e8   552  4c3952ff       REX.W cmpq [rdx-0x1],r10
0x177bccd6a0ec   556  0f8501060000   jnz 2099  (0x177bccd6a6f3)
                  ;;; <@152,#127> load-named-field
0x177bccd6a0f2   562  488b4a27       REX.W movq rcx,[rdx+0x27]
                  ;;; <@154,#138> check-maps
0x177bccd6a0f6   566  49bac13ac1134f1b0000 REX.W movq r10,0x1b4f13c13ac1    ;; object: 0x1b4f13c13ac1 <Map(elements=3)>
0x177bccd6a100   576  4c3951ff       REX.W cmpq [rcx-0x1],r10
0x177bccd6a104   580  0f8534060000   jnz 2174  (0x177bccd6a73e)
                  ;;; <@156,#139> load-named-field
0x177bccd6a10a   586  488b711f       REX.W movq rsi,[rcx+0x1f]
                  ;;; <@159,#140> branch
0x177bccd6a10e   590  493b75a8       REX.W cmpq rsi,[r13-0x58]
0x177bccd6a112   594  0f8418000000   jz 624  (0x177bccd6a130)
0x177bccd6a118   600  4885f6         REX.W testq rsi,rsi
0x177bccd6a11b   603  0f840f000000   jz 624  (0x177bccd6a130)
0x177bccd6a121   609  40f6c601       testb rsi,0x1
0x177bccd6a125   613  0f844a000000   jz 693  (0x177bccd6a175)
0x177bccd6a12b   619  e85cbfc9ff     call 0x177bcca0608c     ;; deoptimization bailout 14
                  ;;; <@160,#144> -------------------- B9 (unreachable/replaced) --------------------
                  ;;; <@164,#147> -------------------- B10 --------------------
                  ;;; <@166,#148> load-global-cell
0x177bccd6a130   624  48bee8046125ac0f0000 REX.W movq rsi,0xfac256104e8    ;; debug: position 192
                                                             ;; property cell
0x177bccd6a13a   634  488b36         REX.W movq rsi,[rsi]
                  ;;; <@168,#376> tagged-to-i
0x177bccd6a13d   637  40f6c601       testb rsi,0x1
0x177bccd6a141   641  0f8542060000   jnz 2249  (0x177bccd6a789)
0x177bccd6a147   647  48c1ee20       REX.W shrq rsi,32
                  ;;; <@169,#376> gap
0x177bccd6a14b   651  488bfe         REX.W movq rdi,rsi
                  ;;; <@170,#151> add-i
0x177bccd6a14e   654  83c701         addl rdi,0x1
0x177bccd6a151   657  0f803a080000   jo 2769  (0x177bccd6a991)
                  ;;; <@172,#378> smi-tag
0x177bccd6a157   663  448bc7         movl r8,rdi
0x177bccd6a15a   666  49c1e020       REX.W shlq r8,32
                  ;;; <@174,#152> store-global-cell
0x177bccd6a15e   670  49bae8046125ac0f0000 REX.W movq r10,0xfac256104e8    ;; property cell
0x177bccd6a168   680  4d8902         REX.W movq [r10],r8
                  ;;; <@176,#377> smi-tag
0x177bccd6a16b   683  8bfe           movl rdi,rsi
0x177bccd6a16d   685  48c1e720       REX.W shlq rdi,32
                  ;;; <@178,#155> store-named-field
0x177bccd6a171   689  4889791f       REX.W movq [rcx+0x1f],rdi
                  ;;; <@182,#141> -------------------- B11 (unreachable/replaced) --------------------
                  ;;; <@186,#159> -------------------- B12 (unreachable/replaced) --------------------
                  ;;; <@190,#162> -------------------- B13 --------------------
                  ;;; <@192,#164> load-named-field
0x177bccd6a175   693  488b791f       REX.W movq rdi,[rcx+0x1f]
                  ;;; <@193,#164> gap
0x177bccd6a179   697  4889bd60ffffff REX.W movq [rbp-0xa0],rdi
                  ;;; <@196,#168> -------------------- B14 --------------------
                  ;;; <@199,#171> cmp-map-and-branch
0x177bccd6a180   704  49bae939c1134f1b0000 REX.W movq r10,0x1b4f13c139e9    ;; object: 0x1b4f13c139e9 <Map(elements=3)>
0x177bccd6a18a   714  4c3953ff       REX.W cmpq [rbx-0x1],r10
0x177bccd6a18e   718  0f84b8000000   jz 908  (0x177bccd6a24c)
                  ;;; <@200,#180> -------------------- B15 --------------------
                  ;;; <@203,#181> cmp-map-and-branch
0x177bccd6a194   724  49ba513bc1134f1b0000 REX.W movq r10,0x1b4f13c13b51    ;; object: 0x1b4f13c13b51 <Map(elements=6)>
0x177bccd6a19e   734  4c3953ff       REX.W cmpq [rbx-0x1],r10
0x177bccd6a1a2   738  0f8486000000   jz 878  (0x177bccd6a22e)
                  ;;; <@204,#185> -------------------- B16 --------------------
                  ;;; <@207,#186> cmp-map-and-branch
0x177bccd6a1a8   744  49ba993bc1134f1b0000 REX.W movq r10,0x1b4f13c13b99    ;; object: 0x1b4f13c13b99 <Map(elements=3)>
0x177bccd6a1b2   754  4c3953ff       REX.W cmpq [rbx-0x1],r10
0x177bccd6a1b6   758  0f8535010000   jnz 1073  (0x177bccd6a2f1)
                  ;;; <@208,#187> -------------------- B17 --------------------
                  ;;; <@210,#188> load-named-field
0x177bccd6a1bc   764  488b4b0f       REX.W movq rcx,[rbx+0xf]
                  ;;; <@212,#189> check-maps
0x177bccd6a1c0   768  49ba2142c0134f1b0000 REX.W movq r10,0x1b4f13c04221    ;; object: 0x1b4f13c04221 <Map(elements=0)>
0x177bccd6a1ca   778  4c3951ff       REX.W cmpq [rcx-0x1],r10
0x177bccd6a1ce   782  0f85c2070000   jnz 2774  (0x177bccd6a996)
                  ;;; <@214,#190> load-named-field
0x177bccd6a1d4   788  8b710b         movl rsi,[rcx+0xb]
                  ;;; <@215,#190> gap
0x177bccd6a1d7   791  4c8bc7         REX.W movq r8,rdi
                  ;;; <@216,#379> tagged-to-i
0x177bccd6a1da   794  41f6c001       testb r8,0x1
0x177bccd6a1de   798  0f85e3050000   jnz 2311  (0x177bccd6a7c7)
0x177bccd6a1e4   804  49c1e820       REX.W shrq r8,32
                  ;;; <@218,#191> bounds-check
0x177bccd6a1e8   808  413bf0         cmpl rsi,r8
0x177bccd6a1eb   811  0f86aa070000   jna 2779  (0x177bccd6a99b)
                  ;;; <@220,#193> store-keyed
0x177bccd6a1f1   817  4a8954c10f     REX.W movq [rcx+r8*8+0xf],rdx
0x177bccd6a1f6   822  4e8d44c10f     REX.W leaq r8,[rcx+r8*8+0xf]
0x177bccd6a1fb   827  f6c201         testb rdx,0x1
0x177bccd6a1fe   830  0f8422000000   jz 870  (0x177bccd6a226)
0x177bccd6a204   836  4881e20000f0ff REX.W andq rdx,0xfffffffffff00000
0x177bccd6a20b   843  f6420804       testb [rdx+0x8],0x4
0x177bccd6a20f   847  7415           jz 870  (0x177bccd6a226)
0x177bccd6a211   849  48c7c20000f0ff REX.W movq rdx,0xfff00000
0x177bccd6a218   856  4823d1         REX.W andq rdx,rcx
0x177bccd6a21b   859  f6420808       testb [rdx+0x8],0x8
0x177bccd6a21f   863  7405           jz 870  (0x177bccd6a226)
0x177bccd6a221   865  e81af2ffff     call 0x177bccd69440     ;; code: STUB, RecordWriteStub, minor: 10273
                  ;;; <@222,#194> gap
0x177bccd6a226   870  488bc3         REX.W movq rax,rbx
                  ;;; <@223,#194> goto
0x177bccd6a229   873  e995000000     jmp 1027  (0x177bccd6a2c3)
                  ;;; <@224,#182> -------------------- B18 --------------------
                  ;;; <@225,#182> gap
0x177bccd6a22e   878  488b7598       REX.W movq rsi,[rbp-0x68]
0x177bccd6a232   882  4c8bc0         REX.W movq r8,rax
0x177bccd6a235   885  488bc2         REX.W movq rax,rdx
0x177bccd6a238   888  488bd3         REX.W movq rdx,rbx
0x177bccd6a23b   891  488bcf         REX.W movq rcx,rdi
                  ;;; <@226,#183> store-keyed-generic
0x177bccd6a23e   894  e8ddcbfcff     call KeyedStoreIC_Initialize  (0x177bccd36e20)    ;; code: KEYED_STORE_IC, UNINITIALIZED
                  ;;; <@228,#183> lazy-bailout
                  ;;; <@230,#184> gap
0x177bccd6a243   899  488b4588       REX.W movq rax,[rbp-0x78]
                  ;;; <@231,#184> goto
0x177bccd6a247   903  e977000000     jmp 1027  (0x177bccd6a2c3)
                  ;;; <@232,#172> -------------------- B19 --------------------
                  ;;; <@233,#172> gap
0x177bccd6a24c   908  488b4588       REX.W movq rax,[rbp-0x78]
                  ;;; <@234,#173> load-named-field
0x177bccd6a250   912  488b580f       REX.W movq rbx,[rax+0xf]
                  ;;; <@236,#174> check-maps
0x177bccd6a254   916  49ba2142c0134f1b0000 REX.W movq r10,0x1b4f13c04221    ;; object: 0x1b4f13c04221 <Map(elements=0)>
0x177bccd6a25e   926  4c3953ff       REX.W cmpq [rbx-0x1],r10
0x177bccd6a262   930  0f8538070000   jnz 2784  (0x177bccd6a9a0)
                  ;;; <@238,#175> load-named-field
0x177bccd6a268   936  8b530b         movl rdx,[rbx+0xb]
                  ;;; <@239,#175> gap
0x177bccd6a26b   939  488b8d60ffffff REX.W movq rcx,[rbp-0xa0]
                  ;;; <@240,#380> tagged-to-i
0x177bccd6a272   946  f6c101         testb rcx,0x1
0x177bccd6a275   949  0f8580050000   jnz 2363  (0x177bccd6a7fb)
0x177bccd6a27b   955  48c1e920       REX.W shrq rcx,32
                  ;;; <@242,#176> bounds-check
0x177bccd6a27f   959  3bd1           cmpl rdx,rcx
0x177bccd6a281   961  0f861e070000   jna 2789  (0x177bccd6a9a5)
                  ;;; <@243,#176> gap
0x177bccd6a287   967  488bd3         REX.W movq rdx,rbx
0x177bccd6a28a   970  488b5d90       REX.W movq rbx,[rbp-0x70]
                  ;;; <@244,#178> store-keyed
0x177bccd6a28e   974  48895cca0f     REX.W movq [rdx+rcx*8+0xf],rbx
0x177bccd6a293   979  488d4cca0f     REX.W leaq rcx,[rdx+rcx*8+0xf]
0x177bccd6a298   984  f6c301         testb rbx,0x1
0x177bccd6a29b   987  0f8422000000   jz 1027  (0x177bccd6a2c3)
0x177bccd6a2a1   993  4881e30000f0ff REX.W andq rbx,0xfffffffffff00000
0x177bccd6a2a8  1000  f6430804       testb [rbx+0x8],0x4
0x177bccd6a2ac  1004  7415           jz 1027  (0x177bccd6a2c3)
0x177bccd6a2ae  1006  48c7c30000f0ff REX.W movq rbx,0xfff00000
0x177bccd6a2b5  1013  4823da         REX.W andq rbx,rdx
0x177bccd6a2b8  1016  f6430808       testb [rbx+0x8],0x8
0x177bccd6a2bc  1020  7405           jz 1027  (0x177bccd6a2c3)
0x177bccd6a2be  1022  e85df4feff     call 0x177bccd59720     ;; code: STUB, RecordWriteStub, minor: 8498
                  ;;; <@248,#199> -------------------- B20 --------------------
                  ;;; <@249,#199> gap
0x177bccd6a2c3  1027  488b9d58ffffff REX.W movq rbx,[rbp-0xa8]
                  ;;; <@250,#202> add-i
0x177bccd6a2ca  1034  83c301         addl rbx,0x1            ;; debug: position 450
                  ;;; <@252,#205> gap
0x177bccd6a2cd  1037  4893           REX.W xchgq rax,rbx
0x177bccd6a2cf  1039  4c8bbd68ffffff REX.W movq r15,[rbp-0x98]
0x177bccd6a2d6  1046  4c8bb570ffffff REX.W movq r14,[rbp-0x90]
0x177bccd6a2dd  1053  4c8b9d78ffffff REX.W movq r11,[rbp-0x88]
0x177bccd6a2e4  1060  4c8b4d80       REX.W movq r9,[rbp-0x80]
0x177bccd6a2e8  1064  488b7da0       REX.W movq rdi,[rbp-0x60]
                  ;;; <@253,#205> goto
0x177bccd6a2ec  1068  e991fdffff     jmp 450  (0x177bccd6a082)
                  ;;; <@254,#195> -------------------- B21 --------------------
0x177bccd6a2f1  1073  4893           REX.W xchgq rax,rbx     ;; debug: position 192
                  ;;; <@257,#196> deoptimize
                  ;;; deoptimize: Unknown map in polymorphic element access
0x177bccd6a2f3  1075  e8dabdc9ff     call 0x177bcca060d2     ;; deoptimization bailout 21
                  ;;; <@258,#197> -------------------- B22 (unreachable/replaced) --------------------
                  ;;; <@260,#110> -------------------- B23 --------------------
0x177bccd6a2f8  1080  488bc3         REX.W movq rax,rbx      ;; debug: position 444
                  ;;; <@264,#206> -------------------- B24 --------------------
                  ;;; <@265,#206> gap
0x177bccd6a2fb  1083  488b7598       REX.W movq rsi,[rbp-0x68]    ;; debug: position 450
0x177bccd6a2ff  1087  488b9578ffffff REX.W movq rdx,[rbp-0x88]
                  ;;; <@266,#207> load-named-generic
0x177bccd6a306  1094  48b989f430fe38160000 REX.W movq rcx,0x1638fe30f489    ;; object: 0x1638fe30f489 <String[6]: length>
0x177bccd6a310  1104  e80b62fcff     call 0x177bccd30520     ;; code: LOAD_IC, UNINITIALIZED
                  ;;; <@268,#208> lazy-bailout
                  ;;; <@269,#208> gap
0x177bccd6a315  1109  488b7598       REX.W movq rsi,[rbp-0x68]
0x177bccd6a319  1113  488b9570ffffff REX.W movq rdx,[rbp-0x90]
                  ;;; <@270,#209> store-named-generic
0x177bccd6a320  1120  6690           nop
0x177bccd6a322  1122  48b989f430fe38160000 REX.W movq rcx,0x1638fe30f489    ;; object: 0x1638fe30f489 <String[6]: length>
0x177bccd6a32c  1132  e86f62fcff     call 0x177bccd305a0     ;; code: STORE_IC, UNINITIALIZED
                  ;;; <@272,#210> lazy-bailout
                  ;;; <@273,#210> gap
0x177bccd6a331  1137  488b7598       REX.W movq rsi,[rbp-0x68]
0x177bccd6a335  1141  488b9578ffffff REX.W movq rdx,[rbp-0x88]
                  ;;; <@274,#213> load-named-generic
0x177bccd6a33c  1148  6690           nop
0x177bccd6a33e  1150  48b989f430fe38160000 REX.W movq rcx,0x1638fe30f489    ;; object: 0x1638fe30f489 <String[6]: length>
0x177bccd6a348  1160  e8d361fcff     call 0x177bccd30520     ;; code: LOAD_IC, UNINITIALIZED
                  ;;; <@275,#213> gap
0x177bccd6a34d  1165  48898558ffffff REX.W movq [rbp-0xa8],rax
                  ;;; <@276,#214> lazy-bailout
                  ;;; <@277,#214> gap
0x177bccd6a354  1172  488bd8         REX.W movq rbx,rax
                  ;;; <@278,#381> tagged-to-i
0x177bccd6a357  1175  f6c301         testb rbx,0x1           ;; debug: position 650
0x177bccd6a35a  1178  0f85cc040000   jnz 2412  (0x177bccd6a82c)
0x177bccd6a360  1184  48c1eb20       REX.W shrq rbx,32
                  ;;; <@279,#381> gap
0x177bccd6a364  1188  48899d38ffffff REX.W movq [rbp-0xc8],rbx
0x177bccd6a36b  1195  488bbd78ffffff REX.W movq rdi,[rbp-0x88]
                  ;;; <@280,#244> check-non-smi
0x177bccd6a372  1202  40f6c701       testb rdi,0x1
0x177bccd6a376  1206  0f842e060000   jz 2794  (0x177bccd6a9aa)
                  ;;; <@281,#244> gap
0x177bccd6a37c  1212  4c8b4580       REX.W movq r8,[rbp-0x80]
                  ;;; <@282,#311> check-value
0x177bccd6a380  1216  49bae921c6f5cb0e0000 REX.W movq r10,0xecbf5c621e9    ;; debug: position 789
                                                             ;; object: 0xecbf5c621e9 <JS Function ident (SharedFunctionInfo 0xecbf5c61ca9)>
0x177bccd6a38a  1226  4d3bc2         REX.W cmpq r8,r10
0x177bccd6a38d  1229  0f851c060000   jnz 2799  (0x177bccd6a9af)
                  ;;; <@284,#229> gap
0x177bccd6a393  1235  4c8b9d70ffffff REX.W movq r11,[rbp-0x90]    ;; debug: position 450
0x177bccd6a39a  1242  4533c9         xorl r9,r9
                  ;;; <@286,#230> -------------------- B25 (loop header) --------------------
0x177bccd6a39d  1245  4c898d50ffffff REX.W movq [rbp-0xb0],r9    ;; debug: position 650
                  ;;; <@289,#233> compare-numeric-and-branch
0x177bccd6a3a4  1252  443bcb         cmpl r9,rbx
0x177bccd6a3a7  1255  0f8d61020000   jge 1870  (0x177bccd6a60e)
                  ;;; <@290,#234> -------------------- B26 (unreachable/replaced) --------------------
                  ;;; <@294,#240> -------------------- B27 --------------------
                  ;;; <@296,#242> stack-check
0x177bccd6a3ad  1261  493ba590070000 REX.W cmpq rsp,[r13+0x790]
0x177bccd6a3b4  1268  0f82a3040000   jc 2461  (0x177bccd6a85d)
                  ;;; <@298,#245> check-maps
0x177bccd6a3ba  1274  49bac9d5c0134f1b0000 REX.W movq r10,0x1b4f13c0d5c9    ;; object: 0x1b4f13c0d5c9 <Map(elements=2)>
0x177bccd6a3c4  1284  4c3957ff       REX.W cmpq [rdi-0x1],r10
0x177bccd6a3c8  1288  0f85e6050000   jnz 2804  (0x177bccd6a9b4)
                  ;;; <@300,#246> load-named-field
0x177bccd6a3ce  1294  488b570f       REX.W movq rdx,[rdi+0xf]
                  ;;; <@302,#247> load-named-field
0x177bccd6a3d2  1298  8b4f1b         movl rcx,[rdi+0x1b]
                  ;;; <@304,#248> bounds-check
0x177bccd6a3d5  1301  413bc9         cmpl rcx,r9
0x177bccd6a3d8  1304  0f86db050000   jna 2809  (0x177bccd6a9b9)
                  ;;; <@306,#249> load-keyed
0x177bccd6a3de  1310  4e8b74ca0f     REX.W movq r14,[rdx+r9*8+0xf]
                  ;;; <@307,#249> gap
0x177bccd6a3e3  1315  4c89b548ffffff REX.W movq [rbp-0xb8],r14
                  ;;; <@308,#265> check-non-smi
0x177bccd6a3ea  1322  41f6c601       testb r14,0x1
0x177bccd6a3ee  1326  0f84ca050000   jz 2814  (0x177bccd6a9be)
                  ;;; <@310,#266> check-maps
0x177bccd6a3f4  1332  49bac13ac1134f1b0000 REX.W movq r10,0x1b4f13c13ac1    ;; object: 0x1b4f13c13ac1 <Map(elements=3)>
0x177bccd6a3fe  1342  4d3956ff       REX.W cmpq [r14-0x1],r10
0x177bccd6a402  1346  0f8596040000   jnz 2526  (0x177bccd6a89e)
                  ;;; <@312,#267> load-named-field
0x177bccd6a408  1352  498b561f       REX.W movq rdx,[r14+0x1f]
                  ;;; <@315,#268> branch
0x177bccd6a40c  1356  493b55a8       REX.W cmpq rdx,[r13-0x58]
0x177bccd6a410  1360  0f8417000000   jz 1389  (0x177bccd6a42d)
0x177bccd6a416  1366  4885d2         REX.W testq rdx,rdx
0x177bccd6a419  1369  0f840e000000   jz 1389  (0x177bccd6a42d)
0x177bccd6a41f  1375  f6c201         testb rdx,0x1
0x177bccd6a422  1378  0f8448000000   jz 1456  (0x177bccd6a470)
0x177bccd6a428  1384  e809bdc9ff     call 0x177bcca06136     ;; deoptimization bailout 31
                  ;;; <@316,#272> -------------------- B28 (unreachable/replaced) --------------------
                  ;;; <@320,#275> -------------------- B29 --------------------
                  ;;; <@322,#276> load-global-cell
0x177bccd6a42d  1389  48bae8046125ac0f0000 REX.W movq rdx,0xfac256104e8    ;; debug: position 192
                                                             ;; property cell
0x177bccd6a437  1399  488b12         REX.W movq rdx,[rdx]
                  ;;; <@324,#383> tagged-to-i
0x177bccd6a43a  1402  f6c201         testb rdx,0x1
0x177bccd6a43d  1405  0f85a7040000   jnz 2602  (0x177bccd6a8ea)
0x177bccd6a443  1411  48c1ea20       REX.W shrq rdx,32
                  ;;; <@325,#383> gap
0x177bccd6a447  1415  488bca         REX.W movq rcx,rdx
                  ;;; <@326,#278> add-i
0x177bccd6a44a  1418  83c101         addl rcx,0x1
0x177bccd6a44d  1421  0f8070050000   jo 2819  (0x177bccd6a9c3)
                  ;;; <@328,#385> smi-tag
0x177bccd6a453  1427  8bf1           movl rsi,rcx
0x177bccd6a455  1429  48c1e620       REX.W shlq rsi,32
                  ;;; <@330,#279> store-global-cell
0x177bccd6a459  1433  49bae8046125ac0f0000 REX.W movq r10,0xfac256104e8    ;; property cell
0x177bccd6a463  1443  498932         REX.W movq [r10],rsi
                  ;;; <@332,#384> smi-tag
0x177bccd6a466  1446  8bca           movl rcx,rdx
0x177bccd6a468  1448  48c1e120       REX.W shlq rcx,32
                  ;;; <@334,#283> store-named-field
0x177bccd6a46c  1452  49894e1f       REX.W movq [r14+0x1f],rcx
                  ;;; <@338,#269> -------------------- B30 (unreachable/replaced) --------------------
                  ;;; <@342,#287> -------------------- B31 (unreachable/replaced) --------------------
                  ;;; <@346,#290> -------------------- B32 --------------------
                  ;;; <@348,#293> load-named-field
0x177bccd6a470  1456  4d8b7e1f       REX.W movq r15,[r14+0x1f]
                  ;;; <@349,#293> gap
0x177bccd6a474  1460  4c89bd40ffffff REX.W movq [rbp-0xc0],r15
                  ;;; <@352,#297> -------------------- B33 --------------------
                  ;;; <@353,#297> gap
0x177bccd6a47b  1467  488b7598       REX.W movq rsi,[rbp-0x68]
0x177bccd6a47f  1471  488b5588       REX.W movq rdx,[rbp-0x78]
0x177bccd6a483  1475  498bcf         REX.W movq rcx,r15
                  ;;; <@354,#301> load-keyed-generic
0x177bccd6a486  1478  e8d5a3fcff     call KeyedLoadIC_Initialize  (0x177bccd34860)    ;; debug: position 789
                                                             ;; code: KEYED_LOAD_IC, UNINITIALIZED
                  ;;; <@356,#302> lazy-bailout
                  ;;; <@359,#303> cmp-object-eq-and-branch
0x177bccd6a48b  1483  49ba2141c0f5cb0e0000 REX.W movq r10,0xecbf5c04121    ;; object: 0xecbf5c04121 <undefined>
0x177bccd6a495  1493  493bc2         REX.W cmpq rax,r10
0x177bccd6a498  1496  0f8405000000   jz 1507  (0x177bccd6a4a3)
                  ;;; <@360,#307> -------------------- B34 (unreachable/replaced) --------------------
                  ;;; <@364,#325> -------------------- B35 --------------------
                  ;;; <@367,#328> deoptimize
                  ;;; deoptimize: Insufficient type feedback for keyed load
0x177bccd6a49e  1502  e8b1bce9ff     call 0x177bccc06154     ;; soft deoptimization bailout 34
                  ;;; <@368,#329> -------------------- B36 (unreachable/replaced) --------------------
                  ;;; <@378,#304> -------------------- B37 (unreachable/replaced) --------------------
                  ;;; <@382,#310> -------------------- B38 --------------------
                  ;;; <@384,#314> push-argument
0x177bccd6a4a3  1507  49ba2103c6f5cb0e0000 REX.W movq r10,0xecbf5c60321    ;; object: 0xecbf5c60321 <JS Global Object>
0x177bccd6a4ad  1517  4152           push r10
                  ;;; <@386,#314> push-argument
0x177bccd6a4af  1519  ffb548ffffff   push [rbp-0xb8]
                  ;;; <@387,#314> gap
0x177bccd6a4b5  1525  488b7598       REX.W movq rsi,[rbp-0x68]
0x177bccd6a4b9  1529  488b7d80       REX.W movq rdi,[rbp-0x80]
                  ;;; <@388,#315> invoke-function
0x177bccd6a4bd  1533  488b772f       REX.W movq rsi,[rdi+0x2f]
0x177bccd6a4c1  1537  ff5717         call [rdi+0x17]
                  ;;; <@390,#316> lazy-bailout
                  ;;; <@392,#320> check-non-smi
0x177bccd6a4c4  1540  a801           test al,0x1
0x177bccd6a4c6  1542  0f84fc040000   jz 2824  (0x177bccd6a9c8)
                  ;;; <@394,#321> check-maps
0x177bccd6a4cc  1548  49bac13ac1134f1b0000 REX.W movq r10,0x1b4f13c13ac1    ;; object: 0x1b4f13c13ac1 <Map(elements=3)>
0x177bccd6a4d6  1558  4c3950ff       REX.W cmpq [rax-0x1],r10
0x177bccd6a4da  1562  0f8548040000   jnz 2664  (0x177bccd6a928)
                  ;;; <@395,#321> gap
0x177bccd6a4e0  1568  488b9d48ffffff REX.W movq rbx,[rbp-0xb8]
                  ;;; <@396,#323> store-named-field
0x177bccd6a4e7  1575  48895827       REX.W movq [rax+0x27],rbx
0x177bccd6a4eb  1579  488d5027       REX.W leaq rdx,[rax+0x27]
0x177bccd6a4ef  1583  4881e30000f0ff REX.W andq rbx,0xfffffffffff00000
0x177bccd6a4f6  1590  f6430804       testb [rbx+0x8],0x4
0x177bccd6a4fa  1594  7415           jz 1617  (0x177bccd6a511)
0x177bccd6a4fc  1596  48c7c30000f0ff REX.W movq rbx,0xfff00000
0x177bccd6a503  1603  4823d8         REX.W andq rbx,rax
0x177bccd6a506  1606  f6430808       testb [rbx+0x8],0x8
0x177bccd6a50a  1610  7405           jz 1617  (0x177bccd6a511)
0x177bccd6a50c  1612  e84f96ffff     call 0x177bccd63b60     ;; code: STUB, RecordWriteStub, minor: 8752
                  ;;; <@398,#334> gap
0x177bccd6a511  1617  488bd8         REX.W movq rbx,rax
                  ;;; <@400,#338> -------------------- B39 --------------------
0x177bccd6a514  1620  48899d30ffffff REX.W movq [rbp-0xd0],rbx
                  ;;; <@402,#342> gap
0x177bccd6a51b  1627  488bbd70ffffff REX.W movq rdi,[rbp-0x90]
                  ;;; <@403,#342> cmp-map-and-branch
0x177bccd6a522  1634  49ba313ac1134f1b0000 REX.W movq r10,0x1b4f13c13a31    ;; object: 0x1b4f13c13a31 <Map(elements=6)>
0x177bccd6a52c  1644  4c3957ff       REX.W cmpq [rdi-0x1],r10
0x177bccd6a530  1648  0f847f000000   jz 1781  (0x177bccd6a5b5)
                  ;;; <@404,#346> -------------------- B40 --------------------
                  ;;; <@407,#347> cmp-map-and-branch
0x177bccd6a536  1654  49ba093bc1134f1b0000 REX.W movq r10,0x1b4f13c13b09    ;; object: 0x1b4f13c13b09 <Map(elements=3)>
0x177bccd6a540  1664  4c3957ff       REX.W cmpq [rdi-0x1],r10
0x177bccd6a544  1668  0f85b8000000   jnz 1858  (0x177bccd6a602)
                  ;;; <@408,#348> -------------------- B41 --------------------
                  ;;; <@410,#349> load-named-field
0x177bccd6a54a  1674  488b470f       REX.W movq rax,[rdi+0xf]
                  ;;; <@412,#350> check-maps
0x177bccd6a54e  1678  49ba2142c0134f1b0000 REX.W movq r10,0x1b4f13c04221    ;; object: 0x1b4f13c04221 <Map(elements=0)>
0x177bccd6a558  1688  4c3950ff       REX.W cmpq [rax-0x1],r10
0x177bccd6a55c  1692  0f856b040000   jnz 2829  (0x177bccd6a9cd)
                  ;;; <@414,#351> load-named-field
0x177bccd6a562  1698  8b571b         movl rdx,[rdi+0x1b]
                  ;;; <@415,#351> gap
0x177bccd6a565  1701  4c8b8550ffffff REX.W movq r8,[rbp-0xb0]
                  ;;; <@416,#352> bounds-check
0x177bccd6a56c  1708  413bd0         cmpl rdx,r8
0x177bccd6a56f  1711  0f865d040000   jna 2834  (0x177bccd6a9d2)
                  ;;; <@417,#352> gap
0x177bccd6a575  1717  488bd0         REX.W movq rdx,rax
0x177bccd6a578  1720  498bc0         REX.W movq rax,r8
                  ;;; <@418,#354> store-keyed
0x177bccd6a57b  1723  48895cc20f     REX.W movq [rdx+rax*8+0xf],rbx
0x177bccd6a580  1728  488d44c20f     REX.W leaq rax,[rdx+rax*8+0xf]
0x177bccd6a585  1733  f6c301         testb rbx,0x1
0x177bccd6a588  1736  0f8422000000   jz 1776  (0x177bccd6a5b0)
0x177bccd6a58e  1742  4881e30000f0ff REX.W andq rbx,0xfffffffffff00000
0x177bccd6a595  1749  f6430804       testb [rbx+0x8],0x4
0x177bccd6a599  1753  7415           jz 1776  (0x177bccd6a5b0)
0x177bccd6a59b  1755  48c7c30000f0ff REX.W movq rbx,0xfff00000
0x177bccd6a5a2  1762  4823da         REX.W andq rbx,rdx
0x177bccd6a5a5  1765  f6430808       testb [rbx+0x8],0x8
0x177bccd6a5a9  1769  7405           jz 1776  (0x177bccd6a5b0)
0x177bccd6a5ab  1771  e810a0ffff     call 0x177bccd645c0     ;; code: STUB, RecordWriteStub, minor: 8242
                  ;;; <@421,#355> goto
0x177bccd6a5b0  1776  e91d000000     jmp 1810  (0x177bccd6a5d2)
                  ;;; <@422,#343> -------------------- B42 --------------------
0x177bccd6a5b5  1781  4c8b8550ffffff REX.W movq r8,[rbp-0xb0]
                  ;;; <@424,#382> smi-tag
0x177bccd6a5bc  1788  418bc8         movl rcx,r8
0x177bccd6a5bf  1791  48c1e120       REX.W shlq rcx,32
                  ;;; <@425,#382> gap
0x177bccd6a5c3  1795  488b7598       REX.W movq rsi,[rbp-0x68]
0x177bccd6a5c7  1799  488bd7         REX.W movq rdx,rdi
0x177bccd6a5ca  1802  488bc3         REX.W movq rax,rbx
                  ;;; <@426,#344> store-keyed-generic
0x177bccd6a5cd  1805  e84ec8fcff     call KeyedStoreIC_Initialize  (0x177bccd36e20)    ;; code: KEYED_STORE_IC, UNINITIALIZED
                  ;;; <@428,#344> lazy-bailout
                  ;;; <@432,#360> -------------------- B43 --------------------
                  ;;; <@433,#360> gap
0x177bccd6a5d2  1810  488b8550ffffff REX.W movq rax,[rbp-0xb0]
                  ;;; <@434,#363> add-i
0x177bccd6a5d9  1817  448d4801       leal r9,[rax+0x1]       ;; debug: position 656
                  ;;; <@436,#366> gap
0x177bccd6a5dd  1821  4c8b9d70ffffff REX.W movq r11,[rbp-0x90]
0x177bccd6a5e4  1828  488bbd78ffffff REX.W movq rdi,[rbp-0x88]
0x177bccd6a5eb  1835  4c8b4580       REX.W movq r8,[rbp-0x80]
0x177bccd6a5ef  1839  488b8558ffffff REX.W movq rax,[rbp-0xa8]
0x177bccd6a5f6  1846  488b9d38ffffff REX.W movq rbx,[rbp-0xc8]
                  ;;; <@437,#366> goto
0x177bccd6a5fd  1853  e99bfdffff     jmp 1245  (0x177bccd6a39d)
                  ;;; <@438,#356> -------------------- B44 --------------------
0x177bccd6a602  1858  488b8550ffffff REX.W movq rax,[rbp-0xb0]    ;; debug: position 789
                  ;;; <@441,#357> deoptimize
                  ;;; deoptimize: Unknown map in polymorphic element access
0x177bccd6a609  1865  e882bbc9ff     call 0x177bcca06190     ;; deoptimization bailout 40
                  ;;; <@442,#358> -------------------- B45 (unreachable/replaced) --------------------
                  ;;; <@444,#237> -------------------- B46 (unreachable/replaced) --------------------
                  ;;; <@448,#367> -------------------- B47 --------------------
                  ;;; <@450,#7> constant-t
0x177bccd6a60e  1870  48b82141c0f5cb0e0000 REX.W movq rax,0xecbf5c04121    ;; debug: position 656
                                                             ;; object: 0xecbf5c04121 <undefined>
                  ;;; <@452,#369> return
0x177bccd6a618  1880  488be5         REX.W movq rsp,rbp
0x177bccd6a61b  1883  5d             pop rbp
0x177bccd6a61c  1884  c22000         ret 0x20
                  ;;; <@106,#374> -------------------- Deferred tagged-to-i --------------------
0x177bccd6a61f  1887  4d8b5500       REX.W movq r10,[r13+0x0]
0x177bccd6a623  1891  4c3950ff       REX.W cmpq [rax-0x1],r10
0x177bccd6a627  1895  751d           jnz 1926  (0x177bccd6a646)
0x177bccd6a629  1897  f20f104007     movsd xmm0,[rax+0x7]
0x177bccd6a62e  1902  f20f2cc0       cvttsd2sil rax,xmm0
0x177bccd6a632  1906  0f57c9         xorps xmm1,xmm1
0x177bccd6a635  1909  f20f2ac8       cvtsi2sd xmm1,rax
0x177bccd6a639  1913  660f2ec1       ucomisd xmm0,xmm1
                  Deferred TaggedToI: lost precision
0x177bccd6a63d  1917  7507           jnz 1926  (0x177bccd6a646)
                  Deferred TaggedToI: NaN
0x177bccd6a63f  1919  7a05           jpe 1926  (0x177bccd6a646)
0x177bccd6a641  1921  e9a7f9ffff     jmp 301  (0x177bccd69fed)
0x177bccd6a646  1926  e84fbbc9ff     call 0x177bcca0619a     ;; deoptimization bailout 41
0x177bccd6a64b  1931  e99df9ffff     jmp 301  (0x177bccd69fed)
                  ;;; <@108,#375> -------------------- Deferred tagged-to-i --------------------
0x177bccd6a650  1936  4d8b5500       REX.W movq r10,[r13+0x0]
0x177bccd6a654  1940  4c3953ff       REX.W cmpq [rbx-0x1],r10
0x177bccd6a658  1944  751d           jnz 1975  (0x177bccd6a677)
0x177bccd6a65a  1946  f20f104307     movsd xmm0,[rbx+0x7]
0x177bccd6a65f  1951  f20f2cd8       cvttsd2sil rbx,xmm0
0x177bccd6a663  1955  0f57c9         xorps xmm1,xmm1
0x177bccd6a666  1958  f20f2acb       cvtsi2sd xmm1,rbx
0x177bccd6a66a  1962  660f2ec1       ucomisd xmm0,xmm1
                  Deferred TaggedToI: lost precision
0x177bccd6a66e  1966  7507           jnz 1975  (0x177bccd6a677)
                  Deferred TaggedToI: NaN
0x177bccd6a670  1968  7a05           jpe 1975  (0x177bccd6a677)
0x177bccd6a672  1970  e987f9ffff     jmp 318  (0x177bccd69ffe)
0x177bccd6a677  1975  e828bbc9ff     call 0x177bcca061a4     ;; deoptimization bailout 42
0x177bccd6a67c  1980  e97df9ffff     jmp 318  (0x177bccd69ffe)
                  ;;; <@114,#373> -------------------- Deferred tagged-to-i --------------------
0x177bccd6a681  1985  4d8b5500       REX.W movq r10,[r13+0x0]
0x177bccd6a685  1989  4c3953ff       REX.W cmpq [rbx-0x1],r10
0x177bccd6a689  1993  751d           jnz 2024  (0x177bccd6a6a8)
0x177bccd6a68b  1995  f20f104307     movsd xmm0,[rbx+0x7]
0x177bccd6a690  2000  f20f2cd8       cvttsd2sil rbx,xmm0
0x177bccd6a694  2004  0f57c9         xorps xmm1,xmm1
0x177bccd6a697  2007  f20f2acb       cvtsi2sd xmm1,rbx
0x177bccd6a69b  2011  660f2ec1       ucomisd xmm0,xmm1
                  Deferred TaggedToI: lost precision
0x177bccd6a69f  2015  7507           jnz 2024  (0x177bccd6a6a8)
                  Deferred TaggedToI: NaN
0x177bccd6a6a1  2017  7a05           jpe 2024  (0x177bccd6a6a8)
0x177bccd6a6a3  2019  e985f9ffff     jmp 365  (0x177bccd6a02d)
0x177bccd6a6a8  2024  e801bbc9ff     call 0x177bcca061ae     ;; deoptimization bailout 43
0x177bccd6a6ad  2029  e97bf9ffff     jmp 365  (0x177bccd6a02d)
                  ;;; <@136,#115> -------------------- Deferred stack-check --------------------
0x177bccd6a6b2  2034  50             push rax                ;; debug: position 444
0x177bccd6a6b3  2035  51             push rcx
0x177bccd6a6b4  2036  52             push rdx
0x177bccd6a6b5  2037  53             push rbx
0x177bccd6a6b6  2038  56             push rsi
0x177bccd6a6b7  2039  57             push rdi
0x177bccd6a6b8  2040  4150           push r8
0x177bccd6a6ba  2042  4151           push r9
0x177bccd6a6bc  2044  4153           push r11
0x177bccd6a6be  2046  4156           push r14
0x177bccd6a6c0  2048  4157           push r15
0x177bccd6a6c2  2050  488d6424d8     REX.W leaq rsp,[rsp-0x28]
0x177bccd6a6c7  2055  488b75f8       REX.W movq rsi,[rbp-0x8]
0x177bccd6a6cb  2059  33c0           xorl rax,rax
0x177bccd6a6cd  2061  498d9d58bce4fd REX.W leaq rbx,[r13-0x21b43a8]
0x177bccd6a6d4  2068  e8c7bbf9ff     call 0x177bccd062a0     ;; code: STUB, CEntryStub, minor: 1
0x177bccd6a6d9  2073  488d642428     REX.W leaq rsp,[rsp+0x28]
0x177bccd6a6de  2078  415f           pop r15
0x177bccd6a6e0  2080  415e           pop r14
0x177bccd6a6e2  2082  415b           pop r11
0x177bccd6a6e4  2084  4159           pop r9
0x177bccd6a6e6  2086  4158           pop r8
0x177bccd6a6e8  2088  5f             pop rdi
0x177bccd6a6e9  2089  5e             pop rsi
0x177bccd6a6ea  2090  5b             pop rbx
0x177bccd6a6eb  2091  5a             pop rdx
0x177bccd6a6ec  2092  59             pop rcx
0x177bccd6a6ed  2093  58             pop rax
0x177bccd6a6ee  2094  e9abf9ffff     jmp 478  (0x177bccd6a09e)
                  ;;; <@150,#126> -------------------- Deferred check-maps --------------------
0x177bccd6a6f3  2099  50             push rax
0x177bccd6a6f4  2100  51             push rcx
0x177bccd6a6f5  2101  52             push rdx
0x177bccd6a6f6  2102  53             push rbx
0x177bccd6a6f7  2103  56             push rsi
0x177bccd6a6f8  2104  57             push rdi
0x177bccd6a6f9  2105  4150           push r8
0x177bccd6a6fb  2107  4151           push r9
0x177bccd6a6fd  2109  4153           push r11
0x177bccd6a6ff  2111  4156           push r14
0x177bccd6a701  2113  4157           push r15
0x177bccd6a703  2115  488d6424d8     REX.W leaq rsp,[rsp-0x28]
0x177bccd6a708  2120  52             push rdx
0x177bccd6a709  2121  33f6           xorl rsi,rsi
0x177bccd6a70b  2123  b801000000     movl rax,0x1
0x177bccd6a710  2128  498d9d482ae6fd REX.W leaq rbx,[r13-0x219d5b8]
0x177bccd6a717  2135  e884bbf9ff     call 0x177bccd062a0     ;; code: STUB, CEntryStub, minor: 1
0x177bccd6a71c  2140  a801           test al,0x1
0x177bccd6a71e  2142  488d642428     REX.W leaq rsp,[rsp+0x28]
0x177bccd6a723  2147  415f           pop r15
0x177bccd6a725  2149  415e           pop r14
0x177bccd6a727  2151  415b           pop r11
0x177bccd6a729  2153  4159           pop r9
0x177bccd6a72b  2155  4158           pop r8
0x177bccd6a72d  2157  5f             pop rdi
0x177bccd6a72e  2158  5e             pop rsi
0x177bccd6a72f  2159  5b             pop rbx
0x177bccd6a730  2160  5a             pop rdx
0x177bccd6a731  2161  59             pop rcx
0x177bccd6a732  2162  58             pop rax
0x177bccd6a733  2163  0f849e020000   jz 2839  (0x177bccd6a9d7)
0x177bccd6a739  2169  e9a0f9ffff     jmp 542  (0x177bccd6a0de)
                  ;;; <@154,#138> -------------------- Deferred check-maps --------------------
0x177bccd6a73e  2174  50             push rax
0x177bccd6a73f  2175  51             push rcx
0x177bccd6a740  2176  52             push rdx
0x177bccd6a741  2177  53             push rbx
0x177bccd6a742  2178  56             push rsi
0x177bccd6a743  2179  57             push rdi
0x177bccd6a744  2180  4150           push r8
0x177bccd6a746  2182  4151           push r9
0x177bccd6a748  2184  4153           push r11
0x177bccd6a74a  2186  4156           push r14
0x177bccd6a74c  2188  4157           push r15
0x177bccd6a74e  2190  488d6424d8     REX.W leaq rsp,[rsp-0x28]
0x177bccd6a753  2195  51             push rcx
0x177bccd6a754  2196  33f6           xorl rsi,rsi
0x177bccd6a756  2198  b801000000     movl rax,0x1
0x177bccd6a75b  2203  498d9d482ae6fd REX.W leaq rbx,[r13-0x219d5b8]
0x177bccd6a762  2210  e839bbf9ff     call 0x177bccd062a0     ;; code: STUB, CEntryStub, minor: 1
0x177bccd6a767  2215  a801           test al,0x1
0x177bccd6a769  2217  488d642428     REX.W leaq rsp,[rsp+0x28]
0x177bccd6a76e  2222  415f           pop r15
0x177bccd6a770  2224  415e           pop r14
0x177bccd6a772  2226  415b           pop r11
0x177bccd6a774  2228  4159           pop r9
0x177bccd6a776  2230  4158           pop r8
0x177bccd6a778  2232  5f             pop rdi
0x177bccd6a779  2233  5e             pop rsi
0x177bccd6a77a  2234  5b             pop rbx
0x177bccd6a77b  2235  5a             pop rdx
0x177bccd6a77c  2236  59             pop rcx
0x177bccd6a77d  2237  58             pop rax
0x177bccd6a77e  2238  0f8458020000   jz 2844  (0x177bccd6a9dc)
0x177bccd6a784  2244  e96df9ffff     jmp 566  (0x177bccd6a0f6)
                  ;;; <@168,#376> -------------------- Deferred tagged-to-i --------------------
0x177bccd6a789  2249  4d8b5500       REX.W movq r10,[r13+0x0]    ;; debug: position 192
0x177bccd6a78d  2253  4c3956ff       REX.W cmpq [rsi-0x1],r10
0x177bccd6a791  2257  752a           jnz 2301  (0x177bccd6a7bd)
0x177bccd6a793  2259  f20f104607     movsd xmm0,[rsi+0x7]
0x177bccd6a798  2264  f20f2cf0       cvttsd2sil rsi,xmm0
0x177bccd6a79c  2268  0f57c9         xorps xmm1,xmm1
0x177bccd6a79f  2271  f20f2ace       cvtsi2sd xmm1,rsi
0x177bccd6a7a3  2275  660f2ec1       ucomisd xmm0,xmm1
                  Deferred TaggedToI: lost precision
0x177bccd6a7a7  2279  7514           jnz 2301  (0x177bccd6a7bd)
                  Deferred TaggedToI: NaN
0x177bccd6a7a9  2281  7a12           jpe 2301  (0x177bccd6a7bd)
0x177bccd6a7ab  2283  85f6           testl rsi,rsi
0x177bccd6a7ad  2285  7509           jnz 2296  (0x177bccd6a7b8)
0x177bccd6a7af  2287  660f50f0       movmskpd rsi,xmm0
0x177bccd6a7b3  2291  83e601         andl rsi,0x1
0x177bccd6a7b6  2294  7505           jnz 2301  (0x177bccd6a7bd)
0x177bccd6a7b8  2296  e98ef9ffff     jmp 651  (0x177bccd6a14b)
0x177bccd6a7bd  2301  e80abac9ff     call 0x177bcca061cc     ;; deoptimization bailout 46
0x177bccd6a7c2  2306  e984f9ffff     jmp 651  (0x177bccd6a14b)
                  ;;; <@216,#379> -------------------- Deferred tagged-to-i --------------------
0x177bccd6a7c7  2311  4d8b5500       REX.W movq r10,[r13+0x0]
0x177bccd6a7cb  2315  4d3950ff       REX.W cmpq [r8-0x1],r10
0x177bccd6a7cf  2319  7520           jnz 2353  (0x177bccd6a7f1)
0x177bccd6a7d1  2321  f2410f104007   movsd xmm0,[r8+0x7]
0x177bccd6a7d7  2327  f2440f2cc0     cvttsd2sil r8,xmm0
0x177bccd6a7dc  2332  0f57c9         xorps xmm1,xmm1
0x177bccd6a7df  2335  f2410f2ac8     cvtsi2sd xmm1,r8
0x177bccd6a7e4  2340  660f2ec1       ucomisd xmm0,xmm1
                  Deferred TaggedToI: lost precision
0x177bccd6a7e8  2344  7507           jnz 2353  (0x177bccd6a7f1)
                  Deferred TaggedToI: NaN
0x177bccd6a7ea  2346  7a05           jpe 2353  (0x177bccd6a7f1)
0x177bccd6a7ec  2348  e9f7f9ffff     jmp 808  (0x177bccd6a1e8)
0x177bccd6a7f1  2353  e8e0b9c9ff     call 0x177bcca061d6     ;; deoptimization bailout 47
0x177bccd6a7f6  2358  e9edf9ffff     jmp 808  (0x177bccd6a1e8)
                  ;;; <@240,#380> -------------------- Deferred tagged-to-i --------------------
0x177bccd6a7fb  2363  4d8b5500       REX.W movq r10,[r13+0x0]
0x177bccd6a7ff  2367  4c3951ff       REX.W cmpq [rcx-0x1],r10
0x177bccd6a803  2371  751d           jnz 2402  (0x177bccd6a822)
0x177bccd6a805  2373  f20f104107     movsd xmm0,[rcx+0x7]
0x177bccd6a80a  2378  f20f2cc8       cvttsd2sil rcx,xmm0
0x177bccd6a80e  2382  0f57c9         xorps xmm1,xmm1
0x177bccd6a811  2385  f20f2ac9       cvtsi2sd xmm1,rcx
0x177bccd6a815  2389  660f2ec1       ucomisd xmm0,xmm1
                  Deferred TaggedToI: lost precision
0x177bccd6a819  2393  7507           jnz 2402  (0x177bccd6a822)
                  Deferred TaggedToI: NaN
0x177bccd6a81b  2395  7a05           jpe 2402  (0x177bccd6a822)
0x177bccd6a81d  2397  e95dfaffff     jmp 959  (0x177bccd6a27f)
0x177bccd6a822  2402  e8b9b9c9ff     call 0x177bcca061e0     ;; deoptimization bailout 48
0x177bccd6a827  2407  e953faffff     jmp 959  (0x177bccd6a27f)
                  ;;; <@278,#381> -------------------- Deferred tagged-to-i --------------------
0x177bccd6a82c  2412  4d8b5500       REX.W movq r10,[r13+0x0]    ;; debug: position 650
0x177bccd6a830  2416  4c3953ff       REX.W cmpq [rbx-0x1],r10
0x177bccd6a834  2420  751d           jnz 2451  (0x177bccd6a853)
0x177bccd6a836  2422  f20f104307     movsd xmm0,[rbx+0x7]
0x177bccd6a83b  2427  f20f2cd8       cvttsd2sil rbx,xmm0
0x177bccd6a83f  2431  0f57c9         xorps xmm1,xmm1
0x177bccd6a842  2434  f20f2acb       cvtsi2sd xmm1,rbx
0x177bccd6a846  2438  660f2ec1       ucomisd xmm0,xmm1
                  Deferred TaggedToI: lost precision
0x177bccd6a84a  2442  7507           jnz 2451  (0x177bccd6a853)
                  Deferred TaggedToI: NaN
0x177bccd6a84c  2444  7a05           jpe 2451  (0x177bccd6a853)
0x177bccd6a84e  2446  e911fbffff     jmp 1188  (0x177bccd6a364)
0x177bccd6a853  2451  e892b9c9ff     call 0x177bcca061ea     ;; deoptimization bailout 49
0x177bccd6a858  2456  e907fbffff     jmp 1188  (0x177bccd6a364)
                  ;;; <@296,#242> -------------------- Deferred stack-check --------------------
0x177bccd6a85d  2461  50             push rax
0x177bccd6a85e  2462  51             push rcx
0x177bccd6a85f  2463  52             push rdx
0x177bccd6a860  2464  53             push rbx
0x177bccd6a861  2465  56             push rsi
0x177bccd6a862  2466  57             push rdi
0x177bccd6a863  2467  4150           push r8
0x177bccd6a865  2469  4151           push r9
0x177bccd6a867  2471  4153           push r11
0x177bccd6a869  2473  4156           push r14
0x177bccd6a86b  2475  4157           push r15
0x177bccd6a86d  2477  488d6424d8     REX.W leaq rsp,[rsp-0x28]
0x177bccd6a872  2482  488b75f8       REX.W movq rsi,[rbp-0x8]
0x177bccd6a876  2486  33c0           xorl rax,rax
0x177bccd6a878  2488  498d9d58bce4fd REX.W leaq rbx,[r13-0x21b43a8]
0x177bccd6a87f  2495  e81cbaf9ff     call 0x177bccd062a0     ;; code: STUB, CEntryStub, minor: 1
0x177bccd6a884  2500  488d642428     REX.W leaq rsp,[rsp+0x28]
0x177bccd6a889  2505  415f           pop r15
0x177bccd6a88b  2507  415e           pop r14
0x177bccd6a88d  2509  415b           pop r11
0x177bccd6a88f  2511  4159           pop r9
0x177bccd6a891  2513  4158           pop r8
0x177bccd6a893  2515  5f             pop rdi
0x177bccd6a894  2516  5e             pop rsi
0x177bccd6a895  2517  5b             pop rbx
0x177bccd6a896  2518  5a             pop rdx
0x177bccd6a897  2519  59             pop rcx
0x177bccd6a898  2520  58             pop rax
0x177bccd6a899  2521  e91cfbffff     jmp 1274  (0x177bccd6a3ba)
                  ;;; <@310,#266> -------------------- Deferred check-maps --------------------
0x177bccd6a89e  2526  50             push rax
0x177bccd6a89f  2527  51             push rcx
0x177bccd6a8a0  2528  52             push rdx
0x177bccd6a8a1  2529  53             push rbx
0x177bccd6a8a2  2530  56             push rsi
0x177bccd6a8a3  2531  57             push rdi
0x177bccd6a8a4  2532  4150           push r8
0x177bccd6a8a6  2534  4151           push r9
0x177bccd6a8a8  2536  4153           push r11
0x177bccd6a8aa  2538  4156           push r14
0x177bccd6a8ac  2540  4157           push r15
0x177bccd6a8ae  2542  488d6424d8     REX.W leaq rsp,[rsp-0x28]
0x177bccd6a8b3  2547  4156           push r14
0x177bccd6a8b5  2549  33f6           xorl rsi,rsi
0x177bccd6a8b7  2551  b801000000     movl rax,0x1
0x177bccd6a8bc  2556  498d9d482ae6fd REX.W leaq rbx,[r13-0x219d5b8]
0x177bccd6a8c3  2563  e8d8b9f9ff     call 0x177bccd062a0     ;; code: STUB, CEntryStub, minor: 1
0x177bccd6a8c8  2568  a801           test al,0x1
0x177bccd6a8ca  2570  488d642428     REX.W leaq rsp,[rsp+0x28]
0x177bccd6a8cf  2575  415f           pop r15
0x177bccd6a8d1  2577  415e           pop r14
0x177bccd6a8d3  2579  415b           pop r11
0x177bccd6a8d5  2581  4159           pop r9
0x177bccd6a8d7  2583  4158           pop r8
0x177bccd6a8d9  2585  5f             pop rdi
0x177bccd6a8da  2586  5e             pop rsi
0x177bccd6a8db  2587  5b             pop rbx
0x177bccd6a8dc  2588  5a             pop rdx
0x177bccd6a8dd  2589  59             pop rcx
0x177bccd6a8de  2590  58             pop rax
0x177bccd6a8df  2591  0f84fc000000   jz 2849  (0x177bccd6a9e1)
0x177bccd6a8e5  2597  e90afbffff     jmp 1332  (0x177bccd6a3f4)
                  ;;; <@324,#383> -------------------- Deferred tagged-to-i --------------------
0x177bccd6a8ea  2602  4d8b5500       REX.W movq r10,[r13+0x0]    ;; debug: position 192
0x177bccd6a8ee  2606  4c3952ff       REX.W cmpq [rdx-0x1],r10
0x177bccd6a8f2  2610  752a           jnz 2654  (0x177bccd6a91e)
0x177bccd6a8f4  2612  f20f104207     movsd xmm0,[rdx+0x7]
0x177bccd6a8f9  2617  f20f2cd0       cvttsd2sil rdx,xmm0
0x177bccd6a8fd  2621  0f57c9         xorps xmm1,xmm1
0x177bccd6a900  2624  f20f2aca       cvtsi2sd xmm1,rdx
0x177bccd6a904  2628  660f2ec1       ucomisd xmm0,xmm1
                  Deferred TaggedToI: lost precision
0x177bccd6a908  2632  7514           jnz 2654  (0x177bccd6a91e)
                  Deferred TaggedToI: NaN
0x177bccd6a90a  2634  7a12           jpe 2654  (0x177bccd6a91e)
0x177bccd6a90c  2636  85d2           testl rdx,rdx
0x177bccd6a90e  2638  7509           jnz 2649  (0x177bccd6a919)
0x177bccd6a910  2640  660f50d0       movmskpd rdx,xmm0
0x177bccd6a914  2644  83e201         andl rdx,0x1
0x177bccd6a917  2647  7505           jnz 2654  (0x177bccd6a91e)
0x177bccd6a919  2649  e929fbffff     jmp 1415  (0x177bccd6a447)
0x177bccd6a91e  2654  e8dbb8c9ff     call 0x177bcca061fe     ;; deoptimization bailout 51
0x177bccd6a923  2659  e91ffbffff     jmp 1415  (0x177bccd6a447)
                  ;;; <@394,#321> -------------------- Deferred check-maps --------------------
0x177bccd6a928  2664  50             push rax                ;; debug: position 789
0x177bccd6a929  2665  51             push rcx
0x177bccd6a92a  2666  52             push rdx
0x177bccd6a92b  2667  53             push rbx
0x177bccd6a92c  2668  56             push rsi
0x177bccd6a92d  2669  57             push rdi
0x177bccd6a92e  2670  4150           push r8
0x177bccd6a930  2672  4151           push r9
0x177bccd6a932  2674  4153           push r11
0x177bccd6a934  2676  4156           push r14
0x177bccd6a936  2678  4157           push r15
0x177bccd6a938  2680  488d6424d8     REX.W leaq rsp,[rsp-0x28]
0x177bccd6a93d  2685  50             push rax
0x177bccd6a93e  2686  33f6           xorl rsi,rsi
0x177bccd6a940  2688  b801000000     movl rax,0x1
0x177bccd6a945  2693  498d9d482ae6fd REX.W leaq rbx,[r13-0x219d5b8]
0x177bccd6a94c  2700  e84fb9f9ff     call 0x177bccd062a0     ;; code: STUB, CEntryStub, minor: 1
0x177bccd6a951  2705  a801           test al,0x1
0x177bccd6a953  2707  488d642428     REX.W leaq rsp,[rsp+0x28]
0x177bccd6a958  2712  415f           pop r15
0x177bccd6a95a  2714  415e           pop r14
0x177bccd6a95c  2716  415b           pop r11
0x177bccd6a95e  2718  4159           pop r9
0x177bccd6a960  2720  4158           pop r8
0x177bccd6a962  2722  5f             pop rdi
0x177bccd6a963  2723  5e             pop rsi
0x177bccd6a964  2724  5b             pop rbx
0x177bccd6a965  2725  5a             pop rdx
0x177bccd6a966  2726  59             pop rcx
0x177bccd6a967  2727  58             pop rax
0x177bccd6a968  2728  0f8478000000   jz 2854  (0x177bccd6a9e6)
0x177bccd6a96e  2734  e959fbffff     jmp 1548  (0x177bccd6a4cc)
                  ;;; -------------------- Jump table --------------------
                  ;;; jump table entry 0: deoptimization bailout 7.
0x177bccd6a973  2739  e8ceb6c9ff     call 0x177bcca06046     ;; deoptimization bailout 7
                  ;;; jump table entry 1: deoptimization bailout 8.
0x177bccd6a978  2744  e8d3b6c9ff     call 0x177bcca06050     ;; deoptimization bailout 8
                  ;;; jump table entry 2: deoptimization bailout 10.
0x177bccd6a97d  2749  e8e2b6c9ff     call 0x177bcca06064     ;; deoptimization bailout 10
                  ;;; jump table entry 3: deoptimization bailout 11.
0x177bccd6a982  2754  e8e7b6c9ff     call 0x177bcca0606e     ;; deoptimization bailout 11
                  ;;; jump table entry 4: deoptimization bailout 12.
0x177bccd6a987  2759  e8ecb6c9ff     call 0x177bcca06078     ;; deoptimization bailout 12
                  ;;; jump table entry 5: deoptimization bailout 13.
0x177bccd6a98c  2764  e8f1b6c9ff     call 0x177bcca06082     ;; deoptimization bailout 13
                  ;;; jump table entry 6: deoptimization bailout 15.
0x177bccd6a991  2769  e800b7c9ff     call 0x177bcca06096     ;; deoptimization bailout 15
                  ;;; jump table entry 7: deoptimization bailout 16.
0x177bccd6a996  2774  e805b7c9ff     call 0x177bcca060a0     ;; deoptimization bailout 16
                  ;;; jump table entry 8: deoptimization bailout 17.
0x177bccd6a99b  2779  e80ab7c9ff     call 0x177bcca060aa     ;; deoptimization bailout 17
                  ;;; jump table entry 9: deoptimization bailout 19.
0x177bccd6a9a0  2784  e819b7c9ff     call 0x177bcca060be     ;; deoptimization bailout 19
                  ;;; jump table entry 10: deoptimization bailout 20.
0x177bccd6a9a5  2789  e81eb7c9ff     call 0x177bcca060c8     ;; deoptimization bailout 20
                  ;;; jump table entry 11: deoptimization bailout 25.
0x177bccd6a9aa  2794  e84bb7c9ff     call 0x177bcca060fa     ;; deoptimization bailout 25
                  ;;; jump table entry 12: deoptimization bailout 26.
0x177bccd6a9af  2799  e850b7c9ff     call 0x177bcca06104     ;; deoptimization bailout 26
                  ;;; jump table entry 13: deoptimization bailout 28.
0x177bccd6a9b4  2804  e85fb7c9ff     call 0x177bcca06118     ;; deoptimization bailout 28
                  ;;; jump table entry 14: deoptimization bailout 29.
0x177bccd6a9b9  2809  e864b7c9ff     call 0x177bcca06122     ;; deoptimization bailout 29
                  ;;; jump table entry 15: deoptimization bailout 30.
0x177bccd6a9be  2814  e869b7c9ff     call 0x177bcca0612c     ;; deoptimization bailout 30
                  ;;; jump table entry 16: deoptimization bailout 32.
0x177bccd6a9c3  2819  e878b7c9ff     call 0x177bcca06140     ;; deoptimization bailout 32
                  ;;; jump table entry 17: deoptimization bailout 36.
0x177bccd6a9c8  2824  e89bb7c9ff     call 0x177bcca06168     ;; deoptimization bailout 36
                  ;;; jump table entry 18: deoptimization bailout 37.
0x177bccd6a9cd  2829  e8a0b7c9ff     call 0x177bcca06172     ;; deoptimization bailout 37
                  ;;; jump table entry 19: deoptimization bailout 38.
0x177bccd6a9d2  2834  e8a5b7c9ff     call 0x177bcca0617c     ;; deoptimization bailout 38
                  ;;; jump table entry 20: deoptimization bailout 44.
0x177bccd6a9d7  2839  e8dcb7c9ff     call 0x177bcca061b8     ;; deoptimization bailout 44
                  ;;; jump table entry 21: deoptimization bailout 45.
0x177bccd6a9dc  2844  e8e1b7c9ff     call 0x177bcca061c2     ;; deoptimization bailout 45
                  ;;; jump table entry 22: deoptimization bailout 50.
0x177bccd6a9e1  2849  e80eb8c9ff     call 0x177bcca061f4     ;; deoptimization bailout 50
                  ;;; jump table entry 23: deoptimization bailout 52.
0x177bccd6a9e6  2854  e81db8c9ff     call 0x177bcca06208     ;; deoptimization bailout 52
0x177bccd6a9eb  2859  90             nop
                  ;;; Safepoint table.

Deoptimization Input Data (deopt points = 53)
 index  ast id    argc     pc
     0       3       0     38
     1      15       0     73
     2      18       0    122
     3      35       0    153
     4      45       0    241
     5      38       0    269
     6      49       0     -1
     7      47       0     -1
     8      47       0     -1
     9      51       0    478
    10      51       0     -1
    11      51       0     -1
    12      51       0     -1
    13      51       0     -1
    14       2       0     -1
    15      35       0     -1
    16     107       0     -1
    17     107       0     -1
    18     107       0    899
    19     107       0     -1
    20     107       0     -1
    21     107       0     -1
    22     129       0   1109
    23     132       0   1137
    24     148       0   1172
    25     157       0     -1
    26     157       0     -1
    27     161       0   1274
    28     161       0     -1
    29     161       0     -1
    30       2       0     -1
    31       2       0     -1
    32      35       0     -1
    33     225       0   1483
    34     276       0     -1
    35     241       0   1540
    36     241       0     -1
    37     274       0     -1
    38     274       0     -1
    39     274       0   1810
    40     274       0     -1
    41      47       0     -1
    42      47       0     -1
    43      47       0     -1
    44      51       0     -1
    45       2       0     -1
    46      35       0     -1
    47     107       0     -1
    48     107       0     -1
    49     157       0     -1
    50       2       0     -1
    51      35       0     -1
    52     241       0     -1

Safepoints (size = 268)
0x177bccd69ee6    38  000000000000000010000000 (sp -> fp)       0
0x177bccd69f09    73  000000000000000010000000 (sp -> fp)       1
0x177bccd69f33   115  000000000000000010000000 (sp -> fp)       2
0x177bccd69f59   153  000000000000000110000000 (sp -> fp)       3
0x177bccd69fad   237  000000000000000110000000 (sp -> fp)       4
0x177bccd69fb1   241  000000000000000110000000 (sp -> fp)       4
0x177bccd69fcd   269  000000000000000110000000 (sp -> fp)       5
0x177bccd6a243   899  000000111111110000000000 (sp -> fp)      18
0x177bccd6a315  1109  000000011111010000000000 (sp -> fp)      22
0x177bccd6a331  1137  000000011111010000000000 (sp -> fp)      23
0x177bccd6a34d  1165  000000011111010000000000 (sp -> fp)      24
0x177bccd6a48b  1483  001101011111010000000000 (sp -> fp)      33
0x177bccd6a4c4  1540  000101011111010000000000 (sp -> fp)      35
0x177bccd6a5d2  1810  100001011111010000000000 (sp -> fp)      39
0x177bccd6a6d9  2073  000000011111010000000000 | rbx | r9 | r11 | r14 | r15 (sp -> fp)       9
0x177bccd6a71c  2140  000000011111110000000000 | rdx | rbx | r9 | r11 | r14 | r15 (sp -> fp)  <none> argc: 1
0x177bccd6a767  2215  000000011111110000000000 | rcx | rdx | rbx | r9 | r11 | r14 | r15 (sp -> fp)  <none> argc: 1
0x177bccd6a884  2500  000001011111010000000000 | rax | rdi | r8 | r11 (sp -> fp)      27
0x177bccd6a8c8  2568  000101011111010000000000 | rax | rdi | r8 | r11 | r14 (sp -> fp)  <none> argc: 1
0x177bccd6a951  2705  000101011111010000000000 | rax (sp -> fp)  <none> argc: 1

RelocInfo (size = 3421)
0x177bccd69ecd  comment  (;;; <@0,#0> -------------------- B0 --------------------)
0x177bccd69ecd  comment  (;;; <@2,#1> context)
0x177bccd69ed1  comment  (;;; <@3,#1> gap)
0x177bccd69ed5  comment  (;;; <@14,#10> -------------------- B1 --------------------)
0x177bccd69ed5  comment  (;;; <@15,#10> gap)
0x177bccd69ed8  comment  (;;; <@16,#12> stack-check)
0x177bccd69ee2  code target (BUILTIN)  (0x177bccd31140)
0x177bccd69ee6  comment  (;;; <@18,#12> lazy-bailout)
0x177bccd69ee6  comment  (;;; <@20,#16> constant-t)
0x177bccd69ee8  embedded object  (0xecbf5c6f749 <FixedArray[112]>)
0x177bccd69ef0  comment  (;;; <@22,#20> constant-t)
0x177bccd69ef2  embedded object  (0xecbf5c50eb1 <JS Function Object (SharedFunctionInfo 0xecbf5c3d169)>)
0x177bccd69efa  comment  (;;; <@24,#21> load-named-generic)
0x177bccd69efc  embedded object  (0x1638fe312ba1 <String[6]: create>)
0x177bccd69f05  code target (LOAD_IC)  (0x177bccd30520)
0x177bccd69f09  comment  (;;; <@26,#22> lazy-bailout)
0x177bccd69f09  comment  (;;; <@28,#24> push-argument)
0x177bccd69f0b  embedded object  (0xecbf5c50eb1 <JS Function Object (SharedFunctionInfo 0xecbf5c3d169)>)
0x177bccd69f15  comment  (;;; <@30,#24> push-argument)
0x177bccd69f17  embedded object  (0xecbf5c04101 <null>)
0x177bccd69f21  comment  (;;; <@32,#16> constant-t)
0x177bccd69f23  embedded object  (0xecbf5c6f749 <FixedArray[112]>)
0x177bccd69f2b  comment  (;;; <@33,#16> gap)
0x177bccd69f2e  comment  (;;; <@34,#25> call-function)
0x177bccd69f2f  code target (STUB)  (0x177bccd2c5e0)
0x177bccd69f33  comment  (;;; <@35,#25> gap)
0x177bccd69f3a  comment  (;;; <@36,#26> lazy-bailout)
0x177bccd69f3a  comment  (;;; <@38,#16> constant-t)
0x177bccd69f3c  embedded object  (0xecbf5c6f749 <FixedArray[112]>)
0x177bccd69f44  comment  (;;; <@40,#371> constant-t)
0x177bccd69f47  comment  (;;; <@41,#371> gap)
0x177bccd69f4a  comment  (;;; <@42,#31> store-named-generic)
0x177bccd69f4c  embedded object  (0x1638fe32c461 <String[3]: foo>)
0x177bccd69f55  code target (STORE_IC)  (0x177bccd305a0)
0x177bccd69f59  comment  (;;; <@44,#32> lazy-bailout)
0x177bccd69f59  comment  (;;; <@46,#16> constant-t)
0x177bccd69f5b  embedded object  (0xecbf5c6f749 <FixedArray[112]>)
0x177bccd69f63  comment  (;;; <@48,#35> load-named-field)
0x177bccd69f67  comment  (;;; <@50,#36> load-named-field)
0x177bccd69f6b  comment  (;;; <@52,#37> load-named-field)
0x177bccd69f72  comment  (;;; <@54,#39> push-argument)
0x177bccd69f75  comment  (;;; <@56,#39> push-argument)
0x177bccd69f77  embedded object  (0x1638fe32c461 <String[3]: foo>)
0x177bccd69f81  comment  (;;; <@58,#39> push-argument)
0x177bccd69f83  comment  (;;; <@60,#16> constant-t)
0x177bccd69f85  embedded object  (0xecbf5c6f749 <FixedArray[112]>)
0x177bccd69f8d  comment  (;;; <@62,#40> invoke-function)
0x177bccd69fa9  code target (BUILTIN)  (0x177bccd06da0)
0x177bccd69fb1  comment  (;;; <@64,#41> lazy-bailout)
0x177bccd69fb1  comment  (;;; <@68,#46> -------------------- B2 --------------------)
0x177bccd69fb1  comment  (;;; <@69,#46> gap)
0x177bccd69fb9  comment  (;;; <@70,#50> load-named-generic)
0x177bccd69fc0  embedded object  (0x1638fe30f489 <String[6]: length>)
0x177bccd69fc9  code target (LOAD_IC)  (0x177bccd30520)
0x177bccd69fcd  comment  (;;; <@72,#51> lazy-bailout)
0x177bccd69fcd  comment  (;;; <@75,#54> goto)
0x177bccd69fd2  comment  (;;; <@76,#58> -------------------- B3 (OSR entry) --------------------)
0x177bccd69fd9  comment  (;;; <@104,#73> context)
0x177bccd69fdd  comment  (;;; <@105,#73> gap)
0x177bccd69fe1  comment  (;;; <@106,#374> tagged-to-i)
0x177bccd69fed  comment  (;;; <@107,#374> gap)
0x177bccd69ff1  comment  (;;; <@108,#375> tagged-to-i)
0x177bccd69ffe  comment  (;;; <@110,#75> gap)
0x177bccd6a018  comment  (;;; <@111,#75> goto)
0x177bccd6a01d  comment  (;;; <@112,#55> -------------------- B4 --------------------)
0x177bccd6a01d  comment  (;;; <@113,#55> gap)
0x177bccd6a020  comment  (;;; <@114,#373> tagged-to-i)
0x177bccd6a02d  comment  (;;; <@116,#57> gap)
0x177bccd6a04a  comment  (;;; <@118,#100> -------------------- B5 --------------------)
0x177bccd6a06f  comment  (;;; <@120,#117> check-non-smi)
0x177bccd6a06f  position  (444)
0x177bccd6a079  comment  (;;; <@122,#170> check-non-smi)
0x177bccd6a079  position  (192)
0x177bccd6a082  position  (444)
0x177bccd6a082  comment  (;;; <@126,#103> -------------------- B6 (loop header) --------------------)
0x177bccd6a089  comment  (;;; <@129,#106> compare-numeric-and-branch)
0x177bccd6a091  comment  (;;; <@130,#107> -------------------- B7 (unreachable/replaced) --------------------)
0x177bccd6a091  comment  (;;; <@134,#113> -------------------- B8 --------------------)
0x177bccd6a091  comment  (;;; <@136,#115> stack-check)
0x177bccd6a09e  comment  (;;; <@138,#118> check-maps)
0x177bccd6a0a0  embedded object  (0x1b4f13c13b09 <Map(elements=3)>)
0x177bccd6a0b2  comment  (;;; <@140,#119> load-named-field)
0x177bccd6a0b6  comment  (;;; <@142,#120> load-named-field)
0x177bccd6a0ba  comment  (;;; <@144,#121> bounds-check)
0x177bccd6a0c2  comment  (;;; <@146,#122> load-keyed)
0x177bccd6a0d1  comment  (;;; <@147,#122> gap)
0x177bccd6a0d5  comment  (;;; <@148,#125> check-non-smi)
0x177bccd6a0de  comment  (;;; <@150,#126> check-maps)
0x177bccd6a0e0  embedded object  (0x1b4f13c13ac1 <Map(elements=3)>)
0x177bccd6a0f2  comment  (;;; <@152,#127> load-named-field)
0x177bccd6a0f6  comment  (;;; <@154,#138> check-maps)
0x177bccd6a0f8  embedded object  (0x1b4f13c13ac1 <Map(elements=3)>)
0x177bccd6a10a  comment  (;;; <@156,#139> load-named-field)
0x177bccd6a10e  comment  (;;; <@159,#140> branch)
0x177bccd6a12c  runtime entry  (deoptimization bailout 14)
0x177bccd6a130  comment  (;;; <@160,#144> -------------------- B9 (unreachable/replaced) --------------------)
0x177bccd6a130  position  (192)
0x177bccd6a130  comment  (;;; <@164,#147> -------------------- B10 --------------------)
0x177bccd6a130  comment  (;;; <@166,#148> load-global-cell)
0x177bccd6a132  property cell
0x177bccd6a13d  comment  (;;; <@168,#376> tagged-to-i)
0x177bccd6a14b  comment  (;;; <@169,#376> gap)
0x177bccd6a14e  comment  (;;; <@170,#151> add-i)
0x177bccd6a157  comment  (;;; <@172,#378> smi-tag)
0x177bccd6a15e  comment  (;;; <@174,#152> store-global-cell)
0x177bccd6a160  property cell
0x177bccd6a16b  comment  (;;; <@176,#377> smi-tag)
0x177bccd6a171  comment  (;;; <@178,#155> store-named-field)
0x177bccd6a175  comment  (;;; <@182,#141> -------------------- B11 (unreachable/replaced) --------------------)
0x177bccd6a175  comment  (;;; <@186,#159> -------------------- B12 (unreachable/replaced) --------------------)
0x177bccd6a175  comment  (;;; <@190,#162> -------------------- B13 --------------------)
0x177bccd6a175  comment  (;;; <@192,#164> load-named-field)
0x177bccd6a179  comment  (;;; <@193,#164> gap)
0x177bccd6a180  comment  (;;; <@196,#168> -------------------- B14 --------------------)
0x177bccd6a180  comment  (;;; <@199,#171> cmp-map-and-branch)
0x177bccd6a182  embedded object  (0x1b4f13c139e9 <Map(elements=3)>)
0x177bccd6a194  comment  (;;; <@200,#180> -------------------- B15 --------------------)
0x177bccd6a194  comment  (;;; <@203,#181> cmp-map-and-branch)
0x177bccd6a196  embedded object  (0x1b4f13c13b51 <Map(elements=6)>)
0x177bccd6a1a8  comment  (;;; <@204,#185> -------------------- B16 --------------------)
0x177bccd6a1a8  comment  (;;; <@207,#186> cmp-map-and-branch)
0x177bccd6a1aa  embedded object  (0x1b4f13c13b99 <Map(elements=3)>)
0x177bccd6a1bc  comment  (;;; <@208,#187> -------------------- B17 --------------------)
0x177bccd6a1bc  comment  (;;; <@210,#188> load-named-field)
0x177bccd6a1c0  comment  (;;; <@212,#189> check-maps)
0x177bccd6a1c2  embedded object  (0x1b4f13c04221 <Map(elements=0)>)
0x177bccd6a1d4  comment  (;;; <@214,#190> load-named-field)
0x177bccd6a1d7  comment  (;;; <@215,#190> gap)
0x177bccd6a1da  comment  (;;; <@216,#379> tagged-to-i)
0x177bccd6a1e8  comment  (;;; <@218,#191> bounds-check)
0x177bccd6a1f1  comment  (;;; <@220,#193> store-keyed)
0x177bccd6a222  code target (STUB)  (0x177bccd69440)
0x177bccd6a226  comment  (;;; <@222,#194> gap)
0x177bccd6a229  comment  (;;; <@223,#194> goto)
0x177bccd6a22e  comment  (;;; <@224,#182> -------------------- B18 --------------------)
0x177bccd6a22e  comment  (;;; <@225,#182> gap)
0x177bccd6a23e  comment  (;;; <@226,#183> store-keyed-generic)
0x177bccd6a23f  code target (KEYED_STORE_IC)  (0x177bccd36e20)
0x177bccd6a243  comment  (;;; <@228,#183> lazy-bailout)
0x177bccd6a243  comment  (;;; <@230,#184> gap)
0x177bccd6a247  comment  (;;; <@231,#184> goto)
0x177bccd6a24c  comment  (;;; <@232,#172> -------------------- B19 --------------------)
0x177bccd6a24c  comment  (;;; <@233,#172> gap)
0x177bccd6a250  comment  (;;; <@234,#173> load-named-field)
0x177bccd6a254  comment  (;;; <@236,#174> check-maps)
0x177bccd6a256  embedded object  (0x1b4f13c04221 <Map(elements=0)>)
0x177bccd6a268  comment  (;;; <@238,#175> load-named-field)
0x177bccd6a26b  comment  (;;; <@239,#175> gap)
0x177bccd6a272  comment  (;;; <@240,#380> tagged-to-i)
0x177bccd6a27f  comment  (;;; <@242,#176> bounds-check)
0x177bccd6a287  comment  (;;; <@243,#176> gap)
0x177bccd6a28e  comment  (;;; <@244,#178> store-keyed)
0x177bccd6a2bf  code target (STUB)  (0x177bccd59720)
0x177bccd6a2c3  comment  (;;; <@248,#199> -------------------- B20 --------------------)
0x177bccd6a2c3  comment  (;;; <@249,#199> gap)
0x177bccd6a2ca  comment  (;;; <@250,#202> add-i)
0x177bccd6a2ca  position  (450)
0x177bccd6a2cd  comment  (;;; <@252,#205> gap)
0x177bccd6a2ec  comment  (;;; <@253,#205> goto)
0x177bccd6a2f1  position  (192)
0x177bccd6a2f1  comment  (;;; <@254,#195> -------------------- B21 --------------------)
0x177bccd6a2f3  comment  (;;; <@257,#196> deoptimize)
0x177bccd6a2f3  comment  (;;; deoptimize: Unknown map in polymorphic element access)
0x177bccd6a2f4  runtime entry  (deoptimization bailout 21)
0x177bccd6a2f8  comment  (;;; <@258,#197> -------------------- B22 (unreachable/replaced) --------------------)
0x177bccd6a2f8  position  (444)
0x177bccd6a2f8  comment  (;;; <@260,#110> -------------------- B23 --------------------)
0x177bccd6a2fb  position  (450)
0x177bccd6a2fb  comment  (;;; <@264,#206> -------------------- B24 --------------------)
0x177bccd6a2fb  comment  (;;; <@265,#206> gap)
0x177bccd6a306  comment  (;;; <@266,#207> load-named-generic)
0x177bccd6a308  embedded object  (0x1638fe30f489 <String[6]: length>)
0x177bccd6a311  code target (LOAD_IC)  (0x177bccd30520)
0x177bccd6a315  comment  (;;; <@268,#208> lazy-bailout)
0x177bccd6a315  comment  (;;; <@269,#208> gap)
0x177bccd6a320  comment  (;;; <@270,#209> store-named-generic)
0x177bccd6a324  embedded object  (0x1638fe30f489 <String[6]: length>)
0x177bccd6a32d  code target (STORE_IC)  (0x177bccd305a0)
0x177bccd6a331  comment  (;;; <@272,#210> lazy-bailout)
0x177bccd6a331  comment  (;;; <@273,#210> gap)
0x177bccd6a33c  comment  (;;; <@274,#213> load-named-generic)
0x177bccd6a340  embedded object  (0x1638fe30f489 <String[6]: length>)
0x177bccd6a349  code target (LOAD_IC)  (0x177bccd30520)
0x177bccd6a34d  comment  (;;; <@275,#213> gap)
0x177bccd6a354  comment  (;;; <@276,#214> lazy-bailout)
0x177bccd6a354  comment  (;;; <@277,#214> gap)
0x177bccd6a357  comment  (;;; <@278,#381> tagged-to-i)
0x177bccd6a357  position  (650)
0x177bccd6a364  comment  (;;; <@279,#381> gap)
0x177bccd6a372  comment  (;;; <@280,#244> check-non-smi)
0x177bccd6a37c  comment  (;;; <@281,#244> gap)
0x177bccd6a380  comment  (;;; <@282,#311> check-value)
0x177bccd6a380  position  (789)
0x177bccd6a382  embedded object  (0xecbf5c621e9 <JS Function ident (SharedFunctionInfo 0xecbf5c61ca9)>)
0x177bccd6a393  comment  (;;; <@284,#229> gap)
0x177bccd6a393  position  (450)
0x177bccd6a39d  position  (650)
0x177bccd6a39d  comment  (;;; <@286,#230> -------------------- B25 (loop header) --------------------)
0x177bccd6a3a4  comment  (;;; <@289,#233> compare-numeric-and-branch)
0x177bccd6a3ad  comment  (;;; <@290,#234> -------------------- B26 (unreachable/replaced) --------------------)
0x177bccd6a3ad  comment  (;;; <@294,#240> -------------------- B27 --------------------)
0x177bccd6a3ad  comment  (;;; <@296,#242> stack-check)
0x177bccd6a3ba  comment  (;;; <@298,#245> check-maps)
0x177bccd6a3bc  embedded object  (0x1b4f13c0d5c9 <Map(elements=2)>)
0x177bccd6a3ce  comment  (;;; <@300,#246> load-named-field)
0x177bccd6a3d2  comment  (;;; <@302,#247> load-named-field)
0x177bccd6a3d5  comment  (;;; <@304,#248> bounds-check)
0x177bccd6a3de  comment  (;;; <@306,#249> load-keyed)
0x177bccd6a3e3  comment  (;;; <@307,#249> gap)
0x177bccd6a3ea  comment  (;;; <@308,#265> check-non-smi)
0x177bccd6a3f4  comment  (;;; <@310,#266> check-maps)
0x177bccd6a3f6  embedded object  (0x1b4f13c13ac1 <Map(elements=3)>)
0x177bccd6a408  comment  (;;; <@312,#267> load-named-field)
0x177bccd6a40c  comment  (;;; <@315,#268> branch)
0x177bccd6a429  runtime entry  (deoptimization bailout 31)
0x177bccd6a42d  comment  (;;; <@316,#272> -------------------- B28 (unreachable/replaced) --------------------)
0x177bccd6a42d  position  (192)
0x177bccd6a42d  comment  (;;; <@320,#275> -------------------- B29 --------------------)
0x177bccd6a42d  comment  (;;; <@322,#276> load-global-cell)
0x177bccd6a42f  property cell
0x177bccd6a43a  comment  (;;; <@324,#383> tagged-to-i)
0x177bccd6a447  comment  (;;; <@325,#383> gap)
0x177bccd6a44a  comment  (;;; <@326,#278> add-i)
0x177bccd6a453  comment  (;;; <@328,#385> smi-tag)
0x177bccd6a459  comment  (;;; <@330,#279> store-global-cell)
0x177bccd6a45b  property cell
0x177bccd6a466  comment  (;;; <@332,#384> smi-tag)
0x177bccd6a46c  comment  (;;; <@334,#283> store-named-field)
0x177bccd6a470  comment  (;;; <@338,#269> -------------------- B30 (unreachable/replaced) --------------------)
0x177bccd6a470  comment  (;;; <@342,#287> -------------------- B31 (unreachable/replaced) --------------------)
0x177bccd6a470  comment  (;;; <@346,#290> -------------------- B32 --------------------)
0x177bccd6a470  comment  (;;; <@348,#293> load-named-field)
0x177bccd6a474  comment  (;;; <@349,#293> gap)
0x177bccd6a47b  comment  (;;; <@352,#297> -------------------- B33 --------------------)
0x177bccd6a47b  comment  (;;; <@353,#297> gap)
0x177bccd6a486  comment  (;;; <@354,#301> load-keyed-generic)
0x177bccd6a486  position  (789)
0x177bccd6a487  code target (KEYED_LOAD_IC)  (0x177bccd34860)
0x177bccd6a48b  comment  (;;; <@356,#302> lazy-bailout)
0x177bccd6a48b  comment  (;;; <@359,#303> cmp-object-eq-and-branch)
0x177bccd6a48d  embedded object  (0xecbf5c04121 <undefined>)
0x177bccd6a49e  comment  (;;; <@360,#307> -------------------- B34 (unreachable/replaced) --------------------)
0x177bccd6a49e  comment  (;;; <@364,#325> -------------------- B35 --------------------)
0x177bccd6a49e  comment  (;;; <@367,#328> deoptimize)
0x177bccd6a49e  comment  (;;; deoptimize: Insufficient type feedback for keyed load)
0x177bccd6a49f  runtime entry
0x177bccd6a4a3  comment  (;;; <@368,#329> -------------------- B36 (unreachable/replaced) --------------------)
0x177bccd6a4a3  comment  (;;; <@378,#304> -------------------- B37 (unreachable/replaced) --------------------)
0x177bccd6a4a3  comment  (;;; <@382,#310> -------------------- B38 --------------------)
0x177bccd6a4a3  comment  (;;; <@384,#314> push-argument)
0x177bccd6a4a5  embedded object  (0xecbf5c60321 <JS Global Object>)
0x177bccd6a4af  comment  (;;; <@386,#314> push-argument)
0x177bccd6a4b5  comment  (;;; <@387,#314> gap)
0x177bccd6a4bd  comment  (;;; <@388,#315> invoke-function)
0x177bccd6a4c4  comment  (;;; <@390,#316> lazy-bailout)
0x177bccd6a4c4  comment  (;;; <@392,#320> check-non-smi)
0x177bccd6a4cc  comment  (;;; <@394,#321> check-maps)
0x177bccd6a4ce  embedded object  (0x1b4f13c13ac1 <Map(elements=3)>)
0x177bccd6a4e0  comment  (;;; <@395,#321> gap)
0x177bccd6a4e7  comment  (;;; <@396,#323> store-named-field)
0x177bccd6a50d  code target (STUB)  (0x177bccd63b60)
0x177bccd6a511  comment  (;;; <@398,#334> gap)
0x177bccd6a514  comment  (;;; <@400,#338> -------------------- B39 --------------------)
0x177bccd6a51b  comment  (;;; <@402,#342> gap)
0x177bccd6a522  comment  (;;; <@403,#342> cmp-map-and-branch)
0x177bccd6a524  embedded object  (0x1b4f13c13a31 <Map(elements=6)>)
0x177bccd6a536  comment  (;;; <@404,#346> -------------------- B40 --------------------)
0x177bccd6a536  comment  (;;; <@407,#347> cmp-map-and-branch)
0x177bccd6a538  embedded object  (0x1b4f13c13b09 <Map(elements=3)>)
0x177bccd6a54a  comment  (;;; <@408,#348> -------------------- B41 --------------------)
0x177bccd6a54a  comment  (;;; <@410,#349> load-named-field)
0x177bccd6a54e  comment  (;;; <@412,#350> check-maps)
0x177bccd6a550  embedded object  (0x1b4f13c04221 <Map(elements=0)>)
0x177bccd6a562  comment  (;;; <@414,#351> load-named-field)
0x177bccd6a565  comment  (;;; <@415,#351> gap)
0x177bccd6a56c  comment  (;;; <@416,#352> bounds-check)
0x177bccd6a575  comment  (;;; <@417,#352> gap)
0x177bccd6a57b  comment  (;;; <@418,#354> store-keyed)
0x177bccd6a5ac  code target (STUB)  (0x177bccd645c0)
0x177bccd6a5b0  comment  (;;; <@421,#355> goto)
0x177bccd6a5b5  comment  (;;; <@422,#343> -------------------- B42 --------------------)
0x177bccd6a5bc  comment  (;;; <@424,#382> smi-tag)
0x177bccd6a5c3  comment  (;;; <@425,#382> gap)
0x177bccd6a5cd  comment  (;;; <@426,#344> store-keyed-generic)
0x177bccd6a5ce  code target (KEYED_STORE_IC)  (0x177bccd36e20)
0x177bccd6a5d2  comment  (;;; <@428,#344> lazy-bailout)
0x177bccd6a5d2  comment  (;;; <@432,#360> -------------------- B43 --------------------)
0x177bccd6a5d2  comment  (;;; <@433,#360> gap)
0x177bccd6a5d9  comment  (;;; <@434,#363> add-i)
0x177bccd6a5d9  position  (656)
0x177bccd6a5dd  comment  (;;; <@436,#366> gap)
0x177bccd6a5fd  comment  (;;; <@437,#366> goto)
0x177bccd6a602  position  (789)
0x177bccd6a602  comment  (;;; <@438,#356> -------------------- B44 --------------------)
0x177bccd6a609  comment  (;;; <@441,#357> deoptimize)
0x177bccd6a609  comment  (;;; deoptimize: Unknown map in polymorphic element access)
0x177bccd6a60a  runtime entry  (deoptimization bailout 40)
0x177bccd6a60e  comment  (;;; <@442,#358> -------------------- B45 (unreachable/replaced) --------------------)
0x177bccd6a60e  comment  (;;; <@444,#237> -------------------- B46 (unreachable/replaced) --------------------)
0x177bccd6a60e  position  (656)
0x177bccd6a60e  comment  (;;; <@448,#367> -------------------- B47 --------------------)
0x177bccd6a60e  comment  (;;; <@450,#7> constant-t)
0x177bccd6a610  embedded object  (0xecbf5c04121 <undefined>)
0x177bccd6a618  comment  (;;; <@452,#369> return)
0x177bccd6a61f  comment  (;;; <@106,#374> -------------------- Deferred tagged-to-i --------------------)
0x177bccd6a63d  comment  (Deferred TaggedToI: lost precision)
0x177bccd6a63f  comment  (Deferred TaggedToI: NaN)
0x177bccd6a647  runtime entry  (deoptimization bailout 41)
0x177bccd6a650  comment  (;;; <@108,#375> -------------------- Deferred tagged-to-i --------------------)
0x177bccd6a66e  comment  (Deferred TaggedToI: lost precision)
0x177bccd6a670  comment  (Deferred TaggedToI: NaN)
0x177bccd6a678  runtime entry  (deoptimization bailout 42)
0x177bccd6a681  comment  (;;; <@114,#373> -------------------- Deferred tagged-to-i --------------------)
0x177bccd6a69f  comment  (Deferred TaggedToI: lost precision)
0x177bccd6a6a1  comment  (Deferred TaggedToI: NaN)
0x177bccd6a6a9  runtime entry  (deoptimization bailout 43)
0x177bccd6a6b2  position  (444)
0x177bccd6a6b2  comment  (;;; <@136,#115> -------------------- Deferred stack-check --------------------)
0x177bccd6a6d5  code target (STUB)  (0x177bccd062a0)
0x177bccd6a6f3  comment  (;;; <@150,#126> -------------------- Deferred check-maps --------------------)
0x177bccd6a718  code target (STUB)  (0x177bccd062a0)
0x177bccd6a73e  comment  (;;; <@154,#138> -------------------- Deferred check-maps --------------------)
0x177bccd6a763  code target (STUB)  (0x177bccd062a0)
0x177bccd6a789  position  (192)
0x177bccd6a789  comment  (;;; <@168,#376> -------------------- Deferred tagged-to-i --------------------)
0x177bccd6a7a7  comment  (Deferred TaggedToI: lost precision)
0x177bccd6a7a9  comment  (Deferred TaggedToI: NaN)
0x177bccd6a7be  runtime entry  (deoptimization bailout 46)
0x177bccd6a7c7  comment  (;;; <@216,#379> -------------------- Deferred tagged-to-i --------------------)
0x177bccd6a7e8  comment  (Deferred TaggedToI: lost precision)
0x177bccd6a7ea  comment  (Deferred TaggedToI: NaN)
0x177bccd6a7f2  runtime entry  (deoptimization bailout 47)
0x177bccd6a7fb  comment  (;;; <@240,#380> -------------------- Deferred tagged-to-i --------------------)
0x177bccd6a819  comment  (Deferred TaggedToI: lost precision)
0x177bccd6a81b  comment  (Deferred TaggedToI: NaN)
0x177bccd6a823  runtime entry  (deoptimization bailout 48)
0x177bccd6a82c  position  (650)
0x177bccd6a82c  comment  (;;; <@278,#381> -------------------- Deferred tagged-to-i --------------------)
0x177bccd6a84a  comment  (Deferred TaggedToI: lost precision)
0x177bccd6a84c  comment  (Deferred TaggedToI: NaN)
0x177bccd6a854  runtime entry  (deoptimization bailout 49)
0x177bccd6a85d  comment  (;;; <@296,#242> -------------------- Deferred stack-check --------------------)
0x177bccd6a880  code target (STUB)  (0x177bccd062a0)
0x177bccd6a89e  comment  (;;; <@310,#266> -------------------- Deferred check-maps --------------------)
0x177bccd6a8c4  code target (STUB)  (0x177bccd062a0)
0x177bccd6a8ea  position  (192)
0x177bccd6a8ea  comment  (;;; <@324,#383> -------------------- Deferred tagged-to-i --------------------)
0x177bccd6a908  comment  (Deferred TaggedToI: lost precision)
0x177bccd6a90a  comment  (Deferred TaggedToI: NaN)
0x177bccd6a91f  runtime entry  (deoptimization bailout 51)
0x177bccd6a928  position  (789)
0x177bccd6a928  comment  (;;; <@394,#321> -------------------- Deferred check-maps --------------------)
0x177bccd6a94d  code target (STUB)  (0x177bccd062a0)
0x177bccd6a973  comment  (;;; -------------------- Jump table --------------------)
0x177bccd6a973  comment  (;;; jump table entry 0: deoptimization bailout 7.)
0x177bccd6a974  runtime entry  (deoptimization bailout 7)
0x177bccd6a978  comment  (;;; jump table entry 1: deoptimization bailout 8.)
0x177bccd6a979  runtime entry  (deoptimization bailout 8)
0x177bccd6a97d  comment  (;;; jump table entry 2: deoptimization bailout 10.)
0x177bccd6a97e  runtime entry  (deoptimization bailout 10)
0x177bccd6a982  comment  (;;; jump table entry 3: deoptimization bailout 11.)
0x177bccd6a983  runtime entry  (deoptimization bailout 11)
0x177bccd6a987  comment  (;;; jump table entry 4: deoptimization bailout 12.)
0x177bccd6a988  runtime entry  (deoptimization bailout 12)
0x177bccd6a98c  comment  (;;; jump table entry 5: deoptimization bailout 13.)
0x177bccd6a98d  runtime entry  (deoptimization bailout 13)
0x177bccd6a991  comment  (;;; jump table entry 6: deoptimization bailout 15.)
0x177bccd6a992  runtime entry  (deoptimization bailout 15)
0x177bccd6a996  comment  (;;; jump table entry 7: deoptimization bailout 16.)
0x177bccd6a997  runtime entry  (deoptimization bailout 16)
0x177bccd6a99b  comment  (;;; jump table entry 8: deoptimization bailout 17.)
0x177bccd6a99c  runtime entry  (deoptimization bailout 17)
0x177bccd6a9a0  comment  (;;; jump table entry 9: deoptimization bailout 19.)
0x177bccd6a9a1  runtime entry  (deoptimization bailout 19)
0x177bccd6a9a5  comment  (;;; jump table entry 10: deoptimization bailout 20.)
0x177bccd6a9a6  runtime entry  (deoptimization bailout 20)
0x177bccd6a9aa  comment  (;;; jump table entry 11: deoptimization bailout 25.)
0x177bccd6a9ab  runtime entry  (deoptimization bailout 25)
0x177bccd6a9af  comment  (;;; jump table entry 12: deoptimization bailout 26.)
0x177bccd6a9b0  runtime entry  (deoptimization bailout 26)
0x177bccd6a9b4  comment  (;;; jump table entry 13: deoptimization bailout 28.)
0x177bccd6a9b5  runtime entry  (deoptimization bailout 28)
0x177bccd6a9b9  comment  (;;; jump table entry 14: deoptimization bailout 29.)
0x177bccd6a9ba  runtime entry  (deoptimization bailout 29)
0x177bccd6a9be  comment  (;;; jump table entry 15: deoptimization bailout 30.)
0x177bccd6a9bf  runtime entry  (deoptimization bailout 30)
0x177bccd6a9c3  comment  (;;; jump table entry 16: deoptimization bailout 32.)
0x177bccd6a9c4  runtime entry  (deoptimization bailout 32)
0x177bccd6a9c8  comment  (;;; jump table entry 17: deoptimization bailout 36.)
0x177bccd6a9c9  runtime entry  (deoptimization bailout 36)
0x177bccd6a9cd  comment  (;;; jump table entry 18: deoptimization bailout 37.)
0x177bccd6a9ce  runtime entry  (deoptimization bailout 37)
0x177bccd6a9d2  comment  (;;; jump table entry 19: deoptimization bailout 38.)
0x177bccd6a9d3  runtime entry  (deoptimization bailout 38)
0x177bccd6a9d7  comment  (;;; jump table entry 20: deoptimization bailout 44.)
0x177bccd6a9d8  runtime entry  (deoptimization bailout 44)
0x177bccd6a9dc  comment  (;;; jump table entry 21: deoptimization bailout 45.)
0x177bccd6a9dd  runtime entry  (deoptimization bailout 45)
0x177bccd6a9e1  comment  (;;; jump table entry 22: deoptimization bailout 50.)
0x177bccd6a9e2  runtime entry  (deoptimization bailout 50)
0x177bccd6a9e6  comment  (;;; jump table entry 23: deoptimization bailout 52.)
0x177bccd6a9e7  runtime entry  (deoptimization bailout 52)
0x177bccd6a9ec  comment  (;;; Safepoint table.)

--- End code ---
[optimizing 0xecbf5c621a1 <JS Function syncMap (SharedFunctionInfo 0xecbf5c61c19)> - took 1.957, 9.867, 13.695 ms]
[deoptimizing (DEOPT soft): begin 0xecbf5c621a1 syncMap (opt #7) @34, FP to SP delta: 208]
            ;;; deoptimize: Insufficient type feedback for keyed load
  translating syncMap => node=276, height=56
    0x7fff5fbfe118: [top + 112] <- 0xecbf5c04121 ; [sp + 56] 0xecbf5c04121 <undefined>
    0x7fff5fbfe110: [top + 104] <- 0x13fa3c0c369 ; [sp + 64] 0x13fa3c0c369 <JS Array[50000]>
    0x7fff5fbfe108: [top + 96] <- 0xecbf5c6fad9 ; [sp + 72] 0xecbf5c6fad9 <JS Array[50000]>
    0x7fff5fbfe100: [top + 88] <- 0xecbf5c621e9 ; [sp + 80] 0xecbf5c621e9 <JS Function ident (SharedFunctionInfo 0xecbf5c61ca9)>
    0x7fff5fbfe0f8: [top + 80] <- 0x177bccd5f816 ; caller's pc
    0x7fff5fbfe0f0: [top + 72] <- 0x7fff5fbfe140 ; caller's fp
    0x7fff5fbfe0e8: [top + 64] <- 0xecbf5c6f749; context
    0x7fff5fbfe0e0: [top + 56] <- 0xecbf5c621a1; function
    0x7fff5fbfe0d8: [top + 48] <- 0xecbf5c04121 <undefined> ; literal
    0x7fff5fbfe0d0: [top + 40] <- 0 ; [sp + 32] (smi)
    0x7fff5fbfe0c8: [top + 32] <- 0xc35000000000 ; [sp + 40] 50000
    0x7fff5fbfe0c0: [top + 24] <- 0x1a4408004101 ; [sp + 88] 0x1a4408004101 <an Object with map 0x1b4f13c13b99>
    0x7fff5fbfe0b8: [top + 16] <- 0xecbf5c04121 <undefined> ; literal
    0x7fff5fbfe0b0: [top + 8] <- 0xecbf5c04121 <undefined> ; literal
    0x7fff5fbfe0a8: [top + 0] <- 0xc35000000000 ; [sp + 16] 50000
[deoptimizing (soft): end 0xecbf5c621a1 syncMap @34 => node=276, pc=0x177bccd61bfa, state=NO_REGISTERS, alignment=no padding, took 0.102 ms]
[removing optimized code for: syncMap]
[evicting entry from optimizing code map (notify deoptimized) for 0xecbf5c61c19 <SharedFunctionInfo syncMap> (osr ast id 49)]
[marking 0xecbf5c621a1 <JS Function syncMap (SharedFunctionInfo 0xecbf5c61c19)> for recompilation, reason: hot and stable, ICs with typeinfo: 15/24 (62%)]
Inlined makeMap called from syncMap.
Inlined guid called from syncMap.
Inlined guid called from syncMap.
Did not inline ident called from syncMap (target not inlineable).
--- Raw source ---
(mapped, source, mapFn) {\x0a  var i,x, l, guidMap = makeMap();\x0a\x0a  for (i = 0, l = mapped.length; i < l; i++) {\x0a    var mappedItem = mapped[i];\x0a    var sourceItem = mappedItem.__source__;\x0a    guidMap[guid(sourceItem)] = mappedItem;\x0a  }\x0a\x0a  mapped.length = source.length;\x0a\x0a  for (x = 0, l = source.length; x < l; x++) {\x0a    var sourceItem = source[x];\x0a    var sourceItemGuid = guid(source[x]);\x0a    var mappedItem;\x0a\x0a    if (guidMap[sourceItemGuid] === undefined) {\x0a      mappedItem = mapFn(sourceItem);\x0a      mappedItem.__source__ = sourceItem;\x0a    } else {\x0a      mappedItem = guidMap[sourceItemGuid];\x0a    }\x0a\x0a    mapped[x] = mappedItem;\x0a  }\x0a}\x0a

--- Optimized code ---
optimization_id = 8
source_position = 347
kind = OPTIMIZED_FUNCTION
name = syncMap
stack_slots = 24
Instructions (size = 3296)
0x177bccd6b6a0     0  55             push rbp
0x177bccd6b6a1     1  4889e5         REX.W movq rbp,rsp
0x177bccd6b6a4     4  56             push rsi
0x177bccd6b6a5     5  57             push rdi
0x177bccd6b6a6     6  4881ecc0000000 REX.W subq rsp,0xc0
                  ;;; <@0,#0> -------------------- B0 --------------------
                  ;;; <@2,#1> context
0x177bccd6b6ad    13  488b45f8       REX.W movq rax,[rbp-0x8]
                  ;;; <@3,#1> gap
0x177bccd6b6b1    17  488945b0       REX.W movq [rbp-0x50],rax
                  ;;; <@14,#10> -------------------- B1 --------------------
                  ;;; <@15,#10> gap
0x177bccd6b6b5    21  488bf0         REX.W movq rsi,rax
                  ;;; <@16,#12> stack-check
0x177bccd6b6b8    24  493ba590070000 REX.W cmpq rsp,[r13+0x790]
0x177bccd6b6bf    31  7305           jnc 38  (0x177bccd6b6c6)
0x177bccd6b6c1    33  e87a5afcff     call StackCheck  (0x177bccd31140)    ;; code: BUILTIN
                  ;;; <@18,#12> lazy-bailout
                  ;;; <@20,#16> constant-t
0x177bccd6b6c6    38  48be49f7c6f5cb0e0000 REX.W movq rsi,0xecbf5c6f749    ;; object: 0xecbf5c6f749 <FixedArray[112]>
                  ;;; <@22,#20> constant-t
0x177bccd6b6d0    48  48bab10ec5f5cb0e0000 REX.W movq rdx,0xecbf5c50eb1    ;; object: 0xecbf5c50eb1 <JS Function Object (SharedFunctionInfo 0xecbf5c3d169)>
                  ;;; <@24,#21> load-named-generic
0x177bccd6b6da    58  48b9a12b31fe38160000 REX.W movq rcx,0x1638fe312ba1    ;; object: 0x1638fe312ba1 <String[6]: create>
0x177bccd6b6e4    68  e8374efcff     call 0x177bccd30520     ;; code: LOAD_IC, UNINITIALIZED
                  ;;; <@26,#22> lazy-bailout
                  ;;; <@28,#24> push-argument
0x177bccd6b6e9    73  49bab10ec5f5cb0e0000 REX.W movq r10,0xecbf5c50eb1    ;; object: 0xecbf5c50eb1 <JS Function Object (SharedFunctionInfo 0xecbf5c3d169)>
0x177bccd6b6f3    83  4152           push r10
                  ;;; <@30,#24> push-argument
0x177bccd6b6f5    85  49ba0141c0f5cb0e0000 REX.W movq r10,0xecbf5c04101    ;; object: 0xecbf5c04101 <null>
0x177bccd6b6ff    95  4152           push r10
                  ;;; <@32,#16> constant-t
0x177bccd6b701    97  48be49f7c6f5cb0e0000 REX.W movq rsi,0xecbf5c6f749    ;; object: 0xecbf5c6f749 <FixedArray[112]>
                  ;;; <@33,#16> gap
0x177bccd6b70b   107  488bf8         REX.W movq rdi,rax
                  ;;; <@34,#25> call-function
0x177bccd6b70e   110  e8cd0efcff     call 0x177bccd2c5e0     ;; code: STUB, CallFunctionStub, argc = 1
                  ;;; <@35,#25> gap
0x177bccd6b713   115  488945a8       REX.W movq [rbp-0x58],rax
0x177bccd6b717   119  488bd8         REX.W movq rbx,rax
                  ;;; <@36,#26> lazy-bailout
                  ;;; <@38,#16> constant-t
0x177bccd6b71a   122  48be49f7c6f5cb0e0000 REX.W movq rsi,0xecbf5c6f749    ;; object: 0xecbf5c6f749 <FixedArray[112]>
                  ;;; <@40,#373> constant-t
0x177bccd6b724   132  4c89e0         REX.W movq rax,r12
                  ;;; <@41,#373> gap
0x177bccd6b727   135  488bd3         REX.W movq rdx,rbx
                  ;;; <@42,#31> store-named-generic
0x177bccd6b72a   138  48b961c432fe38160000 REX.W movq rcx,0x1638fe32c461    ;; object: 0x1638fe32c461 <String[3]: foo>
0x177bccd6b734   148  e8674efcff     call 0x177bccd305a0     ;; code: STORE_IC, UNINITIALIZED
                  ;;; <@44,#32> lazy-bailout
                  ;;; <@46,#16> constant-t
0x177bccd6b739   153  48be49f7c6f5cb0e0000 REX.W movq rsi,0xecbf5c6f749    ;; object: 0xecbf5c6f749 <FixedArray[112]>
                  ;;; <@48,#35> load-named-field
0x177bccd6b743   163  488b4627       REX.W movq rax,[rsi+0x27]
                  ;;; <@50,#36> load-named-field
0x177bccd6b747   167  488b4017       REX.W movq rax,[rax+0x17]
                  ;;; <@52,#37> load-named-field
0x177bccd6b74b   171  488bb8a7000000 REX.W movq rdi,[rax+0xa7]
                  ;;; <@54,#39> push-argument
0x177bccd6b752   178  ff75a8         push [rbp-0x58]
                  ;;; <@56,#39> push-argument
0x177bccd6b755   181  49ba61c432fe38160000 REX.W movq r10,0x1638fe32c461    ;; object: 0x1638fe32c461 <String[3]: foo>
0x177bccd6b75f   191  4152           push r10
                  ;;; <@58,#39> push-argument
0x177bccd6b761   193  6a00           push 0x0
                  ;;; <@60,#16> constant-t
0x177bccd6b763   195  48be49f7c6f5cb0e0000 REX.W movq rsi,0xecbf5c6f749    ;; object: 0xecbf5c6f749 <FixedArray[112]>
                  ;;; <@62,#40> invoke-function
0x177bccd6b76d   205  488b5727       REX.W movq rdx,[rdi+0x27]
0x177bccd6b771   209  488b772f       REX.W movq rsi,[rdi+0x2f]
0x177bccd6b775   213  48635a63       REX.W movsxlq rbx,[rdx+0x63]
0x177bccd6b779   217  488b5717       REX.W movq rdx,[rdi+0x17]
0x177bccd6b77d   221  4883fb02       REX.W cmpq rbx,0x2
0x177bccd6b781   225  740c           jz 239  (0x177bccd6b78f)
0x177bccd6b783   227  b802000000     movl rax,0x2
0x177bccd6b788   232  e813b6f9ff     call ArgumentsAdaptorTrampoline  (0x177bccd06da0)    ;; code: BUILTIN
0x177bccd6b78d   237  eb02           jmp 241  (0x177bccd6b791)
0x177bccd6b78f   239  ffd2           call rdx
                  ;;; <@64,#41> lazy-bailout
                  ;;; <@68,#46> -------------------- B2 --------------------
                  ;;; <@69,#46> gap
0x177bccd6b791   241  488b75b0       REX.W movq rsi,[rbp-0x50]
0x177bccd6b795   245  488b5520       REX.W movq rdx,[rbp+0x20]
                  ;;; <@70,#50> load-named-generic
0x177bccd6b799   249  0f1f440000     nop
0x177bccd6b79e   254  48b989f430fe38160000 REX.W movq rcx,0x1638fe30f489    ;; object: 0x1638fe30f489 <String[6]: length>
0x177bccd6b7a8   264  e8734dfcff     call 0x177bccd30520     ;; code: LOAD_IC, UNINITIALIZED
                  ;;; <@71,#50> gap
0x177bccd6b7ad   269  488945a0       REX.W movq [rbp-0x60],rax
0x177bccd6b7b1   273  488bd8         REX.W movq rbx,rax
                  ;;; <@72,#51> lazy-bailout
                  ;;; <@73,#51> gap
0x177bccd6b7b4   276  488bfb         REX.W movq rdi,rbx
                  ;;; <@74,#375> tagged-to-i
0x177bccd6b7b7   279  40f6c701       testb rdi,0x1           ;; debug: position 444
0x177bccd6b7bb   283  0f8592060000   jnz 1971  (0x177bccd6be53)
0x177bccd6b7c1   289  48c1ef20       REX.W shrq rdi,32
                  ;;; <@75,#375> gap
0x177bccd6b7c5   293  48897d80       REX.W movq [rbp-0x80],rdi
0x177bccd6b7c9   297  4c8b4520       REX.W movq r8,[rbp+0x20]
                  ;;; <@76,#81> check-non-smi
0x177bccd6b7cd   301  41f6c001       testb r8,0x1
0x177bccd6b7d1   305  0f840b0a0000   jz 2882  (0x177bccd6c1e2)
                  ;;; <@77,#81> gap
0x177bccd6b7d7   311  4c8b4da8       REX.W movq r9,[rbp-0x58]
                  ;;; <@78,#134> check-non-smi
0x177bccd6b7db   315  41f6c101       testb r9,0x1            ;; debug: position 192
0x177bccd6b7df   319  0f84020a0000   jz 2887  (0x177bccd6c1e7)
                  ;;; <@80,#66> gap
0x177bccd6b7e5   325  4533db         xorl r11,r11
                  ;;; <@82,#67> -------------------- B3 (loop header) --------------------
0x177bccd6b7e8   328  4c895d98       REX.W movq [rbp-0x68],r11    ;; debug: position 444
                  ;;; <@85,#70> compare-numeric-and-branch
0x177bccd6b7ec   332  443bdf         cmpl r11,rdi
0x177bccd6b7ef   335  0f8d50020000   jge 933  (0x177bccd6ba45)
                  ;;; <@86,#71> -------------------- B4 (unreachable/replaced) --------------------
                  ;;; <@90,#77> -------------------- B5 --------------------
                  ;;; <@92,#79> stack-check
0x177bccd6b7f5   341  493ba590070000 REX.W cmpq rsp,[r13+0x790]
0x177bccd6b7fc   348  0f8282060000   jc 2020  (0x177bccd6be84)
                  ;;; <@94,#82> check-maps
0x177bccd6b802   354  49ba093bc1134f1b0000 REX.W movq r10,0x1b4f13c13b09    ;; object: 0x1b4f13c13b09 <Map(elements=3)>
0x177bccd6b80c   364  4d3950ff       REX.W cmpq [r8-0x1],r10
0x177bccd6b810   368  0f85d6090000   jnz 2892  (0x177bccd6c1ec)
                  ;;; <@96,#83> load-named-field
0x177bccd6b816   374  498b400f       REX.W movq rax,[r8+0xf]
                  ;;; <@98,#84> load-named-field
0x177bccd6b81a   378  418b501b       movl rdx,[r8+0x1b]
                  ;;; <@100,#85> bounds-check
0x177bccd6b81e   382  413bd3         cmpl rdx,r11
0x177bccd6b821   385  0f86ca090000   jna 2897  (0x177bccd6c1f1)
                  ;;; <@102,#86> load-keyed
0x177bccd6b827   391  4e8b74d80f     REX.W movq r14,[rax+r11*8+0xf]
0x177bccd6b82c   396  4d3b75b0       REX.W cmpq r14,[r13-0x50]
0x177bccd6b830   400  0f84c0090000   jz 2902  (0x177bccd6c1f6)
                  ;;; <@103,#86> gap
0x177bccd6b836   406  4c897590       REX.W movq [rbp-0x70],r14
                  ;;; <@104,#89> check-non-smi
0x177bccd6b83a   410  41f6c601       testb r14,0x1
0x177bccd6b83e   414  0f84b7090000   jz 2907  (0x177bccd6c1fb)
                  ;;; <@106,#90> check-maps
0x177bccd6b844   420  49bac13ac1134f1b0000 REX.W movq r10,0x1b4f13c13ac1    ;; object: 0x1b4f13c13ac1 <Map(elements=3)>
0x177bccd6b84e   430  4d3956ff       REX.W cmpq [r14-0x1],r10
0x177bccd6b852   434  0f856d060000   jnz 2085  (0x177bccd6bec5)
                  ;;; <@108,#91> load-named-field
0x177bccd6b858   440  498b4627       REX.W movq rax,[r14+0x27]
                  ;;; <@110,#102> check-maps
0x177bccd6b85c   444  49bac13ac1134f1b0000 REX.W movq r10,0x1b4f13c13ac1    ;; object: 0x1b4f13c13ac1 <Map(elements=3)>
0x177bccd6b866   454  4c3950ff       REX.W cmpq [rax-0x1],r10
0x177bccd6b86a   458  0f85a1060000   jnz 2161  (0x177bccd6bf11)
                  ;;; <@112,#103> load-named-field
0x177bccd6b870   464  488b501f       REX.W movq rdx,[rax+0x1f]
                  ;;; <@115,#104> branch
0x177bccd6b874   468  493b55a8       REX.W cmpq rdx,[r13-0x58]
0x177bccd6b878   472  0f8417000000   jz 501  (0x177bccd6b895)
0x177bccd6b87e   478  4885d2         REX.W testq rdx,rdx
0x177bccd6b881   481  0f840e000000   jz 501  (0x177bccd6b895)
0x177bccd6b887   487  f6c201         testb rdx,0x1
0x177bccd6b88a   490  0f8448000000   jz 568  (0x177bccd6b8d8)
0x177bccd6b890   496  e8eda7c9ff     call 0x177bcca06082     ;; deoptimization bailout 13
                  ;;; <@116,#108> -------------------- B6 (unreachable/replaced) --------------------
                  ;;; <@120,#111> -------------------- B7 --------------------
                  ;;; <@122,#112> load-global-cell
0x177bccd6b895   501  48bae8046125ac0f0000 REX.W movq rdx,0xfac256104e8    ;; debug: position 192
                                                             ;; property cell
0x177bccd6b89f   511  488b12         REX.W movq rdx,[rdx]
                  ;;; <@124,#376> tagged-to-i
0x177bccd6b8a2   514  f6c201         testb rdx,0x1
0x177bccd6b8a5   517  0f85b1060000   jnz 2236  (0x177bccd6bf5c)
0x177bccd6b8ab   523  48c1ea20       REX.W shrq rdx,32
                  ;;; <@125,#376> gap
0x177bccd6b8af   527  488bca         REX.W movq rcx,rdx
                  ;;; <@126,#115> add-i
0x177bccd6b8b2   530  83c101         addl rcx,0x1
0x177bccd6b8b5   533  0f8045090000   jo 2912  (0x177bccd6c200)
                  ;;; <@128,#378> smi-tag
0x177bccd6b8bb   539  8bf1           movl rsi,rcx
0x177bccd6b8bd   541  48c1e620       REX.W shlq rsi,32
                  ;;; <@130,#116> store-global-cell
0x177bccd6b8c1   545  49bae8046125ac0f0000 REX.W movq r10,0xfac256104e8    ;; property cell
0x177bccd6b8cb   555  498932         REX.W movq [r10],rsi
                  ;;; <@132,#377> smi-tag
0x177bccd6b8ce   558  8bca           movl rcx,rdx
0x177bccd6b8d0   560  48c1e120       REX.W shlq rcx,32
                  ;;; <@134,#119> store-named-field
0x177bccd6b8d4   564  4889481f       REX.W movq [rax+0x1f],rcx
                  ;;; <@138,#105> -------------------- B8 (unreachable/replaced) --------------------
                  ;;; <@142,#123> -------------------- B9 (unreachable/replaced) --------------------
                  ;;; <@146,#126> -------------------- B10 --------------------
                  ;;; <@148,#128> load-named-field
0x177bccd6b8d8   568  4c8b781f       REX.W movq r15,[rax+0x1f]
                  ;;; <@149,#128> gap
0x177bccd6b8dc   572  4c897d88       REX.W movq [rbp-0x78],r15
                  ;;; <@152,#132> -------------------- B11 --------------------
                  ;;; <@155,#135> cmp-map-and-branch
0x177bccd6b8e0   576  49bae939c1134f1b0000 REX.W movq r10,0x1b4f13c139e9    ;; object: 0x1b4f13c139e9 <Map(elements=3)>
0x177bccd6b8ea   586  4d3951ff       REX.W cmpq [r9-0x1],r10
0x177bccd6b8ee   590  0f84b6000000   jz 778  (0x177bccd6b9aa)
                  ;;; <@156,#144> -------------------- B12 --------------------
                  ;;; <@159,#145> cmp-map-and-branch
0x177bccd6b8f4   596  49ba513bc1134f1b0000 REX.W movq r10,0x1b4f13c13b51    ;; object: 0x1b4f13c13b51 <Map(elements=6)>
0x177bccd6b8fe   606  4d3951ff       REX.W cmpq [r9-0x1],r10
0x177bccd6b902   610  0f8487000000   jz 751  (0x177bccd6b98f)
                  ;;; <@160,#149> -------------------- B13 --------------------
                  ;;; <@163,#150> cmp-map-and-branch
0x177bccd6b908   616  49ba993bc1134f1b0000 REX.W movq r10,0x1b4f13c13b99    ;; object: 0x1b4f13c13b99 <Map(elements=3)>
0x177bccd6b912   626  4d3951ff       REX.W cmpq [r9-0x1],r10
0x177bccd6b916   630  0f851e010000   jnz 922  (0x177bccd6ba3a)
                  ;;; <@164,#151> -------------------- B14 --------------------
                  ;;; <@166,#152> load-named-field
0x177bccd6b91c   636  498b410f       REX.W movq rax,[r9+0xf]
                  ;;; <@168,#153> check-maps
0x177bccd6b920   640  49ba2142c0134f1b0000 REX.W movq r10,0x1b4f13c04221    ;; object: 0x1b4f13c04221 <Map(elements=0)>
0x177bccd6b92a   650  4c3950ff       REX.W cmpq [rax-0x1],r10
0x177bccd6b92e   654  0f85d1080000   jnz 2917  (0x177bccd6c205)
                  ;;; <@170,#154> load-named-field
0x177bccd6b934   660  8b500b         movl rdx,[rax+0xb]
                  ;;; <@171,#154> gap
0x177bccd6b937   663  498bcf         REX.W movq rcx,r15
                  ;;; <@172,#379> tagged-to-i
0x177bccd6b93a   666  f6c101         testb rcx,0x1
0x177bccd6b93d   669  0f8557060000   jnz 2298  (0x177bccd6bf9a)
0x177bccd6b943   675  48c1e920       REX.W shrq rcx,32
                  ;;; <@174,#155> bounds-check
0x177bccd6b947   679  3bd1           cmpl rdx,rcx
0x177bccd6b949   681  0f86bb080000   jna 2922  (0x177bccd6c20a)
                  ;;; <@176,#157> store-keyed
0x177bccd6b94f   687  4c8974c80f     REX.W movq [rax+rcx*8+0xf],r14
0x177bccd6b954   692  488d4cc80f     REX.W leaq rcx,[rax+rcx*8+0xf]
0x177bccd6b959   697  41f6c601       testb r14,0x1
0x177bccd6b95d   701  0f8424000000   jz 743  (0x177bccd6b987)
0x177bccd6b963   707  4981e60000f0ff REX.W andq r14,0xfffffffffff00000
0x177bccd6b96a   714  41f6460804     testb [r14+0x8],0x4
0x177bccd6b96f   719  7416           jz 743  (0x177bccd6b987)
0x177bccd6b971   721  49c7c60000f0ff REX.W movq r14,0xfff00000
0x177bccd6b978   728  4c23f0         REX.W andq r14,rax
0x177bccd6b97b   731  41f6460808     testb [r14+0x8],0x8
0x177bccd6b980   736  7405           jz 743  (0x177bccd6b987)
0x177bccd6b982   738  e879f2ffff     call 0x177bccd6ac00     ;; code: STUB, RecordWriteStub, minor: 8672
                  ;;; <@178,#158> gap
0x177bccd6b987   743  498bc1         REX.W movq rax,r9
                  ;;; <@179,#158> goto
0x177bccd6b98a   746  e98f000000     jmp 894  (0x177bccd6ba1e)
                  ;;; <@180,#146> -------------------- B15 --------------------
                  ;;; <@181,#146> gap
0x177bccd6b98f   751  488b75b0       REX.W movq rsi,[rbp-0x50]
0x177bccd6b993   755  498bd1         REX.W movq rdx,r9
0x177bccd6b996   758  498bcf         REX.W movq rcx,r15
0x177bccd6b999   761  498bc6         REX.W movq rax,r14
                  ;;; <@182,#147> store-keyed-generic
0x177bccd6b99c   764  e87fb4fcff     call KeyedStoreIC_Initialize  (0x177bccd36e20)    ;; code: KEYED_STORE_IC, UNINITIALIZED
                  ;;; <@184,#147> lazy-bailout
                  ;;; <@186,#148> gap
0x177bccd6b9a1   769  488b45a8       REX.W movq rax,[rbp-0x58]
                  ;;; <@187,#148> goto
0x177bccd6b9a5   773  e974000000     jmp 894  (0x177bccd6ba1e)
                  ;;; <@188,#136> -------------------- B16 --------------------
                  ;;; <@189,#136> gap
0x177bccd6b9aa   778  488b45a8       REX.W movq rax,[rbp-0x58]
                  ;;; <@190,#137> load-named-field
0x177bccd6b9ae   782  488b580f       REX.W movq rbx,[rax+0xf]
                  ;;; <@192,#138> check-maps
0x177bccd6b9b2   786  49ba2142c0134f1b0000 REX.W movq r10,0x1b4f13c04221    ;; object: 0x1b4f13c04221 <Map(elements=0)>
0x177bccd6b9bc   796  4c3953ff       REX.W cmpq [rbx-0x1],r10
0x177bccd6b9c0   800  0f8549080000   jnz 2927  (0x177bccd6c20f)
                  ;;; <@194,#139> load-named-field
0x177bccd6b9c6   806  8b530b         movl rdx,[rbx+0xb]
                  ;;; <@195,#139> gap
0x177bccd6b9c9   809  488b4d88       REX.W movq rcx,[rbp-0x78]
                  ;;; <@196,#380> tagged-to-i
0x177bccd6b9cd   813  f6c101         testb rcx,0x1
0x177bccd6b9d0   816  0f85f5050000   jnz 2347  (0x177bccd6bfcb)
0x177bccd6b9d6   822  48c1e920       REX.W shrq rcx,32
                  ;;; <@198,#140> bounds-check
0x177bccd6b9da   826  3bd1           cmpl rdx,rcx
0x177bccd6b9dc   828  0f8632080000   jna 2932  (0x177bccd6c214)
                  ;;; <@199,#140> gap
0x177bccd6b9e2   834  488bd3         REX.W movq rdx,rbx
0x177bccd6b9e5   837  488b5d90       REX.W movq rbx,[rbp-0x70]
                  ;;; <@200,#142> store-keyed
0x177bccd6b9e9   841  48895cca0f     REX.W movq [rdx+rcx*8+0xf],rbx
0x177bccd6b9ee   846  488d4cca0f     REX.W leaq rcx,[rdx+rcx*8+0xf]
0x177bccd6b9f3   851  f6c301         testb rbx,0x1
0x177bccd6b9f6   854  0f8422000000   jz 894  (0x177bccd6ba1e)
0x177bccd6b9fc   860  4881e30000f0ff REX.W andq rbx,0xfffffffffff00000
0x177bccd6ba03   867  f6430804       testb [rbx+0x8],0x4
0x177bccd6ba07   871  7415           jz 894  (0x177bccd6ba1e)
0x177bccd6ba09   873  48c7c30000f0ff REX.W movq rbx,0xfff00000
0x177bccd6ba10   880  4823da         REX.W andq rbx,rdx
0x177bccd6ba13   883  f6430808       testb [rbx+0x8],0x8
0x177bccd6ba17   887  7405           jz 894  (0x177bccd6ba1e)
0x177bccd6ba19   889  e802ddfeff     call 0x177bccd59720     ;; code: STUB, RecordWriteStub, minor: 8498
                  ;;; <@204,#163> -------------------- B17 --------------------
                  ;;; <@205,#163> gap
0x177bccd6ba1e   894  488b5d98       REX.W movq rbx,[rbp-0x68]
                  ;;; <@206,#166> add-i
0x177bccd6ba22   898  448d5b01       leal r11,[rbx+0x1]      ;; debug: position 450
                  ;;; <@208,#169> gap
0x177bccd6ba26   902  4c8b4520       REX.W movq r8,[rbp+0x20]
0x177bccd6ba2a   906  4c8bc8         REX.W movq r9,rax
0x177bccd6ba2d   909  488b5da0       REX.W movq rbx,[rbp-0x60]
0x177bccd6ba31   913  488b7d80       REX.W movq rdi,[rbp-0x80]
                  ;;; <@209,#169> goto
0x177bccd6ba35   917  e9aefdffff     jmp 328  (0x177bccd6b7e8)
                  ;;; <@210,#159> -------------------- B18 --------------------
0x177bccd6ba3a   922  498bc1         REX.W movq rax,r9       ;; debug: position 192
0x177bccd6ba3d   925  498bdb         REX.W movq rbx,r11
                  ;;; <@213,#160> deoptimize
                  ;;; deoptimize: Unknown map in polymorphic element access
0x177bccd6ba40   928  e883a6c9ff     call 0x177bcca060c8     ;; deoptimization bailout 20
                  ;;; <@214,#161> -------------------- B19 (unreachable/replaced) --------------------
                  ;;; <@216,#74> -------------------- B20 --------------------
0x177bccd6ba45   933  498bc1         REX.W movq rax,r9       ;; debug: position 444
                  ;;; <@220,#170> -------------------- B21 --------------------
                  ;;; <@221,#170> gap
0x177bccd6ba48   936  488b75b0       REX.W movq rsi,[rbp-0x50]    ;; debug: position 450
0x177bccd6ba4c   940  488b5518       REX.W movq rdx,[rbp+0x18]
                  ;;; <@222,#171> load-named-generic
0x177bccd6ba50   944  48b989f430fe38160000 REX.W movq rcx,0x1638fe30f489    ;; object: 0x1638fe30f489 <String[6]: length>
0x177bccd6ba5a   954  e8c14afcff     call 0x177bccd30520     ;; code: LOAD_IC, UNINITIALIZED
                  ;;; <@224,#172> lazy-bailout
                  ;;; <@225,#172> gap
0x177bccd6ba5f   959  488b75b0       REX.W movq rsi,[rbp-0x50]
0x177bccd6ba63   963  488b5520       REX.W movq rdx,[rbp+0x20]
                  ;;; <@226,#173> store-named-generic
0x177bccd6ba67   967  0f1f440000     nop
0x177bccd6ba6c   972  48b989f430fe38160000 REX.W movq rcx,0x1638fe30f489    ;; object: 0x1638fe30f489 <String[6]: length>
0x177bccd6ba76   982  e8254bfcff     call 0x177bccd305a0     ;; code: STORE_IC, UNINITIALIZED
                  ;;; <@228,#174> lazy-bailout
                  ;;; <@229,#174> gap
0x177bccd6ba7b   987  488b75b0       REX.W movq rsi,[rbp-0x50]
0x177bccd6ba7f   991  488b5518       REX.W movq rdx,[rbp+0x18]
                  ;;; <@230,#177> load-named-generic
0x177bccd6ba83   995  0f1f440000     nop
0x177bccd6ba88  1000  48b989f430fe38160000 REX.W movq rcx,0x1638fe30f489    ;; object: 0x1638fe30f489 <String[6]: length>
0x177bccd6ba92  1010  e8894afcff     call 0x177bccd30520     ;; code: LOAD_IC, UNINITIALIZED
                  ;;; <@232,#178> lazy-bailout
                  ;;; <@235,#181> goto
0x177bccd6ba97  1015  e94b000000     jmp 1095  (0x177bccd6bae7)
                  ;;; <@236,#185> -------------------- B22 (OSR entry) --------------------
0x177bccd6ba9c  1020  4881ec88000000 REX.W subq rsp,0x88
                  ;;; <@264,#200> context
0x177bccd6baa3  1027  488b75f8       REX.W movq rsi,[rbp-0x8]
                  ;;; <@265,#200> gap
0x177bccd6baa7  1031  488b45e0       REX.W movq rax,[rbp-0x20]
                  ;;; <@266,#382> tagged-to-i
0x177bccd6baab  1035  a801           test al,0x1
0x177bccd6baad  1037  0f8549050000   jnz 2396  (0x177bccd6bffc)
0x177bccd6bab3  1043  48c1e820       REX.W shrq rax,32
                  ;;; <@267,#382> gap
0x177bccd6bab7  1047  488b5dd8       REX.W movq rbx,[rbp-0x28]
                  ;;; <@268,#383> tagged-to-i
0x177bccd6babb  1051  f6c301         testb rbx,0x1
0x177bccd6babe  1054  0f8576050000   jnz 2458  (0x177bccd6c03a)
0x177bccd6bac4  1060  48c1eb20       REX.W shrq rbx,32
                  ;;; <@270,#202> gap
0x177bccd6bac8  1064  4c8b7528       REX.W movq r14,[rbp+0x28]
0x177bccd6bacc  1068  4c8b5d20       REX.W movq r11,[rbp+0x20]
0x177bccd6bad0  1072  4c8b4d18       REX.W movq r9,[rbp+0x18]
0x177bccd6bad4  1076  4c8b4510       REX.W movq r8,[rbp+0x10]
0x177bccd6bad8  1080  488bfe         REX.W movq rdi,rsi
0x177bccd6badb  1083  488bd0         REX.W movq rdx,rax
0x177bccd6bade  1086  488b45d0       REX.W movq rax,[rbp-0x30]
                  ;;; <@271,#202> goto
0x177bccd6bae2  1090  e92a000000     jmp 1137  (0x177bccd6bb11)
                  ;;; <@272,#182> -------------------- B23 --------------------
                  ;;; <@273,#182> gap
0x177bccd6bae7  1095  488bd8         REX.W movq rbx,rax
                  ;;; <@274,#381> tagged-to-i
0x177bccd6baea  1098  f6c301         testb rbx,0x1
0x177bccd6baed  1101  0f8578050000   jnz 2507  (0x177bccd6c06b)
0x177bccd6baf3  1107  48c1eb20       REX.W shrq rbx,32
                  ;;; <@276,#184> gap
0x177bccd6baf7  1111  4c8b7528       REX.W movq r14,[rbp+0x28]
0x177bccd6bafb  1115  4c8b5d20       REX.W movq r11,[rbp+0x20]
0x177bccd6baff  1119  4c8b4d18       REX.W movq r9,[rbp+0x18]
0x177bccd6bb03  1123  4c8b4510       REX.W movq r8,[rbp+0x10]
0x177bccd6bb07  1127  488b7db0       REX.W movq rdi,[rbp-0x50]
0x177bccd6bb0b  1131  488b45a8       REX.W movq rax,[rbp-0x58]
0x177bccd6bb0f  1135  33d2           xorl rdx,rdx
                  ;;; <@278,#227> -------------------- B24 --------------------
0x177bccd6bb11  1137  4c89b550ffffff REX.W movq [rbp-0xb0],r14
0x177bccd6bb18  1144  4c899d58ffffff REX.W movq [rbp-0xa8],r11
0x177bccd6bb1f  1151  4c898d60ffffff REX.W movq [rbp-0xa0],r9
0x177bccd6bb26  1158  4c898568ffffff REX.W movq [rbp-0x98],r8
0x177bccd6bb2d  1165  4889bd38ffffff REX.W movq [rbp-0xc8],rdi
0x177bccd6bb34  1172  48899d70ffffff REX.W movq [rbp-0x90],rbx
0x177bccd6bb3b  1179  48894598       REX.W movq [rbp-0x68],rax
                  ;;; <@280,#244> check-non-smi
0x177bccd6bb3f  1183  41f6c101       testb r9,0x1            ;; debug: position 650
0x177bccd6bb43  1187  0f84d0060000   jz 2937  (0x177bccd6c219)
                  ;;; <@282,#328> check-non-smi
0x177bccd6bb49  1193  a801           test al,0x1             ;; debug: position 789
0x177bccd6bb4b  1195  0f84cd060000   jz 2942  (0x177bccd6c21e)
                  ;;; <@284,#311> check-value
0x177bccd6bb51  1201  49bae921c6f5cb0e0000 REX.W movq r10,0xecbf5c621e9    ;; object: 0xecbf5c621e9 <JS Function ident (SharedFunctionInfo 0xecbf5c61ca9)>
0x177bccd6bb5b  1211  4d3bc2         REX.W cmpq r8,r10
0x177bccd6bb5e  1214  0f85bf060000   jnz 2947  (0x177bccd6c223)
                  ;;; <@286,#343> check-non-smi
0x177bccd6bb64  1220  41f6c301       testb r11,0x1
0x177bccd6bb68  1224  0f84ba060000   jz 2952  (0x177bccd6c228)
                  ;;; <@288,#229> gap
0x177bccd6bb6e  1230  4c8bfa         REX.W movq r15,rdx      ;; debug: position 450
                  ;;; <@290,#230> -------------------- B25 (loop header) --------------------
0x177bccd6bb71  1233  4c89bd48ffffff REX.W movq [rbp-0xb8],r15    ;; debug: position 650
                  ;;; <@293,#233> compare-numeric-and-branch
0x177bccd6bb78  1240  443bfb         cmpl r15,rbx
0x177bccd6bb7b  1243  0f8dc1020000   jge 1954  (0x177bccd6be42)
                  ;;; <@294,#234> -------------------- B26 (unreachable/replaced) --------------------
                  ;;; <@298,#240> -------------------- B27 --------------------
                  ;;; <@300,#242> stack-check
0x177bccd6bb81  1249  493ba590070000 REX.W cmpq rsp,[r13+0x790]
0x177bccd6bb88  1256  0f820e050000   jc 2556  (0x177bccd6c09c)
                  ;;; <@302,#245> check-maps
0x177bccd6bb8e  1262  49bac9d5c0134f1b0000 REX.W movq r10,0x1b4f13c0d5c9    ;; object: 0x1b4f13c0d5c9 <Map(elements=2)>
0x177bccd6bb98  1272  4d3951ff       REX.W cmpq [r9-0x1],r10
0x177bccd6bb9c  1276  0f858b060000   jnz 2957  (0x177bccd6c22d)
                  ;;; <@304,#246> load-named-field
0x177bccd6bba2  1282  498b510f       REX.W movq rdx,[r9+0xf]
                  ;;; <@306,#247> load-named-field
0x177bccd6bba6  1286  418b491b       movl rcx,[r9+0x1b]
                  ;;; <@308,#248> bounds-check
0x177bccd6bbaa  1290  413bcf         cmpl rcx,r15
0x177bccd6bbad  1293  0f867f060000   jna 2962  (0x177bccd6c232)
                  ;;; <@310,#249> load-keyed
0x177bccd6bbb3  1299  4a8b54fa0f     REX.W movq rdx,[rdx+r15*8+0xf]
                  ;;; <@311,#249> gap
0x177bccd6bbb8  1304  48899578ffffff REX.W movq [rbp-0x88],rdx
                  ;;; <@312,#265> check-non-smi
0x177bccd6bbbf  1311  f6c201         testb rdx,0x1
0x177bccd6bbc2  1314  0f846f060000   jz 2967  (0x177bccd6c237)
                  ;;; <@314,#266> check-maps
0x177bccd6bbc8  1320  49bac13ac1134f1b0000 REX.W movq r10,0x1b4f13c13ac1    ;; object: 0x1b4f13c13ac1 <Map(elements=3)>
0x177bccd6bbd2  1330  4c3952ff       REX.W cmpq [rdx-0x1],r10
0x177bccd6bbd6  1334  0f8501050000   jnz 2621  (0x177bccd6c0dd)
                  ;;; <@316,#267> load-named-field
0x177bccd6bbdc  1340  488b4a1f       REX.W movq rcx,[rdx+0x1f]
                  ;;; <@319,#268> branch
0x177bccd6bbe0  1344  493b4da8       REX.W cmpq rcx,[r13-0x58]
0x177bccd6bbe4  1348  0f8417000000   jz 1377  (0x177bccd6bc01)
0x177bccd6bbea  1354  4885c9         REX.W testq rcx,rcx
0x177bccd6bbed  1357  0f840e000000   jz 1377  (0x177bccd6bc01)
0x177bccd6bbf3  1363  f6c101         testb rcx,0x1
0x177bccd6bbf6  1366  0f8448000000   jz 1444  (0x177bccd6bc44)
0x177bccd6bbfc  1372  e849a5c9ff     call 0x177bcca0614a     ;; deoptimization bailout 33
                  ;;; <@320,#272> -------------------- B28 (unreachable/replaced) --------------------
                  ;;; <@324,#275> -------------------- B29 --------------------
                  ;;; <@326,#276> load-global-cell
0x177bccd6bc01  1377  48b9e8046125ac0f0000 REX.W movq rcx,0xfac256104e8    ;; debug: position 192
                                                             ;; property cell
0x177bccd6bc0b  1387  488b09         REX.W movq rcx,[rcx]
                  ;;; <@328,#385> tagged-to-i
0x177bccd6bc0e  1390  f6c101         testb rcx,0x1
0x177bccd6bc11  1393  0f8511050000   jnz 2696  (0x177bccd6c128)
0x177bccd6bc17  1399  48c1e920       REX.W shrq rcx,32
                  ;;; <@329,#385> gap
0x177bccd6bc1b  1403  488bf1         REX.W movq rsi,rcx
                  ;;; <@330,#278> add-i
0x177bccd6bc1e  1406  83c601         addl rsi,0x1
0x177bccd6bc21  1409  0f8015060000   jo 2972  (0x177bccd6c23c)
                  ;;; <@332,#387> smi-tag
0x177bccd6bc27  1415  8bc6           movl rax,rsi
0x177bccd6bc29  1417  48c1e020       REX.W shlq rax,32
                  ;;; <@334,#279> store-global-cell
0x177bccd6bc2d  1421  49bae8046125ac0f0000 REX.W movq r10,0xfac256104e8    ;; property cell
0x177bccd6bc37  1431  498902         REX.W movq [r10],rax
                  ;;; <@336,#386> smi-tag
0x177bccd6bc3a  1434  8bc1           movl rax,rcx
0x177bccd6bc3c  1436  48c1e020       REX.W shlq rax,32
                  ;;; <@338,#283> store-named-field
0x177bccd6bc40  1440  4889421f       REX.W movq [rdx+0x1f],rax
                  ;;; <@342,#269> -------------------- B30 (unreachable/replaced) --------------------
                  ;;; <@346,#287> -------------------- B31 (unreachable/replaced) --------------------
                  ;;; <@350,#290> -------------------- B32 --------------------
                  ;;; <@352,#293> load-named-field
0x177bccd6bc44  1444  488b421f       REX.W movq rax,[rdx+0x1f]
                  ;;; <@353,#293> gap
0x177bccd6bc48  1448  48898540ffffff REX.W movq [rbp-0xc0],rax
                  ;;; <@356,#297> -------------------- B33 --------------------
                  ;;; <@357,#297> gap
0x177bccd6bc4f  1455  488bf7         REX.W movq rsi,rdi
0x177bccd6bc52  1458  488b5598       REX.W movq rdx,[rbp-0x68]
0x177bccd6bc56  1462  488bc8         REX.W movq rcx,rax
                  ;;; <@358,#301> load-keyed-generic
0x177bccd6bc59  1465  e8028cfcff     call KeyedLoadIC_Initialize  (0x177bccd34860)    ;; debug: position 789
                                                             ;; code: KEYED_LOAD_IC, UNINITIALIZED
                  ;;; <@360,#302> lazy-bailout
                  ;;; <@363,#303> cmp-object-eq-and-branch
0x177bccd6bc5e  1470  49ba2141c0f5cb0e0000 REX.W movq r10,0xecbf5c04121    ;; object: 0xecbf5c04121 <undefined>
0x177bccd6bc68  1480  493bc2         REX.W cmpq rax,r10
0x177bccd6bc6b  1483  0f844f000000   jz 1568  (0x177bccd6bcc0)
                  ;;; <@364,#307> -------------------- B34 (unreachable/replaced) --------------------
                  ;;; <@368,#325> -------------------- B35 --------------------
                  ;;; <@369,#325> gap
0x177bccd6bc71  1489  488b4598       REX.W movq rax,[rbp-0x68]
                  ;;; <@370,#329> check-maps
0x177bccd6bc75  1493  49ba993bc1134f1b0000 REX.W movq r10,0x1b4f13c13b99    ;; object: 0x1b4f13c13b99 <Map(elements=3)>
0x177bccd6bc7f  1503  4c3950ff       REX.W cmpq [rax-0x1],r10
0x177bccd6bc83  1507  0f85b8050000   jnz 2977  (0x177bccd6c241)
                  ;;; <@372,#330> load-named-field
0x177bccd6bc89  1513  488b580f       REX.W movq rbx,[rax+0xf]
                  ;;; <@374,#331> load-named-field
0x177bccd6bc8d  1517  8b530b         movl rdx,[rbx+0xb]
                  ;;; <@375,#331> gap
0x177bccd6bc90  1520  488b8d40ffffff REX.W movq rcx,[rbp-0xc0]
                  ;;; <@376,#388> tagged-to-i
0x177bccd6bc97  1527  f6c101         testb rcx,0x1
0x177bccd6bc9a  1530  0f85c6040000   jnz 2758  (0x177bccd6c166)
0x177bccd6bca0  1536  48c1e920       REX.W shrq rcx,32
                  ;;; <@378,#332> bounds-check
0x177bccd6bca4  1540  3bd1           cmpl rdx,rcx
0x177bccd6bca6  1542  0f869a050000   jna 2982  (0x177bccd6c246)
                  ;;; <@380,#333> load-keyed
0x177bccd6bcac  1548  488b5ccb0f     REX.W movq rbx,[rbx+rcx*8+0xf]
0x177bccd6bcb1  1553  493b5db0       REX.W cmpq rbx,[r13-0x50]
0x177bccd6bcb5  1557  0f8490050000   jz 2987  (0x177bccd6c24b)
                  ;;; <@383,#338> goto
0x177bccd6bcbb  1563  e97b000000     jmp 1691  (0x177bccd6bd3b)
                  ;;; <@384,#304> -------------------- B36 --------------------
0x177bccd6bcc0  1568  488b4598       REX.W movq rax,[rbp-0x68]
                  ;;; <@388,#310> -------------------- B37 --------------------
                  ;;; <@390,#314> push-argument
0x177bccd6bcc4  1572  49ba2103c6f5cb0e0000 REX.W movq r10,0xecbf5c60321    ;; object: 0xecbf5c60321 <JS Global Object>
0x177bccd6bcce  1582  4152           push r10
                  ;;; <@392,#314> push-argument
0x177bccd6bcd0  1584  ffb578ffffff   push [rbp-0x88]
                  ;;; <@393,#314> gap
0x177bccd6bcd6  1590  488bb538ffffff REX.W movq rsi,[rbp-0xc8]
0x177bccd6bcdd  1597  488bbd68ffffff REX.W movq rdi,[rbp-0x98]
                  ;;; <@394,#315> invoke-function
0x177bccd6bce4  1604  488b772f       REX.W movq rsi,[rdi+0x2f]
0x177bccd6bce8  1608  ff5717         call [rdi+0x17]
                  ;;; <@396,#316> lazy-bailout
                  ;;; <@398,#320> check-non-smi
0x177bccd6bceb  1611  a801           test al,0x1
0x177bccd6bced  1613  0f845d050000   jz 2992  (0x177bccd6c250)
                  ;;; <@400,#321> check-maps
0x177bccd6bcf3  1619  49bac13ac1134f1b0000 REX.W movq r10,0x1b4f13c13ac1    ;; object: 0x1b4f13c13ac1 <Map(elements=3)>
0x177bccd6bcfd  1629  4c3950ff       REX.W cmpq [rax-0x1],r10
0x177bccd6bd01  1633  0f8590040000   jnz 2807  (0x177bccd6c197)
                  ;;; <@401,#321> gap
0x177bccd6bd07  1639  488b9d78ffffff REX.W movq rbx,[rbp-0x88]
                  ;;; <@402,#323> store-named-field
0x177bccd6bd0e  1646  48895827       REX.W movq [rax+0x27],rbx
0x177bccd6bd12  1650  488d5027       REX.W leaq rdx,[rax+0x27]
0x177bccd6bd16  1654  4881e30000f0ff REX.W andq rbx,0xfffffffffff00000
0x177bccd6bd1d  1661  f6430804       testb [rbx+0x8],0x4
0x177bccd6bd21  1665  7415           jz 1688  (0x177bccd6bd38)
0x177bccd6bd23  1667  48c7c30000f0ff REX.W movq rbx,0xfff00000
0x177bccd6bd2a  1674  4823d8         REX.W andq rbx,rax
0x177bccd6bd2d  1677  f6430808       testb [rbx+0x8],0x8
0x177bccd6bd31  1681  7405           jz 1688  (0x177bccd6bd38)
0x177bccd6bd33  1683  e8287effff     call 0x177bccd63b60     ;; code: STUB, RecordWriteStub, minor: 8752
                  ;;; <@404,#336> gap
0x177bccd6bd38  1688  488bd8         REX.W movq rbx,rax
                  ;;; <@406,#340> -------------------- B38 --------------------
0x177bccd6bd3b  1691  48899d30ffffff REX.W movq [rbp-0xd0],rbx
                  ;;; <@408,#344> gap
0x177bccd6bd42  1698  488bbd58ffffff REX.W movq rdi,[rbp-0xa8]
                  ;;; <@409,#344> cmp-map-and-branch
0x177bccd6bd49  1705  49ba313ac1134f1b0000 REX.W movq r10,0x1b4f13c13a31    ;; object: 0x1b4f13c13a31 <Map(elements=6)>
0x177bccd6bd53  1715  4c3957ff       REX.W cmpq [rdi-0x1],r10
0x177bccd6bd57  1719  0f847f000000   jz 1852  (0x177bccd6bddc)
                  ;;; <@410,#348> -------------------- B39 --------------------
                  ;;; <@413,#349> cmp-map-and-branch
0x177bccd6bd5d  1725  49ba093bc1134f1b0000 REX.W movq r10,0x1b4f13c13b09    ;; object: 0x1b4f13c13b09 <Map(elements=3)>
0x177bccd6bd67  1735  4c3957ff       REX.W cmpq [rdi-0x1],r10
0x177bccd6bd6b  1739  0f85c5000000   jnz 1942  (0x177bccd6be36)
                  ;;; <@414,#350> -------------------- B40 --------------------
                  ;;; <@416,#351> load-named-field
0x177bccd6bd71  1745  488b470f       REX.W movq rax,[rdi+0xf]
                  ;;; <@418,#352> check-maps
0x177bccd6bd75  1749  49ba2142c0134f1b0000 REX.W movq r10,0x1b4f13c04221    ;; object: 0x1b4f13c04221 <Map(elements=0)>
0x177bccd6bd7f  1759  4c3950ff       REX.W cmpq [rax-0x1],r10
0x177bccd6bd83  1763  0f85cc040000   jnz 2997  (0x177bccd6c255)
                  ;;; <@420,#353> load-named-field
0x177bccd6bd89  1769  8b571b         movl rdx,[rdi+0x1b]
                  ;;; <@421,#353> gap
0x177bccd6bd8c  1772  4c8b8548ffffff REX.W movq r8,[rbp-0xb8]
                  ;;; <@422,#354> bounds-check
0x177bccd6bd93  1779  413bd0         cmpl rdx,r8
0x177bccd6bd96  1782  0f86be040000   jna 3002  (0x177bccd6c25a)
                  ;;; <@423,#354> gap
0x177bccd6bd9c  1788  488bd0         REX.W movq rdx,rax
0x177bccd6bd9f  1791  498bc0         REX.W movq rax,r8
                  ;;; <@424,#356> store-keyed
0x177bccd6bda2  1794  48895cc20f     REX.W movq [rdx+rax*8+0xf],rbx
0x177bccd6bda7  1799  488d44c20f     REX.W leaq rax,[rdx+rax*8+0xf]
0x177bccd6bdac  1804  f6c301         testb rbx,0x1
0x177bccd6bdaf  1807  0f8422000000   jz 1847  (0x177bccd6bdd7)
0x177bccd6bdb5  1813  4881e30000f0ff REX.W andq rbx,0xfffffffffff00000
0x177bccd6bdbc  1820  f6430804       testb [rbx+0x8],0x4
0x177bccd6bdc0  1824  7415           jz 1847  (0x177bccd6bdd7)
0x177bccd6bdc2  1826  48c7c30000f0ff REX.W movq rbx,0xfff00000
0x177bccd6bdc9  1833  4823da         REX.W andq rbx,rdx
0x177bccd6bdcc  1836  f6430808       testb [rbx+0x8],0x8
0x177bccd6bdd0  1840  7405           jz 1847  (0x177bccd6bdd7)
0x177bccd6bdd2  1842  e8e987ffff     call 0x177bccd645c0     ;; code: STUB, RecordWriteStub, minor: 8242
                  ;;; <@427,#357> goto
0x177bccd6bdd7  1847  e920000000     jmp 1884  (0x177bccd6bdfc)
                  ;;; <@428,#345> -------------------- B41 --------------------
0x177bccd6bddc  1852  4c8b8548ffffff REX.W movq r8,[rbp-0xb8]
                  ;;; <@430,#384> smi-tag
0x177bccd6bde3  1859  418bc8         movl rcx,r8
0x177bccd6bde6  1862  48c1e120       REX.W shlq rcx,32
                  ;;; <@431,#384> gap
0x177bccd6bdea  1866  488bb538ffffff REX.W movq rsi,[rbp-0xc8]
0x177bccd6bdf1  1873  488bd7         REX.W movq rdx,rdi
0x177bccd6bdf4  1876  488bc3         REX.W movq rax,rbx
                  ;;; <@432,#346> store-keyed-generic
0x177bccd6bdf7  1879  e824b0fcff     call KeyedStoreIC_Initialize  (0x177bccd36e20)    ;; code: KEYED_STORE_IC, UNINITIALIZED
                  ;;; <@434,#346> lazy-bailout
                  ;;; <@438,#362> -------------------- B42 --------------------
                  ;;; <@439,#362> gap
0x177bccd6bdfc  1884  488b8548ffffff REX.W movq rax,[rbp-0xb8]
                  ;;; <@440,#365> add-i
0x177bccd6be03  1891  448d7801       leal r15,[rax+0x1]      ;; debug: position 656
                  ;;; <@442,#368> gap
0x177bccd6be07  1895  4c8bb550ffffff REX.W movq r14,[rbp-0xb0]
0x177bccd6be0e  1902  4c8b9d58ffffff REX.W movq r11,[rbp-0xa8]
0x177bccd6be15  1909  4c8b8d60ffffff REX.W movq r9,[rbp-0xa0]
0x177bccd6be1c  1916  4c8b8568ffffff REX.W movq r8,[rbp-0x98]
0x177bccd6be23  1923  488bbd38ffffff REX.W movq rdi,[rbp-0xc8]
0x177bccd6be2a  1930  488b9d70ffffff REX.W movq rbx,[rbp-0x90]
                  ;;; <@443,#368> goto
0x177bccd6be31  1937  e93bfdffff     jmp 1233  (0x177bccd6bb71)
                  ;;; <@444,#358> -------------------- B43 --------------------
0x177bccd6be36  1942  488b8548ffffff REX.W movq rax,[rbp-0xb8]    ;; debug: position 789
                  ;;; <@447,#359> deoptimize
                  ;;; deoptimize: Unknown map in polymorphic element access
0x177bccd6be3d  1949  e876a3c9ff     call 0x177bcca061b8     ;; deoptimization bailout 44
                  ;;; <@448,#360> -------------------- B44 (unreachable/replaced) --------------------
                  ;;; <@450,#237> -------------------- B45 (unreachable/replaced) --------------------
                  ;;; <@454,#369> -------------------- B46 --------------------
                  ;;; <@456,#7> constant-t
0x177bccd6be42  1954  48b82141c0f5cb0e0000 REX.W movq rax,0xecbf5c04121    ;; debug: position 656
                                                             ;; object: 0xecbf5c04121 <undefined>
                  ;;; <@458,#371> return
0x177bccd6be4c  1964  488be5         REX.W movq rsp,rbp
0x177bccd6be4f  1967  5d             pop rbp
0x177bccd6be50  1968  c22000         ret 0x20
                  ;;; <@74,#375> -------------------- Deferred tagged-to-i --------------------
0x177bccd6be53  1971  4d8b5500       REX.W movq r10,[r13+0x0]    ;; debug: position 444
0x177bccd6be57  1975  4c3957ff       REX.W cmpq [rdi-0x1],r10
0x177bccd6be5b  1979  751d           jnz 2010  (0x177bccd6be7a)
0x177bccd6be5d  1981  f20f104707     movsd xmm0,[rdi+0x7]
0x177bccd6be62  1986  f20f2cf8       cvttsd2sil rdi,xmm0
0x177bccd6be66  1990  0f57c9         xorps xmm1,xmm1
0x177bccd6be69  1993  f20f2acf       cvtsi2sd xmm1,rdi
0x177bccd6be6d  1997  660f2ec1       ucomisd xmm0,xmm1
                  Deferred TaggedToI: lost precision
0x177bccd6be71  2001  7507           jnz 2010  (0x177bccd6be7a)
                  Deferred TaggedToI: NaN
0x177bccd6be73  2003  7a05           jpe 2010  (0x177bccd6be7a)
0x177bccd6be75  2005  e94bf9ffff     jmp 293  (0x177bccd6b7c5)
0x177bccd6be7a  2010  e843a3c9ff     call 0x177bcca061c2     ;; deoptimization bailout 45
0x177bccd6be7f  2015  e941f9ffff     jmp 293  (0x177bccd6b7c5)
                  ;;; <@92,#79> -------------------- Deferred stack-check --------------------
0x177bccd6be84  2020  50             push rax
0x177bccd6be85  2021  51             push rcx
0x177bccd6be86  2022  52             push rdx
0x177bccd6be87  2023  53             push rbx
0x177bccd6be88  2024  56             push rsi
0x177bccd6be89  2025  57             push rdi
0x177bccd6be8a  2026  4150           push r8
0x177bccd6be8c  2028  4151           push r9
0x177bccd6be8e  2030  4153           push r11
0x177bccd6be90  2032  4156           push r14
0x177bccd6be92  2034  4157           push r15
0x177bccd6be94  2036  488d6424d8     REX.W leaq rsp,[rsp-0x28]
0x177bccd6be99  2041  488b75f8       REX.W movq rsi,[rbp-0x8]
0x177bccd6be9d  2045  33c0           xorl rax,rax
0x177bccd6be9f  2047  498d9d58bce4fd REX.W leaq rbx,[r13-0x21b43a8]
0x177bccd6bea6  2054  e8f5a3f9ff     call 0x177bccd062a0     ;; code: STUB, CEntryStub, minor: 1
0x177bccd6beab  2059  488d642428     REX.W leaq rsp,[rsp+0x28]
0x177bccd6beb0  2064  415f           pop r15
0x177bccd6beb2  2066  415e           pop r14
0x177bccd6beb4  2068  415b           pop r11
0x177bccd6beb6  2070  4159           pop r9
0x177bccd6beb8  2072  4158           pop r8
0x177bccd6beba  2074  5f             pop rdi
0x177bccd6bebb  2075  5e             pop rsi
0x177bccd6bebc  2076  5b             pop rbx
0x177bccd6bebd  2077  5a             pop rdx
0x177bccd6bebe  2078  59             pop rcx
0x177bccd6bebf  2079  58             pop rax
0x177bccd6bec0  2080  e93df9ffff     jmp 354  (0x177bccd6b802)
                  ;;; <@106,#90> -------------------- Deferred check-maps --------------------
0x177bccd6bec5  2085  50             push rax
0x177bccd6bec6  2086  51             push rcx
0x177bccd6bec7  2087  52             push rdx
0x177bccd6bec8  2088  53             push rbx
0x177bccd6bec9  2089  56             push rsi
0x177bccd6beca  2090  57             push rdi
0x177bccd6becb  2091  4150           push r8
0x177bccd6becd  2093  4151           push r9
0x177bccd6becf  2095  4153           push r11
0x177bccd6bed1  2097  4156           push r14
0x177bccd6bed3  2099  4157           push r15
0x177bccd6bed5  2101  488d6424d8     REX.W leaq rsp,[rsp-0x28]
0x177bccd6beda  2106  4156           push r14
0x177bccd6bedc  2108  33f6           xorl rsi,rsi
0x177bccd6bede  2110  b801000000     movl rax,0x1
0x177bccd6bee3  2115  498d9d482ae6fd REX.W leaq rbx,[r13-0x219d5b8]
0x177bccd6beea  2122  e8b1a3f9ff     call 0x177bccd062a0     ;; code: STUB, CEntryStub, minor: 1
0x177bccd6beef  2127  a801           test al,0x1
0x177bccd6bef1  2129  488d642428     REX.W leaq rsp,[rsp+0x28]
0x177bccd6bef6  2134  415f           pop r15
0x177bccd6bef8  2136  415e           pop r14
0x177bccd6befa  2138  415b           pop r11
0x177bccd6befc  2140  4159           pop r9
0x177bccd6befe  2142  4158           pop r8
0x177bccd6bf00  2144  5f             pop rdi
0x177bccd6bf01  2145  5e             pop rsi
0x177bccd6bf02  2146  5b             pop rbx
0x177bccd6bf03  2147  5a             pop rdx
0x177bccd6bf04  2148  59             pop rcx
0x177bccd6bf05  2149  58             pop rax
0x177bccd6bf06  2150  0f8453030000   jz 3007  (0x177bccd6c25f)
0x177bccd6bf0c  2156  e933f9ffff     jmp 420  (0x177bccd6b844)
                  ;;; <@110,#102> -------------------- Deferred check-maps --------------------
0x177bccd6bf11  2161  50             push rax
0x177bccd6bf12  2162  51             push rcx
0x177bccd6bf13  2163  52             push rdx
0x177bccd6bf14  2164  53             push rbx
0x177bccd6bf15  2165  56             push rsi
0x177bccd6bf16  2166  57             push rdi
0x177bccd6bf17  2167  4150           push r8
0x177bccd6bf19  2169  4151           push r9
0x177bccd6bf1b  2171  4153           push r11
0x177bccd6bf1d  2173  4156           push r14
0x177bccd6bf1f  2175  4157           push r15
0x177bccd6bf21  2177  488d6424d8     REX.W leaq rsp,[rsp-0x28]
0x177bccd6bf26  2182  50             push rax
0x177bccd6bf27  2183  33f6           xorl rsi,rsi
0x177bccd6bf29  2185  b801000000     movl rax,0x1
0x177bccd6bf2e  2190  498d9d482ae6fd REX.W leaq rbx,[r13-0x219d5b8]
0x177bccd6bf35  2197  e866a3f9ff     call 0x177bccd062a0     ;; code: STUB, CEntryStub, minor: 1
0x177bccd6bf3a  2202  a801           test al,0x1
0x177bccd6bf3c  2204  488d642428     REX.W leaq rsp,[rsp+0x28]
0x177bccd6bf41  2209  415f           pop r15
0x177bccd6bf43  2211  415e           pop r14
0x177bccd6bf45  2213  415b           pop r11
0x177bccd6bf47  2215  4159           pop r9
0x177bccd6bf49  2217  4158           pop r8
0x177bccd6bf4b  2219  5f             pop rdi
0x177bccd6bf4c  2220  5e             pop rsi
0x177bccd6bf4d  2221  5b             pop rbx
0x177bccd6bf4e  2222  5a             pop rdx
0x177bccd6bf4f  2223  59             pop rcx
0x177bccd6bf50  2224  58             pop rax
0x177bccd6bf51  2225  0f840d030000   jz 3012  (0x177bccd6c264)
0x177bccd6bf57  2231  e900f9ffff     jmp 444  (0x177bccd6b85c)
                  ;;; <@124,#376> -------------------- Deferred tagged-to-i --------------------
0x177bccd6bf5c  2236  4d8b5500       REX.W movq r10,[r13+0x0]    ;; debug: position 192
0x177bccd6bf60  2240  4c3952ff       REX.W cmpq [rdx-0x1],r10
0x177bccd6bf64  2244  752a           jnz 2288  (0x177bccd6bf90)
0x177bccd6bf66  2246  f20f104207     movsd xmm0,[rdx+0x7]
0x177bccd6bf6b  2251  f20f2cd0       cvttsd2sil rdx,xmm0
0x177bccd6bf6f  2255  0f57c9         xorps xmm1,xmm1
0x177bccd6bf72  2258  f20f2aca       cvtsi2sd xmm1,rdx
0x177bccd6bf76  2262  660f2ec1       ucomisd xmm0,xmm1
                  Deferred TaggedToI: lost precision
0x177bccd6bf7a  2266  7514           jnz 2288  (0x177bccd6bf90)
                  Deferred TaggedToI: NaN
0x177bccd6bf7c  2268  7a12           jpe 2288  (0x177bccd6bf90)
0x177bccd6bf7e  2270  85d2           testl rdx,rdx
0x177bccd6bf80  2272  7509           jnz 2283  (0x177bccd6bf8b)
0x177bccd6bf82  2274  660f50d0       movmskpd rdx,xmm0
0x177bccd6bf86  2278  83e201         andl rdx,0x1
0x177bccd6bf89  2281  7505           jnz 2288  (0x177bccd6bf90)
0x177bccd6bf8b  2283  e91ff9ffff     jmp 527  (0x177bccd6b8af)
0x177bccd6bf90  2288  e84ba2c9ff     call 0x177bcca061e0     ;; deoptimization bailout 48
0x177bccd6bf95  2293  e915f9ffff     jmp 527  (0x177bccd6b8af)
                  ;;; <@172,#379> -------------------- Deferred tagged-to-i --------------------
0x177bccd6bf9a  2298  4d8b5500       REX.W movq r10,[r13+0x0]
0x177bccd6bf9e  2302  4c3951ff       REX.W cmpq [rcx-0x1],r10
0x177bccd6bfa2  2306  751d           jnz 2337  (0x177bccd6bfc1)
0x177bccd6bfa4  2308  f20f104107     movsd xmm0,[rcx+0x7]
0x177bccd6bfa9  2313  f20f2cc8       cvttsd2sil rcx,xmm0
0x177bccd6bfad  2317  0f57c9         xorps xmm1,xmm1
0x177bccd6bfb0  2320  f20f2ac9       cvtsi2sd xmm1,rcx
0x177bccd6bfb4  2324  660f2ec1       ucomisd xmm0,xmm1
                  Deferred TaggedToI: lost precision
0x177bccd6bfb8  2328  7507           jnz 2337  (0x177bccd6bfc1)
                  Deferred TaggedToI: NaN
0x177bccd6bfba  2330  7a05           jpe 2337  (0x177bccd6bfc1)
0x177bccd6bfbc  2332  e986f9ffff     jmp 679  (0x177bccd6b947)
0x177bccd6bfc1  2337  e824a2c9ff     call 0x177bcca061ea     ;; deoptimization bailout 49
0x177bccd6bfc6  2342  e97cf9ffff     jmp 679  (0x177bccd6b947)
                  ;;; <@196,#380> -------------------- Deferred tagged-to-i --------------------
0x177bccd6bfcb  2347  4d8b5500       REX.W movq r10,[r13+0x0]
0x177bccd6bfcf  2351  4c3951ff       REX.W cmpq [rcx-0x1],r10
0x177bccd6bfd3  2355  751d           jnz 2386  (0x177bccd6bff2)
0x177bccd6bfd5  2357  f20f104107     movsd xmm0,[rcx+0x7]
0x177bccd6bfda  2362  f20f2cc8       cvttsd2sil rcx,xmm0
0x177bccd6bfde  2366  0f57c9         xorps xmm1,xmm1
0x177bccd6bfe1  2369  f20f2ac9       cvtsi2sd xmm1,rcx
0x177bccd6bfe5  2373  660f2ec1       ucomisd xmm0,xmm1
                  Deferred TaggedToI: lost precision
0x177bccd6bfe9  2377  7507           jnz 2386  (0x177bccd6bff2)
                  Deferred TaggedToI: NaN
0x177bccd6bfeb  2379  7a05           jpe 2386  (0x177bccd6bff2)
0x177bccd6bfed  2381  e9e8f9ffff     jmp 826  (0x177bccd6b9da)
0x177bccd6bff2  2386  e8fda1c9ff     call 0x177bcca061f4     ;; deoptimization bailout 50
0x177bccd6bff7  2391  e9def9ffff     jmp 826  (0x177bccd6b9da)
                  ;;; <@266,#382> -------------------- Deferred tagged-to-i --------------------
0x177bccd6bffc  2396  4d8b5500       REX.W movq r10,[r13+0x0]    ;; debug: position 450
0x177bccd6c000  2400  4c3950ff       REX.W cmpq [rax-0x1],r10
0x177bccd6c004  2404  752a           jnz 2448  (0x177bccd6c030)
0x177bccd6c006  2406  f20f104007     movsd xmm0,[rax+0x7]
0x177bccd6c00b  2411  f20f2cc0       cvttsd2sil rax,xmm0
0x177bccd6c00f  2415  0f57c9         xorps xmm1,xmm1
0x177bccd6c012  2418  f20f2ac8       cvtsi2sd xmm1,rax
0x177bccd6c016  2422  660f2ec1       ucomisd xmm0,xmm1
                  Deferred TaggedToI: lost precision
0x177bccd6c01a  2426  7514           jnz 2448  (0x177bccd6c030)
                  Deferred TaggedToI: NaN
0x177bccd6c01c  2428  7a12           jpe 2448  (0x177bccd6c030)
0x177bccd6c01e  2430  85c0           testl rax,rax
0x177bccd6c020  2432  7509           jnz 2443  (0x177bccd6c02b)
0x177bccd6c022  2434  660f50c0       movmskpd rax,xmm0
0x177bccd6c026  2438  83e001         andl rax,0x1
0x177bccd6c029  2441  7505           jnz 2448  (0x177bccd6c030)
0x177bccd6c02b  2443  e987faffff     jmp 1047  (0x177bccd6bab7)
0x177bccd6c030  2448  e8c9a1c9ff     call 0x177bcca061fe     ;; deoptimization bailout 51
0x177bccd6c035  2453  e97dfaffff     jmp 1047  (0x177bccd6bab7)
                  ;;; <@268,#383> -------------------- Deferred tagged-to-i --------------------
0x177bccd6c03a  2458  4d8b5500       REX.W movq r10,[r13+0x0]
0x177bccd6c03e  2462  4c3953ff       REX.W cmpq [rbx-0x1],r10
0x177bccd6c042  2466  751d           jnz 2497  (0x177bccd6c061)
0x177bccd6c044  2468  f20f104307     movsd xmm0,[rbx+0x7]
0x177bccd6c049  2473  f20f2cd8       cvttsd2sil rbx,xmm0
0x177bccd6c04d  2477  0f57c9         xorps xmm1,xmm1
0x177bccd6c050  2480  f20f2acb       cvtsi2sd xmm1,rbx
0x177bccd6c054  2484  660f2ec1       ucomisd xmm0,xmm1
                  Deferred TaggedToI: lost precision
0x177bccd6c058  2488  7507           jnz 2497  (0x177bccd6c061)
                  Deferred TaggedToI: NaN
0x177bccd6c05a  2490  7a05           jpe 2497  (0x177bccd6c061)
0x177bccd6c05c  2492  e967faffff     jmp 1064  (0x177bccd6bac8)
0x177bccd6c061  2497  e8a2a1c9ff     call 0x177bcca06208     ;; deoptimization bailout 52
0x177bccd6c066  2502  e95dfaffff     jmp 1064  (0x177bccd6bac8)
                  ;;; <@274,#381> -------------------- Deferred tagged-to-i --------------------
0x177bccd6c06b  2507  4d8b5500       REX.W movq r10,[r13+0x0]
0x177bccd6c06f  2511  4c3953ff       REX.W cmpq [rbx-0x1],r10
0x177bccd6c073  2515  751d           jnz 2546  (0x177bccd6c092)
0x177bccd6c075  2517  f20f104307     movsd xmm0,[rbx+0x7]
0x177bccd6c07a  2522  f20f2cd8       cvttsd2sil rbx,xmm0
0x177bccd6c07e  2526  0f57c9         xorps xmm1,xmm1
0x177bccd6c081  2529  f20f2acb       cvtsi2sd xmm1,rbx
0x177bccd6c085  2533  660f2ec1       ucomisd xmm0,xmm1
                  Deferred TaggedToI: lost precision
0x177bccd6c089  2537  7507           jnz 2546  (0x177bccd6c092)
                  Deferred TaggedToI: NaN
0x177bccd6c08b  2539  7a05           jpe 2546  (0x177bccd6c092)
0x177bccd6c08d  2541  e965faffff     jmp 1111  (0x177bccd6baf7)
0x177bccd6c092  2546  e87ba1c9ff     call 0x177bcca06212     ;; deoptimization bailout 53
0x177bccd6c097  2551  e95bfaffff     jmp 1111  (0x177bccd6baf7)
                  ;;; <@300,#242> -------------------- Deferred stack-check --------------------
0x177bccd6c09c  2556  50             push rax                ;; debug: position 650
0x177bccd6c09d  2557  51             push rcx
0x177bccd6c09e  2558  52             push rdx
0x177bccd6c09f  2559  53             push rbx
0x177bccd6c0a0  2560  56             push rsi
0x177bccd6c0a1  2561  57             push rdi
0x177bccd6c0a2  2562  4150           push r8
0x177bccd6c0a4  2564  4151           push r9
0x177bccd6c0a6  2566  4153           push r11
0x177bccd6c0a8  2568  4156           push r14
0x177bccd6c0aa  2570  4157           push r15
0x177bccd6c0ac  2572  488d6424d8     REX.W leaq rsp,[rsp-0x28]
0x177bccd6c0b1  2577  488b75f8       REX.W movq rsi,[rbp-0x8]
0x177bccd6c0b5  2581  33c0           xorl rax,rax
0x177bccd6c0b7  2583  498d9d58bce4fd REX.W leaq rbx,[r13-0x21b43a8]
0x177bccd6c0be  2590  e8dda1f9ff     call 0x177bccd062a0     ;; code: STUB, CEntryStub, minor: 1
0x177bccd6c0c3  2595  488d642428     REX.W leaq rsp,[rsp+0x28]
0x177bccd6c0c8  2600  415f           pop r15
0x177bccd6c0ca  2602  415e           pop r14
0x177bccd6c0cc  2604  415b           pop r11
0x177bccd6c0ce  2606  4159           pop r9
0x177bccd6c0d0  2608  4158           pop r8
0x177bccd6c0d2  2610  5f             pop rdi
0x177bccd6c0d3  2611  5e             pop rsi
0x177bccd6c0d4  2612  5b             pop rbx
0x177bccd6c0d5  2613  5a             pop rdx
0x177bccd6c0d6  2614  59             pop rcx
0x177bccd6c0d7  2615  58             pop rax
0x177bccd6c0d8  2616  e9b1faffff     jmp 1262  (0x177bccd6bb8e)
                  ;;; <@314,#266> -------------------- Deferred check-maps --------------------
0x177bccd6c0dd  2621  50             push rax
0x177bccd6c0de  2622  51             push rcx
0x177bccd6c0df  2623  52             push rdx
0x177bccd6c0e0  2624  53             push rbx
0x177bccd6c0e1  2625  56             push rsi
0x177bccd6c0e2  2626  57             push rdi
0x177bccd6c0e3  2627  4150           push r8
0x177bccd6c0e5  2629  4151           push r9
0x177bccd6c0e7  2631  4153           push r11
0x177bccd6c0e9  2633  4156           push r14
0x177bccd6c0eb  2635  4157           push r15
0x177bccd6c0ed  2637  488d6424d8     REX.W leaq rsp,[rsp-0x28]
0x177bccd6c0f2  2642  52             push rdx
0x177bccd6c0f3  2643  33f6           xorl rsi,rsi
0x177bccd6c0f5  2645  b801000000     movl rax,0x1
0x177bccd6c0fa  2650  498d9d482ae6fd REX.W leaq rbx,[r13-0x219d5b8]
0x177bccd6c101  2657  e89aa1f9ff     call 0x177bccd062a0     ;; code: STUB, CEntryStub, minor: 1
0x177bccd6c106  2662  a801           test al,0x1
0x177bccd6c108  2664  488d642428     REX.W leaq rsp,[rsp+0x28]
0x177bccd6c10d  2669  415f           pop r15
0x177bccd6c10f  2671  415e           pop r14
0x177bccd6c111  2673  415b           pop r11
0x177bccd6c113  2675  4159           pop r9
0x177bccd6c115  2677  4158           pop r8
0x177bccd6c117  2679  5f             pop rdi
0x177bccd6c118  2680  5e             pop rsi
0x177bccd6c119  2681  5b             pop rbx
0x177bccd6c11a  2682  5a             pop rdx
0x177bccd6c11b  2683  59             pop rcx
0x177bccd6c11c  2684  58             pop rax
0x177bccd6c11d  2685  0f8446010000   jz 3017  (0x177bccd6c269)
0x177bccd6c123  2691  e9a0faffff     jmp 1320  (0x177bccd6bbc8)
                  ;;; <@328,#385> -------------------- Deferred tagged-to-i --------------------
0x177bccd6c128  2696  4d8b5500       REX.W movq r10,[r13+0x0]    ;; debug: position 192
0x177bccd6c12c  2700  4c3951ff       REX.W cmpq [rcx-0x1],r10
0x177bccd6c130  2704  752a           jnz 2748  (0x177bccd6c15c)
0x177bccd6c132  2706  f20f104107     movsd xmm0,[rcx+0x7]
0x177bccd6c137  2711  f20f2cc8       cvttsd2sil rcx,xmm0
0x177bccd6c13b  2715  0f57c9         xorps xmm1,xmm1
0x177bccd6c13e  2718  f20f2ac9       cvtsi2sd xmm1,rcx
0x177bccd6c142  2722  660f2ec1       ucomisd xmm0,xmm1
                  Deferred TaggedToI: lost precision
0x177bccd6c146  2726  7514           jnz 2748  (0x177bccd6c15c)
                  Deferred TaggedToI: NaN
0x177bccd6c148  2728  7a12           jpe 2748  (0x177bccd6c15c)
0x177bccd6c14a  2730  85c9           testl rcx,rcx
0x177bccd6c14c  2732  7509           jnz 2743  (0x177bccd6c157)
0x177bccd6c14e  2734  660f50c8       movmskpd rcx,xmm0
0x177bccd6c152  2738  83e101         andl rcx,0x1
0x177bccd6c155  2741  7505           jnz 2748  (0x177bccd6c15c)
0x177bccd6c157  2743  e9bffaffff     jmp 1403  (0x177bccd6bc1b)
0x177bccd6c15c  2748  e8c5a0c9ff     call 0x177bcca06226     ;; deoptimization bailout 55
0x177bccd6c161  2753  e9b5faffff     jmp 1403  (0x177bccd6bc1b)
                  ;;; <@376,#388> -------------------- Deferred tagged-to-i --------------------
0x177bccd6c166  2758  4d8b5500       REX.W movq r10,[r13+0x0]    ;; debug: position 789
0x177bccd6c16a  2762  4c3951ff       REX.W cmpq [rcx-0x1],r10
0x177bccd6c16e  2766  751d           jnz 2797  (0x177bccd6c18d)
0x177bccd6c170  2768  f20f104107     movsd xmm0,[rcx+0x7]
0x177bccd6c175  2773  f20f2cc8       cvttsd2sil rcx,xmm0
0x177bccd6c179  2777  0f57c9         xorps xmm1,xmm1
0x177bccd6c17c  2780  f20f2ac9       cvtsi2sd xmm1,rcx
0x177bccd6c180  2784  660f2ec1       ucomisd xmm0,xmm1
                  Deferred TaggedToI: lost precision
0x177bccd6c184  2788  7507           jnz 2797  (0x177bccd6c18d)
                  Deferred TaggedToI: NaN
0x177bccd6c186  2790  7a05           jpe 2797  (0x177bccd6c18d)
0x177bccd6c188  2792  e917fbffff     jmp 1540  (0x177bccd6bca4)
0x177bccd6c18d  2797  e89ea0c9ff     call 0x177bcca06230     ;; deoptimization bailout 56
0x177bccd6c192  2802  e90dfbffff     jmp 1540  (0x177bccd6bca4)
                  ;;; <@400,#321> -------------------- Deferred check-maps --------------------
0x177bccd6c197  2807  50             push rax
0x177bccd6c198  2808  51             push rcx
0x177bccd6c199  2809  52             push rdx
0x177bccd6c19a  2810  53             push rbx
0x177bccd6c19b  2811  56             push rsi
0x177bccd6c19c  2812  57             push rdi
0x177bccd6c19d  2813  4150           push r8
0x177bccd6c19f  2815  4151           push r9
0x177bccd6c1a1  2817  4153           push r11
0x177bccd6c1a3  2819  4156           push r14
0x177bccd6c1a5  2821  4157           push r15
0x177bccd6c1a7  2823  488d6424d8     REX.W leaq rsp,[rsp-0x28]
0x177bccd6c1ac  2828  50             push rax
0x177bccd6c1ad  2829  33f6           xorl rsi,rsi
0x177bccd6c1af  2831  b801000000     movl rax,0x1
0x177bccd6c1b4  2836  498d9d482ae6fd REX.W leaq rbx,[r13-0x219d5b8]
0x177bccd6c1bb  2843  e8e0a0f9ff     call 0x177bccd062a0     ;; code: STUB, CEntryStub, minor: 1
0x177bccd6c1c0  2848  a801           test al,0x1
0x177bccd6c1c2  2850  488d642428     REX.W leaq rsp,[rsp+0x28]
0x177bccd6c1c7  2855  415f           pop r15
0x177bccd6c1c9  2857  415e           pop r14
0x177bccd6c1cb  2859  415b           pop r11
0x177bccd6c1cd  2861  4159           pop r9
0x177bccd6c1cf  2863  4158           pop r8
0x177bccd6c1d1  2865  5f             pop rdi
0x177bccd6c1d2  2866  5e             pop rsi
0x177bccd6c1d3  2867  5b             pop rbx
0x177bccd6c1d4  2868  5a             pop rdx
0x177bccd6c1d5  2869  59             pop rcx
0x177bccd6c1d6  2870  58             pop rax
0x177bccd6c1d7  2871  0f8491000000   jz 3022  (0x177bccd6c26e)
0x177bccd6c1dd  2877  e911fbffff     jmp 1619  (0x177bccd6bcf3)
                  ;;; -------------------- Jump table --------------------
                  ;;; jump table entry 0: deoptimization bailout 6.
0x177bccd6c1e2  2882  e8559ec9ff     call 0x177bcca0603c     ;; deoptimization bailout 6
                  ;;; jump table entry 1: deoptimization bailout 7.
0x177bccd6c1e7  2887  e85a9ec9ff     call 0x177bcca06046     ;; deoptimization bailout 7
                  ;;; jump table entry 2: deoptimization bailout 9.
0x177bccd6c1ec  2892  e8699ec9ff     call 0x177bcca0605a     ;; deoptimization bailout 9
                  ;;; jump table entry 3: deoptimization bailout 10.
0x177bccd6c1f1  2897  e86e9ec9ff     call 0x177bcca06064     ;; deoptimization bailout 10
                  ;;; jump table entry 4: deoptimization bailout 11.
0x177bccd6c1f6  2902  e8739ec9ff     call 0x177bcca0606e     ;; deoptimization bailout 11
                  ;;; jump table entry 5: deoptimization bailout 12.
0x177bccd6c1fb  2907  e8789ec9ff     call 0x177bcca06078     ;; deoptimization bailout 12
                  ;;; jump table entry 6: deoptimization bailout 14.
0x177bccd6c200  2912  e8879ec9ff     call 0x177bcca0608c     ;; deoptimization bailout 14
                  ;;; jump table entry 7: deoptimization bailout 15.
0x177bccd6c205  2917  e88c9ec9ff     call 0x177bcca06096     ;; deoptimization bailout 15
                  ;;; jump table entry 8: deoptimization bailout 16.
0x177bccd6c20a  2922  e8919ec9ff     call 0x177bcca060a0     ;; deoptimization bailout 16
                  ;;; jump table entry 9: deoptimization bailout 18.
0x177bccd6c20f  2927  e8a09ec9ff     call 0x177bcca060b4     ;; deoptimization bailout 18
                  ;;; jump table entry 10: deoptimization bailout 19.
0x177bccd6c214  2932  e8a59ec9ff     call 0x177bcca060be     ;; deoptimization bailout 19
                  ;;; jump table entry 11: deoptimization bailout 25.
0x177bccd6c219  2937  e8dc9ec9ff     call 0x177bcca060fa     ;; deoptimization bailout 25
                  ;;; jump table entry 12: deoptimization bailout 26.
0x177bccd6c21e  2942  e8e19ec9ff     call 0x177bcca06104     ;; deoptimization bailout 26
                  ;;; jump table entry 13: deoptimization bailout 27.
0x177bccd6c223  2947  e8e69ec9ff     call 0x177bcca0610e     ;; deoptimization bailout 27
                  ;;; jump table entry 14: deoptimization bailout 28.
0x177bccd6c228  2952  e8eb9ec9ff     call 0x177bcca06118     ;; deoptimization bailout 28
                  ;;; jump table entry 15: deoptimization bailout 30.
0x177bccd6c22d  2957  e8fa9ec9ff     call 0x177bcca0612c     ;; deoptimization bailout 30
                  ;;; jump table entry 16: deoptimization bailout 31.
0x177bccd6c232  2962  e8ff9ec9ff     call 0x177bcca06136     ;; deoptimization bailout 31
                  ;;; jump table entry 17: deoptimization bailout 32.
0x177bccd6c237  2967  e8049fc9ff     call 0x177bcca06140     ;; deoptimization bailout 32
                  ;;; jump table entry 18: deoptimization bailout 34.
0x177bccd6c23c  2972  e8139fc9ff     call 0x177bcca06154     ;; deoptimization bailout 34
                  ;;; jump table entry 19: deoptimization bailout 36.
0x177bccd6c241  2977  e8229fc9ff     call 0x177bcca06168     ;; deoptimization bailout 36
                  ;;; jump table entry 20: deoptimization bailout 37.
0x177bccd6c246  2982  e8279fc9ff     call 0x177bcca06172     ;; deoptimization bailout 37
                  ;;; jump table entry 21: deoptimization bailout 38.
0x177bccd6c24b  2987  e82c9fc9ff     call 0x177bcca0617c     ;; deoptimization bailout 38
                  ;;; jump table entry 22: deoptimization bailout 40.
0x177bccd6c250  2992  e83b9fc9ff     call 0x177bcca06190     ;; deoptimization bailout 40
                  ;;; jump table entry 23: deoptimization bailout 41.
0x177bccd6c255  2997  e8409fc9ff     call 0x177bcca0619a     ;; deoptimization bailout 41
                  ;;; jump table entry 24: deoptimization bailout 42.
0x177bccd6c25a  3002  e8459fc9ff     call 0x177bcca061a4     ;; deoptimization bailout 42
                  ;;; jump table entry 25: deoptimization bailout 46.
0x177bccd6c25f  3007  e8689fc9ff     call 0x177bcca061cc     ;; deoptimization bailout 46
                  ;;; jump table entry 26: deoptimization bailout 47.
0x177bccd6c264  3012  e86d9fc9ff     call 0x177bcca061d6     ;; deoptimization bailout 47
                  ;;; jump table entry 27: deoptimization bailout 54.
0x177bccd6c269  3017  e8ae9fc9ff     call 0x177bcca0621c     ;; deoptimization bailout 54
                  ;;; jump table entry 28: deoptimization bailout 57.
0x177bccd6c26e  3022  e8c79fc9ff     call 0x177bcca0623a     ;; deoptimization bailout 57
0x177bccd6c273  3027  90             nop
                  ;;; Safepoint table.

Deoptimization Input Data (deopt points = 58)
 index  ast id    argc     pc
     0       3       0     38
     1      15       0     73
     2      18       0    122
     3      35       0    153
     4      45       0    241
     5      38       0    276
     6      47       0     -1
     7      47       0     -1
     8      51       0    354
     9      51       0     -1
    10      51       0     -1
    11      51       0     -1
    12      51       0     -1
    13       2       0     -1
    14      35       0     -1
    15     107       0     -1
    16     107       0     -1
    17     107       0    769
    18     107       0     -1
    19     107       0     -1
    20     107       0     -1
    21     129       0    959
    22     132       0    987
    23     148       0   1015
    24     159       0     -1
    25     157       0     -1
    26     157       0     -1
    27     157       0     -1
    28     157       0     -1
    29     161       0   1262
    30     161       0     -1
    31     161       0     -1
    32       2       0     -1
    33       2       0     -1
    34      35       0     -1
    35     225       0   1470
    36     276       0     -1
    37     276       0     -1
    38     276       0     -1
    39     241       0   1611
    40     241       0     -1
    41     274       0     -1
    42     274       0     -1
    43     274       0   1884
    44     274       0     -1
    45      47       0     -1
    46      51       0     -1
    47       2       0     -1
    48      35       0     -1
    49     107       0     -1
    50     107       0     -1
    51     157       0     -1
    52     157       0     -1
    53     157       0     -1
    54       2       0     -1
    55      35       0     -1
    56     276       0     -1
    57     241       0     -1

Safepoints (size = 268)
0x177bccd6b6c6    38  000000000000000010000000 (sp -> fp)       0
0x177bccd6b6e9    73  000000000000000010000000 (sp -> fp)       1
0x177bccd6b713   115  000000000000000010000000 (sp -> fp)       2
0x177bccd6b739   153  000000000000000110000000 (sp -> fp)       3
0x177bccd6b78d   237  000000000000000110000000 (sp -> fp)       4
0x177bccd6b791   241  000000000000000110000000 (sp -> fp)       4
0x177bccd6b7ad   269  000000000000000110000000 (sp -> fp)       5
0x177bccd6b9a1   769  000000000001101110000000 (sp -> fp)      17
0x177bccd6ba5f   959  000000000000000110000000 (sp -> fp)      21
0x177bccd6ba7b   987  000000000000000110000000 (sp -> fp)      22
0x177bccd6ba97  1015  000000000000000110000000 (sp -> fp)      23
0x177bccd6bc5e  1470  011011110100010000000000 (sp -> fp)      35
0x177bccd6bceb  1611  010011110100010000000000 (sp -> fp)      39
0x177bccd6bdfc  1884  110011110000010000000000 (sp -> fp)      43
0x177bccd6beab  2059  000000000000001110000000 | rbx | r8 | r9 (sp -> fp)       8
0x177bccd6beef  2127  000000000000101110000000 | rbx | r8 | r9 | r14 (sp -> fp)  <none> argc: 1
0x177bccd6bf3a  2202  000000000000101110000000 | rax | rbx | r8 | r9 | r14 (sp -> fp)  <none> argc: 1
0x177bccd6c0c3  2595  010011110000010000000000 | rdi | r8 | r9 | r11 | r14 (sp -> fp)      29
0x177bccd6c106  2662  010011110100010000000000 | rdx | rdi | r8 | r9 | r11 | r14 (sp -> fp)  <none> argc: 1
0x177bccd6c1c0  2848  010011110100010000000000 | rax (sp -> fp)  <none> argc: 1

RelocInfo (size = 3626)
0x177bccd6b6ad  comment  (;;; <@0,#0> -------------------- B0 --------------------)
0x177bccd6b6ad  comment  (;;; <@2,#1> context)
0x177bccd6b6b1  comment  (;;; <@3,#1> gap)
0x177bccd6b6b5  comment  (;;; <@14,#10> -------------------- B1 --------------------)
0x177bccd6b6b5  comment  (;;; <@15,#10> gap)
0x177bccd6b6b8  comment  (;;; <@16,#12> stack-check)
0x177bccd6b6c2  code target (BUILTIN)  (0x177bccd31140)
0x177bccd6b6c6  comment  (;;; <@18,#12> lazy-bailout)
0x177bccd6b6c6  comment  (;;; <@20,#16> constant-t)
0x177bccd6b6c8  embedded object  (0xecbf5c6f749 <FixedArray[112]>)
0x177bccd6b6d0  comment  (;;; <@22,#20> constant-t)
0x177bccd6b6d2  embedded object  (0xecbf5c50eb1 <JS Function Object (SharedFunctionInfo 0xecbf5c3d169)>)
0x177bccd6b6da  comment  (;;; <@24,#21> load-named-generic)
0x177bccd6b6dc  embedded object  (0x1638fe312ba1 <String[6]: create>)
0x177bccd6b6e5  code target (LOAD_IC)  (0x177bccd30520)
0x177bccd6b6e9  comment  (;;; <@26,#22> lazy-bailout)
0x177bccd6b6e9  comment  (;;; <@28,#24> push-argument)
0x177bccd6b6eb  embedded object  (0xecbf5c50eb1 <JS Function Object (SharedFunctionInfo 0xecbf5c3d169)>)
0x177bccd6b6f5  comment  (;;; <@30,#24> push-argument)
0x177bccd6b6f7  embedded object  (0xecbf5c04101 <null>)
0x177bccd6b701  comment  (;;; <@32,#16> constant-t)
0x177bccd6b703  embedded object  (0xecbf5c6f749 <FixedArray[112]>)
0x177bccd6b70b  comment  (;;; <@33,#16> gap)
0x177bccd6b70e  comment  (;;; <@34,#25> call-function)
0x177bccd6b70f  code target (STUB)  (0x177bccd2c5e0)
0x177bccd6b713  comment  (;;; <@35,#25> gap)
0x177bccd6b71a  comment  (;;; <@36,#26> lazy-bailout)
0x177bccd6b71a  comment  (;;; <@38,#16> constant-t)
0x177bccd6b71c  embedded object  (0xecbf5c6f749 <FixedArray[112]>)
0x177bccd6b724  comment  (;;; <@40,#373> constant-t)
0x177bccd6b727  comment  (;;; <@41,#373> gap)
0x177bccd6b72a  comment  (;;; <@42,#31> store-named-generic)
0x177bccd6b72c  embedded object  (0x1638fe32c461 <String[3]: foo>)
0x177bccd6b735  code target (STORE_IC)  (0x177bccd305a0)
0x177bccd6b739  comment  (;;; <@44,#32> lazy-bailout)
0x177bccd6b739  comment  (;;; <@46,#16> constant-t)
0x177bccd6b73b  embedded object  (0xecbf5c6f749 <FixedArray[112]>)
0x177bccd6b743  comment  (;;; <@48,#35> load-named-field)
0x177bccd6b747  comment  (;;; <@50,#36> load-named-field)
0x177bccd6b74b  comment  (;;; <@52,#37> load-named-field)
0x177bccd6b752  comment  (;;; <@54,#39> push-argument)
0x177bccd6b755  comment  (;;; <@56,#39> push-argument)
0x177bccd6b757  embedded object  (0x1638fe32c461 <String[3]: foo>)
0x177bccd6b761  comment  (;;; <@58,#39> push-argument)
0x177bccd6b763  comment  (;;; <@60,#16> constant-t)
0x177bccd6b765  embedded object  (0xecbf5c6f749 <FixedArray[112]>)
0x177bccd6b76d  comment  (;;; <@62,#40> invoke-function)
0x177bccd6b789  code target (BUILTIN)  (0x177bccd06da0)
0x177bccd6b791  comment  (;;; <@64,#41> lazy-bailout)
0x177bccd6b791  comment  (;;; <@68,#46> -------------------- B2 --------------------)
0x177bccd6b791  comment  (;;; <@69,#46> gap)
0x177bccd6b799  comment  (;;; <@70,#50> load-named-generic)
0x177bccd6b7a0  embedded object  (0x1638fe30f489 <String[6]: length>)
0x177bccd6b7a9  code target (LOAD_IC)  (0x177bccd30520)
0x177bccd6b7ad  comment  (;;; <@71,#50> gap)
0x177bccd6b7b4  comment  (;;; <@72,#51> lazy-bailout)
0x177bccd6b7b4  comment  (;;; <@73,#51> gap)
0x177bccd6b7b7  comment  (;;; <@74,#375> tagged-to-i)
0x177bccd6b7b7  position  (444)
0x177bccd6b7c5  comment  (;;; <@75,#375> gap)
0x177bccd6b7cd  comment  (;;; <@76,#81> check-non-smi)
0x177bccd6b7d7  comment  (;;; <@77,#81> gap)
0x177bccd6b7db  comment  (;;; <@78,#134> check-non-smi)
0x177bccd6b7db  position  (192)
0x177bccd6b7e5  comment  (;;; <@80,#66> gap)
0x177bccd6b7e8  position  (444)
0x177bccd6b7e8  comment  (;;; <@82,#67> -------------------- B3 (loop header) --------------------)
0x177bccd6b7ec  comment  (;;; <@85,#70> compare-numeric-and-branch)
0x177bccd6b7f5  comment  (;;; <@86,#71> -------------------- B4 (unreachable/replaced) --------------------)
0x177bccd6b7f5  comment  (;;; <@90,#77> -------------------- B5 --------------------)
0x177bccd6b7f5  comment  (;;; <@92,#79> stack-check)
0x177bccd6b802  comment  (;;; <@94,#82> check-maps)
0x177bccd6b804  embedded object  (0x1b4f13c13b09 <Map(elements=3)>)
0x177bccd6b816  comment  (;;; <@96,#83> load-named-field)
0x177bccd6b81a  comment  (;;; <@98,#84> load-named-field)
0x177bccd6b81e  comment  (;;; <@100,#85> bounds-check)
0x177bccd6b827  comment  (;;; <@102,#86> load-keyed)
0x177bccd6b836  comment  (;;; <@103,#86> gap)
0x177bccd6b83a  comment  (;;; <@104,#89> check-non-smi)
0x177bccd6b844  comment  (;;; <@106,#90> check-maps)
0x177bccd6b846  embedded object  (0x1b4f13c13ac1 <Map(elements=3)>)
0x177bccd6b858  comment  (;;; <@108,#91> load-named-field)
0x177bccd6b85c  comment  (;;; <@110,#102> check-maps)
0x177bccd6b85e  embedded object  (0x1b4f13c13ac1 <Map(elements=3)>)
0x177bccd6b870  comment  (;;; <@112,#103> load-named-field)
0x177bccd6b874  comment  (;;; <@115,#104> branch)
0x177bccd6b891  runtime entry  (deoptimization bailout 13)
0x177bccd6b895  comment  (;;; <@116,#108> -------------------- B6 (unreachable/replaced) --------------------)
0x177bccd6b895  position  (192)
0x177bccd6b895  comment  (;;; <@120,#111> -------------------- B7 --------------------)
0x177bccd6b895  comment  (;;; <@122,#112> load-global-cell)
0x177bccd6b897  property cell
0x177bccd6b8a2  comment  (;;; <@124,#376> tagged-to-i)
0x177bccd6b8af  comment  (;;; <@125,#376> gap)
0x177bccd6b8b2  comment  (;;; <@126,#115> add-i)
0x177bccd6b8bb  comment  (;;; <@128,#378> smi-tag)
0x177bccd6b8c1  comment  (;;; <@130,#116> store-global-cell)
0x177bccd6b8c3  property cell
0x177bccd6b8ce  comment  (;;; <@132,#377> smi-tag)
0x177bccd6b8d4  comment  (;;; <@134,#119> store-named-field)
0x177bccd6b8d8  comment  (;;; <@138,#105> -------------------- B8 (unreachable/replaced) --------------------)
0x177bccd6b8d8  comment  (;;; <@142,#123> -------------------- B9 (unreachable/replaced) --------------------)
0x177bccd6b8d8  comment  (;;; <@146,#126> -------------------- B10 --------------------)
0x177bccd6b8d8  comment  (;;; <@148,#128> load-named-field)
0x177bccd6b8dc  comment  (;;; <@149,#128> gap)
0x177bccd6b8e0  comment  (;;; <@152,#132> -------------------- B11 --------------------)
0x177bccd6b8e0  comment  (;;; <@155,#135> cmp-map-and-branch)
0x177bccd6b8e2  embedded object  (0x1b4f13c139e9 <Map(elements=3)>)
0x177bccd6b8f4  comment  (;;; <@156,#144> -------------------- B12 --------------------)
0x177bccd6b8f4  comment  (;;; <@159,#145> cmp-map-and-branch)
0x177bccd6b8f6  embedded object  (0x1b4f13c13b51 <Map(elements=6)>)
0x177bccd6b908  comment  (;;; <@160,#149> -------------------- B13 --------------------)
0x177bccd6b908  comment  (;;; <@163,#150> cmp-map-and-branch)
0x177bccd6b90a  embedded object  (0x1b4f13c13b99 <Map(elements=3)>)
0x177bccd6b91c  comment  (;;; <@164,#151> -------------------- B14 --------------------)
0x177bccd6b91c  comment  (;;; <@166,#152> load-named-field)
0x177bccd6b920  comment  (;;; <@168,#153> check-maps)
0x177bccd6b922  embedded object  (0x1b4f13c04221 <Map(elements=0)>)
0x177bccd6b934  comment  (;;; <@170,#154> load-named-field)
0x177bccd6b937  comment  (;;; <@171,#154> gap)
0x177bccd6b93a  comment  (;;; <@172,#379> tagged-to-i)
0x177bccd6b947  comment  (;;; <@174,#155> bounds-check)
0x177bccd6b94f  comment  (;;; <@176,#157> store-keyed)
0x177bccd6b983  code target (STUB)  (0x177bccd6ac00)
0x177bccd6b987  comment  (;;; <@178,#158> gap)
0x177bccd6b98a  comment  (;;; <@179,#158> goto)
0x177bccd6b98f  comment  (;;; <@180,#146> -------------------- B15 --------------------)
0x177bccd6b98f  comment  (;;; <@181,#146> gap)
0x177bccd6b99c  comment  (;;; <@182,#147> store-keyed-generic)
0x177bccd6b99d  code target (KEYED_STORE_IC)  (0x177bccd36e20)
0x177bccd6b9a1  comment  (;;; <@184,#147> lazy-bailout)
0x177bccd6b9a1  comment  (;;; <@186,#148> gap)
0x177bccd6b9a5  comment  (;;; <@187,#148> goto)
0x177bccd6b9aa  comment  (;;; <@188,#136> -------------------- B16 --------------------)
0x177bccd6b9aa  comment  (;;; <@189,#136> gap)
0x177bccd6b9ae  comment  (;;; <@190,#137> load-named-field)
0x177bccd6b9b2  comment  (;;; <@192,#138> check-maps)
0x177bccd6b9b4  embedded object  (0x1b4f13c04221 <Map(elements=0)>)
0x177bccd6b9c6  comment  (;;; <@194,#139> load-named-field)
0x177bccd6b9c9  comment  (;;; <@195,#139> gap)
0x177bccd6b9cd  comment  (;;; <@196,#380> tagged-to-i)
0x177bccd6b9da  comment  (;;; <@198,#140> bounds-check)
0x177bccd6b9e2  comment  (;;; <@199,#140> gap)
0x177bccd6b9e9  comment  (;;; <@200,#142> store-keyed)
0x177bccd6ba1a  code target (STUB)  (0x177bccd59720)
0x177bccd6ba1e  comment  (;;; <@204,#163> -------------------- B17 --------------------)
0x177bccd6ba1e  comment  (;;; <@205,#163> gap)
0x177bccd6ba22  comment  (;;; <@206,#166> add-i)
0x177bccd6ba22  position  (450)
0x177bccd6ba26  comment  (;;; <@208,#169> gap)
0x177bccd6ba35  comment  (;;; <@209,#169> goto)
0x177bccd6ba3a  position  (192)
0x177bccd6ba3a  comment  (;;; <@210,#159> -------------------- B18 --------------------)
0x177bccd6ba40  comment  (;;; <@213,#160> deoptimize)
0x177bccd6ba40  comment  (;;; deoptimize: Unknown map in polymorphic element access)
0x177bccd6ba41  runtime entry  (deoptimization bailout 20)
0x177bccd6ba45  comment  (;;; <@214,#161> -------------------- B19 (unreachable/replaced) --------------------)
0x177bccd6ba45  position  (444)
0x177bccd6ba45  comment  (;;; <@216,#74> -------------------- B20 --------------------)
0x177bccd6ba48  position  (450)
0x177bccd6ba48  comment  (;;; <@220,#170> -------------------- B21 --------------------)
0x177bccd6ba48  comment  (;;; <@221,#170> gap)
0x177bccd6ba50  comment  (;;; <@222,#171> load-named-generic)
0x177bccd6ba52  embedded object  (0x1638fe30f489 <String[6]: length>)
0x177bccd6ba5b  code target (LOAD_IC)  (0x177bccd30520)
0x177bccd6ba5f  comment  (;;; <@224,#172> lazy-bailout)
0x177bccd6ba5f  comment  (;;; <@225,#172> gap)
0x177bccd6ba67  comment  (;;; <@226,#173> store-named-generic)
0x177bccd6ba6e  embedded object  (0x1638fe30f489 <String[6]: length>)
0x177bccd6ba77  code target (STORE_IC)  (0x177bccd305a0)
0x177bccd6ba7b  comment  (;;; <@228,#174> lazy-bailout)
0x177bccd6ba7b  comment  (;;; <@229,#174> gap)
0x177bccd6ba83  comment  (;;; <@230,#177> load-named-generic)
0x177bccd6ba8a  embedded object  (0x1638fe30f489 <String[6]: length>)
0x177bccd6ba93  code target (LOAD_IC)  (0x177bccd30520)
0x177bccd6ba97  comment  (;;; <@232,#178> lazy-bailout)
0x177bccd6ba97  comment  (;;; <@235,#181> goto)
0x177bccd6ba9c  comment  (;;; <@236,#185> -------------------- B22 (OSR entry) --------------------)
0x177bccd6baa3  comment  (;;; <@264,#200> context)
0x177bccd6baa7  comment  (;;; <@265,#200> gap)
0x177bccd6baab  comment  (;;; <@266,#382> tagged-to-i)
0x177bccd6bab7  comment  (;;; <@267,#382> gap)
0x177bccd6babb  comment  (;;; <@268,#383> tagged-to-i)
0x177bccd6bac8  comment  (;;; <@270,#202> gap)
0x177bccd6bae2  comment  (;;; <@271,#202> goto)
0x177bccd6bae7  comment  (;;; <@272,#182> -------------------- B23 --------------------)
0x177bccd6bae7  comment  (;;; <@273,#182> gap)
0x177bccd6baea  comment  (;;; <@274,#381> tagged-to-i)
0x177bccd6baf7  comment  (;;; <@276,#184> gap)
0x177bccd6bb11  comment  (;;; <@278,#227> -------------------- B24 --------------------)
0x177bccd6bb3f  comment  (;;; <@280,#244> check-non-smi)
0x177bccd6bb3f  position  (650)
0x177bccd6bb49  comment  (;;; <@282,#328> check-non-smi)
0x177bccd6bb49  position  (789)
0x177bccd6bb51  comment  (;;; <@284,#311> check-value)
0x177bccd6bb53  embedded object  (0xecbf5c621e9 <JS Function ident (SharedFunctionInfo 0xecbf5c61ca9)>)
0x177bccd6bb64  comment  (;;; <@286,#343> check-non-smi)
0x177bccd6bb6e  comment  (;;; <@288,#229> gap)
0x177bccd6bb6e  position  (450)
0x177bccd6bb71  position  (650)
0x177bccd6bb71  comment  (;;; <@290,#230> -------------------- B25 (loop header) --------------------)
0x177bccd6bb78  comment  (;;; <@293,#233> compare-numeric-and-branch)
0x177bccd6bb81  comment  (;;; <@294,#234> -------------------- B26 (unreachable/replaced) --------------------)
0x177bccd6bb81  comment  (;;; <@298,#240> -------------------- B27 --------------------)
0x177bccd6bb81  comment  (;;; <@300,#242> stack-check)
0x177bccd6bb8e  comment  (;;; <@302,#245> check-maps)
0x177bccd6bb90  embedded object  (0x1b4f13c0d5c9 <Map(elements=2)>)
0x177bccd6bba2  comment  (;;; <@304,#246> load-named-field)
0x177bccd6bba6  comment  (;;; <@306,#247> load-named-field)
0x177bccd6bbaa  comment  (;;; <@308,#248> bounds-check)
0x177bccd6bbb3  comment  (;;; <@310,#249> load-keyed)
0x177bccd6bbb8  comment  (;;; <@311,#249> gap)
0x177bccd6bbbf  comment  (;;; <@312,#265> check-non-smi)
0x177bccd6bbc8  comment  (;;; <@314,#266> check-maps)
0x177bccd6bbca  embedded object  (0x1b4f13c13ac1 <Map(elements=3)>)
0x177bccd6bbdc  comment  (;;; <@316,#267> load-named-field)
0x177bccd6bbe0  comment  (;;; <@319,#268> branch)
0x177bccd6bbfd  runtime entry  (deoptimization bailout 33)
0x177bccd6bc01  comment  (;;; <@320,#272> -------------------- B28 (unreachable/replaced) --------------------)
0x177bccd6bc01  position  (192)
0x177bccd6bc01  comment  (;;; <@324,#275> -------------------- B29 --------------------)
0x177bccd6bc01  comment  (;;; <@326,#276> load-global-cell)
0x177bccd6bc03  property cell
0x177bccd6bc0e  comment  (;;; <@328,#385> tagged-to-i)
0x177bccd6bc1b  comment  (;;; <@329,#385> gap)
0x177bccd6bc1e  comment  (;;; <@330,#278> add-i)
0x177bccd6bc27  comment  (;;; <@332,#387> smi-tag)
0x177bccd6bc2d  comment  (;;; <@334,#279> store-global-cell)
0x177bccd6bc2f  property cell
0x177bccd6bc3a  comment  (;;; <@336,#386> smi-tag)
0x177bccd6bc40  comment  (;;; <@338,#283> store-named-field)
0x177bccd6bc44  comment  (;;; <@342,#269> -------------------- B30 (unreachable/replaced) --------------------)
0x177bccd6bc44  comment  (;;; <@346,#287> -------------------- B31 (unreachable/replaced) --------------------)
0x177bccd6bc44  comment  (;;; <@350,#290> -------------------- B32 --------------------)
0x177bccd6bc44  comment  (;;; <@352,#293> load-named-field)
0x177bccd6bc48  comment  (;;; <@353,#293> gap)
0x177bccd6bc4f  comment  (;;; <@356,#297> -------------------- B33 --------------------)
0x177bccd6bc4f  comment  (;;; <@357,#297> gap)
0x177bccd6bc59  comment  (;;; <@358,#301> load-keyed-generic)
0x177bccd6bc59  position  (789)
0x177bccd6bc5a  code target (KEYED_LOAD_IC)  (0x177bccd34860)
0x177bccd6bc5e  comment  (;;; <@360,#302> lazy-bailout)
0x177bccd6bc5e  comment  (;;; <@363,#303> cmp-object-eq-and-branch)
0x177bccd6bc60  embedded object  (0xecbf5c04121 <undefined>)
0x177bccd6bc71  comment  (;;; <@364,#307> -------------------- B34 (unreachable/replaced) --------------------)
0x177bccd6bc71  comment  (;;; <@368,#325> -------------------- B35 --------------------)
0x177bccd6bc71  comment  (;;; <@369,#325> gap)
0x177bccd6bc75  comment  (;;; <@370,#329> check-maps)
0x177bccd6bc77  embedded object  (0x1b4f13c13b99 <Map(elements=3)>)
0x177bccd6bc89  comment  (;;; <@372,#330> load-named-field)
0x177bccd6bc8d  comment  (;;; <@374,#331> load-named-field)
0x177bccd6bc90  comment  (;;; <@375,#331> gap)
0x177bccd6bc97  comment  (;;; <@376,#388> tagged-to-i)
0x177bccd6bca4  comment  (;;; <@378,#332> bounds-check)
0x177bccd6bcac  comment  (;;; <@380,#333> load-keyed)
0x177bccd6bcbb  comment  (;;; <@383,#338> goto)
0x177bccd6bcc0  comment  (;;; <@384,#304> -------------------- B36 --------------------)
0x177bccd6bcc4  comment  (;;; <@388,#310> -------------------- B37 --------------------)
0x177bccd6bcc4  comment  (;;; <@390,#314> push-argument)
0x177bccd6bcc6  embedded object  (0xecbf5c60321 <JS Global Object>)
0x177bccd6bcd0  comment  (;;; <@392,#314> push-argument)
0x177bccd6bcd6  comment  (;;; <@393,#314> gap)
0x177bccd6bce4  comment  (;;; <@394,#315> invoke-function)
0x177bccd6bceb  comment  (;;; <@396,#316> lazy-bailout)
0x177bccd6bceb  comment  (;;; <@398,#320> check-non-smi)
0x177bccd6bcf3  comment  (;;; <@400,#321> check-maps)
0x177bccd6bcf5  embedded object  (0x1b4f13c13ac1 <Map(elements=3)>)
0x177bccd6bd07  comment  (;;; <@401,#321> gap)
0x177bccd6bd0e  comment  (;;; <@402,#323> store-named-field)
0x177bccd6bd34  code target (STUB)  (0x177bccd63b60)
0x177bccd6bd38  comment  (;;; <@404,#336> gap)
0x177bccd6bd3b  comment  (;;; <@406,#340> -------------------- B38 --------------------)
0x177bccd6bd42  comment  (;;; <@408,#344> gap)
0x177bccd6bd49  comment  (;;; <@409,#344> cmp-map-and-branch)
0x177bccd6bd4b  embedded object  (0x1b4f13c13a31 <Map(elements=6)>)
0x177bccd6bd5d  comment  (;;; <@410,#348> -------------------- B39 --------------------)
0x177bccd6bd5d  comment  (;;; <@413,#349> cmp-map-and-branch)
0x177bccd6bd5f  embedded object  (0x1b4f13c13b09 <Map(elements=3)>)
0x177bccd6bd71  comment  (;;; <@414,#350> -------------------- B40 --------------------)
0x177bccd6bd71  comment  (;;; <@416,#351> load-named-field)
0x177bccd6bd75  comment  (;;; <@418,#352> check-maps)
0x177bccd6bd77  embedded object  (0x1b4f13c04221 <Map(elements=0)>)
0x177bccd6bd89  comment  (;;; <@420,#353> load-named-field)
0x177bccd6bd8c  comment  (;;; <@421,#353> gap)
0x177bccd6bd93  comment  (;;; <@422,#354> bounds-check)
0x177bccd6bd9c  comment  (;;; <@423,#354> gap)
0x177bccd6bda2  comment  (;;; <@424,#356> store-keyed)
0x177bccd6bdd3  code target (STUB)  (0x177bccd645c0)
0x177bccd6bdd7  comment  (;;; <@427,#357> goto)
0x177bccd6bddc  comment  (;;; <@428,#345> -------------------- B41 --------------------)
0x177bccd6bde3  comment  (;;; <@430,#384> smi-tag)
0x177bccd6bdea  comment  (;;; <@431,#384> gap)
0x177bccd6bdf7  comment  (;;; <@432,#346> store-keyed-generic)
0x177bccd6bdf8  code target (KEYED_STORE_IC)  (0x177bccd36e20)
0x177bccd6bdfc  comment  (;;; <@434,#346> lazy-bailout)
0x177bccd6bdfc  comment  (;;; <@438,#362> -------------------- B42 --------------------)
0x177bccd6bdfc  comment  (;;; <@439,#362> gap)
0x177bccd6be03  comment  (;;; <@440,#365> add-i)
0x177bccd6be03  position  (656)
0x177bccd6be07  comment  (;;; <@442,#368> gap)
0x177bccd6be31  comment  (;;; <@443,#368> goto)
0x177bccd6be36  position  (789)
0x177bccd6be36  comment  (;;; <@444,#358> -------------------- B43 --------------------)
0x177bccd6be3d  comment  (;;; <@447,#359> deoptimize)
0x177bccd6be3d  comment  (;;; deoptimize: Unknown map in polymorphic element access)
0x177bccd6be3e  runtime entry  (deoptimization bailout 44)
0x177bccd6be42  comment  (;;; <@448,#360> -------------------- B44 (unreachable/replaced) --------------------)
0x177bccd6be42  comment  (;;; <@450,#237> -------------------- B45 (unreachable/replaced) --------------------)
0x177bccd6be42  position  (656)
0x177bccd6be42  comment  (;;; <@454,#369> -------------------- B46 --------------------)
0x177bccd6be42  comment  (;;; <@456,#7> constant-t)
0x177bccd6be44  embedded object  (0xecbf5c04121 <undefined>)
0x177bccd6be4c  comment  (;;; <@458,#371> return)
0x177bccd6be53  position  (444)
0x177bccd6be53  comment  (;;; <@74,#375> -------------------- Deferred tagged-to-i --------------------)
0x177bccd6be71  comment  (Deferred TaggedToI: lost precision)
0x177bccd6be73  comment  (Deferred TaggedToI: NaN)
0x177bccd6be7b  runtime entry  (deoptimization bailout 45)
0x177bccd6be84  comment  (;;; <@92,#79> -------------------- Deferred stack-check --------------------)
0x177bccd6bea7  code target (STUB)  (0x177bccd062a0)
0x177bccd6bec5  comment  (;;; <@106,#90> -------------------- Deferred check-maps --------------------)
0x177bccd6beeb  code target (STUB)  (0x177bccd062a0)
0x177bccd6bf11  comment  (;;; <@110,#102> -------------------- Deferred check-maps --------------------)
0x177bccd6bf36  code target (STUB)  (0x177bccd062a0)
0x177bccd6bf5c  position  (192)
0x177bccd6bf5c  comment  (;;; <@124,#376> -------------------- Deferred tagged-to-i --------------------)
0x177bccd6bf7a  comment  (Deferred TaggedToI: lost precision)
0x177bccd6bf7c  comment  (Deferred TaggedToI: NaN)
0x177bccd6bf91  runtime entry  (deoptimization bailout 48)
0x177bccd6bf9a  comment  (;;; <@172,#379> -------------------- Deferred tagged-to-i --------------------)
0x177bccd6bfb8  comment  (Deferred TaggedToI: lost precision)
0x177bccd6bfba  comment  (Deferred TaggedToI: NaN)
0x177bccd6bfc2  runtime entry  (deoptimization bailout 49)
0x177bccd6bfcb  comment  (;;; <@196,#380> -------------------- Deferred tagged-to-i --------------------)
0x177bccd6bfe9  comment  (Deferred TaggedToI: lost precision)
0x177bccd6bfeb  comment  (Deferred TaggedToI: NaN)
0x177bccd6bff3  runtime entry  (deoptimization bailout 50)
0x177bccd6bffc  position  (450)
0x177bccd6bffc  comment  (;;; <@266,#382> -------------------- Deferred tagged-to-i --------------------)
0x177bccd6c01a  comment  (Deferred TaggedToI: lost precision)
0x177bccd6c01c  comment  (Deferred TaggedToI: NaN)
0x177bccd6c031  runtime entry  (deoptimization bailout 51)
0x177bccd6c03a  comment  (;;; <@268,#383> -------------------- Deferred tagged-to-i --------------------)
0x177bccd6c058  comment  (Deferred TaggedToI: lost precision)
0x177bccd6c05a  comment  (Deferred TaggedToI: NaN)
0x177bccd6c062  runtime entry  (deoptimization bailout 52)
0x177bccd6c06b  comment  (;;; <@274,#381> -------------------- Deferred tagged-to-i --------------------)
0x177bccd6c089  comment  (Deferred TaggedToI: lost precision)
0x177bccd6c08b  comment  (Deferred TaggedToI: NaN)
0x177bccd6c093  runtime entry  (deoptimization bailout 53)
0x177bccd6c09c  position  (650)
0x177bccd6c09c  comment  (;;; <@300,#242> -------------------- Deferred stack-check --------------------)
0x177bccd6c0bf  code target (STUB)  (0x177bccd062a0)
0x177bccd6c0dd  comment  (;;; <@314,#266> -------------------- Deferred check-maps --------------------)
0x177bccd6c102  code target (STUB)  (0x177bccd062a0)
0x177bccd6c128  position  (192)
0x177bccd6c128  comment  (;;; <@328,#385> -------------------- Deferred tagged-to-i --------------------)
0x177bccd6c146  comment  (Deferred TaggedToI: lost precision)
0x177bccd6c148  comment  (Deferred TaggedToI: NaN)
0x177bccd6c15d  runtime entry  (deoptimization bailout 55)
0x177bccd6c166  position  (789)
0x177bccd6c166  comment  (;;; <@376,#388> -------------------- Deferred tagged-to-i --------------------)
0x177bccd6c184  comment  (Deferred TaggedToI: lost precision)
0x177bccd6c186  comment  (Deferred TaggedToI: NaN)
0x177bccd6c18e  runtime entry  (deoptimization bailout 56)
0x177bccd6c197  comment  (;;; <@400,#321> -------------------- Deferred check-maps --------------------)
0x177bccd6c1bc  code target (STUB)  (0x177bccd062a0)
0x177bccd6c1e2  comment  (;;; -------------------- Jump table --------------------)
0x177bccd6c1e2  comment  (;;; jump table entry 0: deoptimization bailout 6.)
0x177bccd6c1e3  runtime entry  (deoptimization bailout 6)
0x177bccd6c1e7  comment  (;;; jump table entry 1: deoptimization bailout 7.)
0x177bccd6c1e8  runtime entry  (deoptimization bailout 7)
0x177bccd6c1ec  comment  (;;; jump table entry 2: deoptimization bailout 9.)
0x177bccd6c1ed  runtime entry  (deoptimization bailout 9)
0x177bccd6c1f1  comment  (;;; jump table entry 3: deoptimization bailout 10.)
0x177bccd6c1f2  runtime entry  (deoptimization bailout 10)
0x177bccd6c1f6  comment  (;;; jump table entry 4: deoptimization bailout 11.)
0x177bccd6c1f7  runtime entry  (deoptimization bailout 11)
0x177bccd6c1fb  comment  (;;; jump table entry 5: deoptimization bailout 12.)
0x177bccd6c1fc  runtime entry  (deoptimization bailout 12)
0x177bccd6c200  comment  (;;; jump table entry 6: deoptimization bailout 14.)
0x177bccd6c201  runtime entry  (deoptimization bailout 14)
0x177bccd6c205  comment  (;;; jump table entry 7: deoptimization bailout 15.)
0x177bccd6c206  runtime entry  (deoptimization bailout 15)
0x177bccd6c20a  comment  (;;; jump table entry 8: deoptimization bailout 16.)
0x177bccd6c20b  runtime entry  (deoptimization bailout 16)
0x177bccd6c20f  comment  (;;; jump table entry 9: deoptimization bailout 18.)
0x177bccd6c210  runtime entry  (deoptimization bailout 18)
0x177bccd6c214  comment  (;;; jump table entry 10: deoptimization bailout 19.)
0x177bccd6c215  runtime entry  (deoptimization bailout 19)
0x177bccd6c219  comment  (;;; jump table entry 11: deoptimization bailout 25.)
0x177bccd6c21a  runtime entry  (deoptimization bailout 25)
0x177bccd6c21e  comment  (;;; jump table entry 12: deoptimization bailout 26.)
0x177bccd6c21f  runtime entry  (deoptimization bailout 26)
0x177bccd6c223  comment  (;;; jump table entry 13: deoptimization bailout 27.)
0x177bccd6c224  runtime entry  (deoptimization bailout 27)
0x177bccd6c228  comment  (;;; jump table entry 14: deoptimization bailout 28.)
0x177bccd6c229  runtime entry  (deoptimization bailout 28)
0x177bccd6c22d  comment  (;;; jump table entry 15: deoptimization bailout 30.)
0x177bccd6c22e  runtime entry  (deoptimization bailout 30)
0x177bccd6c232  comment  (;;; jump table entry 16: deoptimization bailout 31.)
0x177bccd6c233  runtime entry  (deoptimization bailout 31)
0x177bccd6c237  comment  (;;; jump table entry 17: deoptimization bailout 32.)
0x177bccd6c238  runtime entry  (deoptimization bailout 32)
0x177bccd6c23c  comment  (;;; jump table entry 18: deoptimization bailout 34.)
0x177bccd6c23d  runtime entry  (deoptimization bailout 34)
0x177bccd6c241  comment  (;;; jump table entry 19: deoptimization bailout 36.)
0x177bccd6c242  runtime entry  (deoptimization bailout 36)
0x177bccd6c246  comment  (;;; jump table entry 20: deoptimization bailout 37.)
0x177bccd6c247  runtime entry  (deoptimization bailout 37)
0x177bccd6c24b  comment  (;;; jump table entry 21: deoptimization bailout 38.)
0x177bccd6c24c  runtime entry  (deoptimization bailout 38)
0x177bccd6c250  comment  (;;; jump table entry 22: deoptimization bailout 40.)
0x177bccd6c251  runtime entry  (deoptimization bailout 40)
0x177bccd6c255  comment  (;;; jump table entry 23: deoptimization bailout 41.)
0x177bccd6c256  runtime entry  (deoptimization bailout 41)
0x177bccd6c25a  comment  (;;; jump table entry 24: deoptimization bailout 42.)
0x177bccd6c25b  runtime entry  (deoptimization bailout 42)
0x177bccd6c25f  comment  (;;; jump table entry 25: deoptimization bailout 46.)
0x177bccd6c260  runtime entry  (deoptimization bailout 46)
0x177bccd6c264  comment  (;;; jump table entry 26: deoptimization bailout 47.)
0x177bccd6c265  runtime entry  (deoptimization bailout 47)
0x177bccd6c269  comment  (;;; jump table entry 27: deoptimization bailout 54.)
0x177bccd6c26a  runtime entry  (deoptimization bailout 54)
0x177bccd6c26e  comment  (;;; jump table entry 28: deoptimization bailout 57.)
0x177bccd6c26f  runtime entry  (deoptimization bailout 57)
0x177bccd6c274  comment  (;;; Safepoint table.)

--- End code ---
[optimizing 0xecbf5c621a1 <JS Function syncMap (SharedFunctionInfo 0xecbf5c61c19)> - took 2.027, 12.722, 18.926 ms]
[deoptimizing (DEOPT eager): begin 0xecbf5c621a1 syncMap (opt #8) @19, FP to SP delta: 208]
            ;;; jump table entry 10: deoptimization bailout 19.
  translating syncMap => node=107, height=72
    0x7fff5fbfe118: [top + 128] <- 0xecbf5c04121 ; [sp + 248] 0xecbf5c04121 <undefined>
    0x7fff5fbfe110: [top + 120] <- 0x13fa3c0c369 ; [sp + 240] 0x13fa3c0c369 <JS Array[50000]>
    0x7fff5fbfe108: [top + 112] <- 0xecbf5c6fad9 ; [sp + 232] 0xecbf5c6fad9 <JS Array[50000]>
    0x7fff5fbfe100: [top + 104] <- 0xecbf5c621e9 ; [sp + 224] 0xecbf5c621e9 <JS Function ident (SharedFunctionInfo 0xecbf5c61ca9)>
    0x7fff5fbfe0f8: [top + 96] <- 0x177bccd5f816 ; caller's pc
    0x7fff5fbfe0f0: [top + 88] <- 0x7fff5fbfe140 ; caller's fp
    0x7fff5fbfe0e8: [top + 80] <- 0xecbf5c6f749; context
    0x7fff5fbfe0e0: [top + 72] <- 0xecbf5c621a1; function
    0x7fff5fbfe0d8: [top + 64] <- 0 ; [sp + 104] (smi)
    0x7fff5fbfe0d0: [top + 56] <- 0xecbf5c04121 <undefined> ; literal
    0x7fff5fbfe0c8: [top + 48] <- 0xc35000000000 ; [sp + 112] 50000
    0x7fff5fbfe0c0: [top + 40] <- 0x1a44083983d9 ; rax 0x1a44083983d9 <an Object with map 0x1b4f13c139e9>
    0x7fff5fbfe0b8: [top + 32] <- 0x13fa3c0cd39 ; [sp + 96] 0x13fa3c0cd39 <an Entry with map 0x1b4f13c13ac1>
    0x7fff5fbfe0b0: [top + 24] <- 0xecbf5c04121 <undefined> ; literal
    0x7fff5fbfe0a8: [top + 16] <- 0xecbf5c04121 <undefined> ; literal
    0x7fff5fbfe0a0: [top + 8] <- 0x1a44083983d9 ; rax 0x1a44083983d9 <an Object with map 0x1b4f13c139e9>
    0x7fff5fbfe098: [top + 0] <- 0xc35000000000 ; [sp + 88] 50000
[deoptimizing (eager): end 0xecbf5c621a1 syncMap @19 => node=107, pc=0x177bccd61a3d, state=NO_REGISTERS, alignment=no padding, took 0.090 ms]
[removing optimized code for: syncMap]
[deoptimize marked code in all contexts]
[deoptimizer found activation of function: guid / ecbf5c62111]
[deoptimizer found activation of function: guid / ecbf5c62111]
[marking 0xecbf5c621a1 <JS Function syncMap (SharedFunctionInfo 0xecbf5c61c19)> for recompilation, reason: hot and stable, ICs with typeinfo: 13/24 (54%)]
Inlined makeMap called from syncMap.
Inlined guid called from syncMap.
Inlined guid called from syncMap.
--- Raw source ---
(mapped, source, mapFn) {\x0a  var i,x, l, guidMap = makeMap();\x0a\x0a  for (i = 0, l = mapped.length; i < l; i++) {\x0a    var mappedItem = mapped[i];\x0a    var sourceItem = mappedItem.__source__;\x0a    guidMap[guid(sourceItem)] = mappedItem;\x0a  }\x0a\x0a  mapped.length = source.length;\x0a\x0a  for (x = 0, l = source.length; x < l; x++) {\x0a    var sourceItem = source[x];\x0a    var sourceItemGuid = guid(source[x]);\x0a    var mappedItem;\x0a\x0a    if (guidMap[sourceItemGuid] === undefined) {\x0a      mappedItem = mapFn(sourceItem);\x0a      mappedItem.__source__ = sourceItem;\x0a    } else {\x0a      mappedItem = guidMap[sourceItemGuid];\x0a    }\x0a\x0a    mapped[x] = mappedItem;\x0a  }\x0a}\x0a

--- Optimized code ---
optimization_id = 9
source_position = 347
kind = OPTIMIZED_FUNCTION
name = syncMap
stack_slots = 21
Instructions (size = 2596)
0x177bccd6d9c0     0  55             push rbp
0x177bccd6d9c1     1  4889e5         REX.W movq rbp,rsp
0x177bccd6d9c4     4  56             push rsi
0x177bccd6d9c5     5  57             push rdi
0x177bccd6d9c6     6  4881eca8000000 REX.W subq rsp,0xa8
                  ;;; <@0,#0> -------------------- B0 --------------------
                  ;;; <@2,#1> context
0x177bccd6d9cd    13  488b45f8       REX.W movq rax,[rbp-0x8]
                  ;;; <@3,#1> gap
0x177bccd6d9d1    17  488945b0       REX.W movq [rbp-0x50],rax
                  ;;; <@14,#10> -------------------- B1 --------------------
                  ;;; <@15,#10> gap
0x177bccd6d9d5    21  488bf0         REX.W movq rsi,rax
                  ;;; <@16,#12> stack-check
0x177bccd6d9d8    24  493ba590070000 REX.W cmpq rsp,[r13+0x790]
0x177bccd6d9df    31  7305           jnc 38  (0x177bccd6d9e6)
0x177bccd6d9e1    33  e85a37fcff     call StackCheck  (0x177bccd31140)    ;; code: BUILTIN
                  ;;; <@18,#12> lazy-bailout
                  ;;; <@20,#16> constant-t
0x177bccd6d9e6    38  48be49f7c6f5cb0e0000 REX.W movq rsi,0xecbf5c6f749    ;; object: 0xecbf5c6f749 <FixedArray[112]>
                  ;;; <@22,#20> constant-t
0x177bccd6d9f0    48  48bab10ec5f5cb0e0000 REX.W movq rdx,0xecbf5c50eb1    ;; object: 0xecbf5c50eb1 <JS Function Object (SharedFunctionInfo 0xecbf5c3d169)>
                  ;;; <@24,#21> load-named-generic
0x177bccd6d9fa    58  48b9a12b31fe38160000 REX.W movq rcx,0x1638fe312ba1    ;; object: 0x1638fe312ba1 <String[6]: create>
0x177bccd6da04    68  e8172bfcff     call 0x177bccd30520     ;; code: LOAD_IC, UNINITIALIZED
                  ;;; <@26,#22> lazy-bailout
                  ;;; <@28,#24> push-argument
0x177bccd6da09    73  49bab10ec5f5cb0e0000 REX.W movq r10,0xecbf5c50eb1    ;; object: 0xecbf5c50eb1 <JS Function Object (SharedFunctionInfo 0xecbf5c3d169)>
0x177bccd6da13    83  4152           push r10
                  ;;; <@30,#24> push-argument
0x177bccd6da15    85  49ba0141c0f5cb0e0000 REX.W movq r10,0xecbf5c04101    ;; object: 0xecbf5c04101 <null>
0x177bccd6da1f    95  4152           push r10
                  ;;; <@32,#16> constant-t
0x177bccd6da21    97  48be49f7c6f5cb0e0000 REX.W movq rsi,0xecbf5c6f749    ;; object: 0xecbf5c6f749 <FixedArray[112]>
                  ;;; <@33,#16> gap
0x177bccd6da2b   107  488bf8         REX.W movq rdi,rax
                  ;;; <@34,#25> call-function
0x177bccd6da2e   110  e8adebfbff     call 0x177bccd2c5e0     ;; code: STUB, CallFunctionStub, argc = 1
                  ;;; <@35,#25> gap
0x177bccd6da33   115  488945a8       REX.W movq [rbp-0x58],rax
0x177bccd6da37   119  488bd8         REX.W movq rbx,rax
                  ;;; <@36,#26> lazy-bailout
                  ;;; <@38,#16> constant-t
0x177bccd6da3a   122  48be49f7c6f5cb0e0000 REX.W movq rsi,0xecbf5c6f749    ;; object: 0xecbf5c6f749 <FixedArray[112]>
                  ;;; <@40,#326> constant-t
0x177bccd6da44   132  4c89e0         REX.W movq rax,r12
                  ;;; <@41,#326> gap
0x177bccd6da47   135  488bd3         REX.W movq rdx,rbx
                  ;;; <@42,#31> store-named-generic
0x177bccd6da4a   138  48b961c432fe38160000 REX.W movq rcx,0x1638fe32c461    ;; object: 0x1638fe32c461 <String[3]: foo>
0x177bccd6da54   148  e8472bfcff     call 0x177bccd305a0     ;; code: STORE_IC, UNINITIALIZED
                  ;;; <@44,#32> lazy-bailout
                  ;;; <@46,#16> constant-t
0x177bccd6da59   153  48be49f7c6f5cb0e0000 REX.W movq rsi,0xecbf5c6f749    ;; object: 0xecbf5c6f749 <FixedArray[112]>
                  ;;; <@48,#35> load-named-field
0x177bccd6da63   163  488b4627       REX.W movq rax,[rsi+0x27]
                  ;;; <@50,#36> load-named-field
0x177bccd6da67   167  488b4017       REX.W movq rax,[rax+0x17]
                  ;;; <@52,#37> load-named-field
0x177bccd6da6b   171  488bb8a7000000 REX.W movq rdi,[rax+0xa7]
                  ;;; <@54,#39> push-argument
0x177bccd6da72   178  ff75a8         push [rbp-0x58]
                  ;;; <@56,#39> push-argument
0x177bccd6da75   181  49ba61c432fe38160000 REX.W movq r10,0x1638fe32c461    ;; object: 0x1638fe32c461 <String[3]: foo>
0x177bccd6da7f   191  4152           push r10
                  ;;; <@58,#39> push-argument
0x177bccd6da81   193  6a00           push 0x0
                  ;;; <@60,#16> constant-t
0x177bccd6da83   195  48be49f7c6f5cb0e0000 REX.W movq rsi,0xecbf5c6f749    ;; object: 0xecbf5c6f749 <FixedArray[112]>
                  ;;; <@62,#40> invoke-function
0x177bccd6da8d   205  488b5727       REX.W movq rdx,[rdi+0x27]
0x177bccd6da91   209  488b772f       REX.W movq rsi,[rdi+0x2f]
0x177bccd6da95   213  48635a63       REX.W movsxlq rbx,[rdx+0x63]
0x177bccd6da99   217  488b5717       REX.W movq rdx,[rdi+0x17]
0x177bccd6da9d   221  4883fb02       REX.W cmpq rbx,0x2
0x177bccd6daa1   225  740c           jz 239  (0x177bccd6daaf)
0x177bccd6daa3   227  b802000000     movl rax,0x2
0x177bccd6daa8   232  e8f392f9ff     call ArgumentsAdaptorTrampoline  (0x177bccd06da0)    ;; code: BUILTIN
0x177bccd6daad   237  eb02           jmp 241  (0x177bccd6dab1)
0x177bccd6daaf   239  ffd2           call rdx
                  ;;; <@64,#41> lazy-bailout
                  ;;; <@68,#46> -------------------- B2 --------------------
                  ;;; <@69,#46> gap
0x177bccd6dab1   241  488b75b0       REX.W movq rsi,[rbp-0x50]
0x177bccd6dab5   245  488b5520       REX.W movq rdx,[rbp+0x20]
                  ;;; <@70,#50> load-named-generic
0x177bccd6dab9   249  0f1f440000     nop
0x177bccd6dabe   254  48b989f430fe38160000 REX.W movq rcx,0x1638fe30f489    ;; object: 0x1638fe30f489 <String[6]: length>
0x177bccd6dac8   264  e8532afcff     call 0x177bccd30520     ;; code: LOAD_IC, UNINITIALIZED
                  ;;; <@72,#51> lazy-bailout
                  ;;; <@75,#54> goto
0x177bccd6dacd   269  e948000000     jmp 346  (0x177bccd6db1a)
                  ;;; <@76,#58> -------------------- B3 (OSR entry) --------------------
0x177bccd6dad2   274  4883ec70       REX.W subq rsp,0x70
                  ;;; <@104,#73> context
0x177bccd6dad6   278  488b75f8       REX.W movq rsi,[rbp-0x8]
                  ;;; <@105,#73> gap
0x177bccd6dada   282  488b45e8       REX.W movq rax,[rbp-0x18]
                  ;;; <@106,#329> tagged-to-i
0x177bccd6dade   286  a801           test al,0x1
0x177bccd6dae0   288  0f8565040000   jnz 1419  (0x177bccd6df4b)
0x177bccd6dae6   294  48c1e820       REX.W shrq rax,32
                  ;;; <@107,#329> gap
0x177bccd6daea   298  488b5dd8       REX.W movq rbx,[rbp-0x28]
                  ;;; <@108,#330> tagged-to-i
0x177bccd6daee   302  f6c301         testb rbx,0x1
0x177bccd6daf1   305  0f8585040000   jnz 1468  (0x177bccd6df7c)
0x177bccd6daf7   311  48c1eb20       REX.W shrq rbx,32
                  ;;; <@110,#75> gap
0x177bccd6dafb   315  4c8b5d28       REX.W movq r11,[rbp+0x28]
0x177bccd6daff   319  4c8b4d20       REX.W movq r9,[rbp+0x20]
0x177bccd6db03   323  4c8b4518       REX.W movq r8,[rbp+0x18]
0x177bccd6db07   327  488b7d10       REX.W movq rdi,[rbp+0x10]
0x177bccd6db0b   331  488bce         REX.W movq rcx,rsi
0x177bccd6db0e   334  488bd0         REX.W movq rdx,rax
0x177bccd6db11   337  488b45d0       REX.W movq rax,[rbp-0x30]
                  ;;; <@111,#75> goto
0x177bccd6db15   341  e92a000000     jmp 388  (0x177bccd6db44)
                  ;;; <@112,#55> -------------------- B4 --------------------
                  ;;; <@113,#55> gap
0x177bccd6db1a   346  488bd8         REX.W movq rbx,rax
                  ;;; <@114,#328> tagged-to-i
0x177bccd6db1d   349  f6c301         testb rbx,0x1
0x177bccd6db20   352  0f8587040000   jnz 1517  (0x177bccd6dfad)
0x177bccd6db26   358  48c1eb20       REX.W shrq rbx,32
                  ;;; <@116,#57> gap
0x177bccd6db2a   362  4c8b5d28       REX.W movq r11,[rbp+0x28]
0x177bccd6db2e   366  4c8b4d20       REX.W movq r9,[rbp+0x20]
0x177bccd6db32   370  4c8b4518       REX.W movq r8,[rbp+0x18]
0x177bccd6db36   374  488b7d10       REX.W movq rdi,[rbp+0x10]
0x177bccd6db3a   378  488b4db0       REX.W movq rcx,[rbp-0x50]
0x177bccd6db3e   382  488b45a8       REX.W movq rax,[rbp-0x58]
0x177bccd6db42   386  33d2           xorl rdx,rdx
                  ;;; <@118,#100> -------------------- B5 --------------------
0x177bccd6db44   388  4c899d78ffffff REX.W movq [rbp-0x88],r11
0x177bccd6db4b   395  4c894d80       REX.W movq [rbp-0x80],r9
0x177bccd6db4f   399  4c894588       REX.W movq [rbp-0x78],r8
0x177bccd6db53   403  48897d90       REX.W movq [rbp-0x70],rdi
0x177bccd6db57   407  48894d98       REX.W movq [rbp-0x68],rcx
0x177bccd6db5b   411  488945a0       REX.W movq [rbp-0x60],rax
                  ;;; <@120,#117> check-non-smi
0x177bccd6db5f   415  41f6c101       testb r9,0x1            ;; debug: position 444
0x177bccd6db63   419  0f840b070000   jz 2228  (0x177bccd6e274)
                  ;;; <@122,#118> check-maps
0x177bccd6db69   425  49ba093bc1134f1b0000 REX.W movq r10,0x1b4f13c13b09    ;; object: 0x1b4f13c13b09 <Map(elements=3)>
0x177bccd6db73   435  4d3951ff       REX.W cmpq [r9-0x1],r10
0x177bccd6db77   439  0f85fc060000   jnz 2233  (0x177bccd6e279)
                  ;;; <@124,#119> load-named-field
0x177bccd6db7d   445  498b710f       REX.W movq rsi,[r9+0xf]
                  ;;; <@126,#120> load-named-field
0x177bccd6db81   449  458b711b       movl r14,[r9+0x1b]
                  ;;; <@128,#170> check-non-smi
0x177bccd6db85   453  a801           test al,0x1             ;; debug: position 192
0x177bccd6db87   455  0f84f1060000   jz 2238  (0x177bccd6e27e)
                  ;;; <@130,#171> check-maps
0x177bccd6db8d   461  49ba293cc1134f1b0000 REX.W movq r10,0x1b4f13c13c29    ;; object: 0x1b4f13c13c29 <Map(elements=3)>
0x177bccd6db97   471  4c3950ff       REX.W cmpq [rax-0x1],r10
0x177bccd6db9b   475  0f85e2060000   jnz 2243  (0x177bccd6e283)
                  ;;; <@132,#172> load-named-field
0x177bccd6dba1   481  4c8b780f       REX.W movq r15,[rax+0xf]
                  ;;; <@134,#173> check-maps
0x177bccd6dba5   485  49ba2142c0134f1b0000 REX.W movq r10,0x1b4f13c04221    ;; object: 0x1b4f13c04221 <Map(elements=0)>
0x177bccd6dbaf   495  4d3957ff       REX.W cmpq [r15-0x1],r10
0x177bccd6dbb3   499  0f85cf060000   jnz 2248  (0x177bccd6e288)
                  ;;; <@136,#174> load-named-field
0x177bccd6dbb9   505  418b470b       movl rax,[r15+0xb]
                  ;;; <@140,#103> -------------------- B6 (loop header) --------------------
                  ;;; <@143,#106> compare-numeric-and-branch
0x177bccd6dbbd   509  3bd3           cmpl rdx,rbx            ;; debug: position 444
0x177bccd6dbbf   511  0f8d25010000   jge 810  (0x177bccd6dcea)
                  ;;; <@144,#107> -------------------- B7 (unreachable/replaced) --------------------
                  ;;; <@148,#113> -------------------- B8 --------------------
                  ;;; <@150,#115> stack-check
0x177bccd6dbc5   517  493ba590070000 REX.W cmpq rsp,[r13+0x790]
0x177bccd6dbcc   524  0f820c040000   jc 1566  (0x177bccd6dfde)
                  ;;; <@152,#121> bounds-check
0x177bccd6dbd2   530  443bf2         cmpl r14,rdx
0x177bccd6dbd5   533  0f86b2060000   jna 2253  (0x177bccd6e28d)
                  ;;; <@154,#122> load-keyed
0x177bccd6dbdb   539  488b4cd60f     REX.W movq rcx,[rsi+rdx*8+0xf]
0x177bccd6dbe0   544  493b4db0       REX.W cmpq rcx,[r13-0x50]
0x177bccd6dbe4   548  0f84a8060000   jz 2258  (0x177bccd6e292)
                  ;;; <@156,#125> check-non-smi
0x177bccd6dbea   554  f6c101         testb rcx,0x1
0x177bccd6dbed   557  0f84a4060000   jz 2263  (0x177bccd6e297)
                  ;;; <@158,#126> check-maps
0x177bccd6dbf3   563  49bac13ac1134f1b0000 REX.W movq r10,0x1b4f13c13ac1    ;; object: 0x1b4f13c13ac1 <Map(elements=3)>
0x177bccd6dbfd   573  4c3951ff       REX.W cmpq [rcx-0x1],r10
0x177bccd6dc01   577  0f8518040000   jnz 1631  (0x177bccd6e01f)
                  ;;; <@160,#127> load-named-field
0x177bccd6dc07   583  488b7927       REX.W movq rdi,[rcx+0x27]
                  ;;; <@162,#138> check-maps
0x177bccd6dc0b   587  49bac13ac1134f1b0000 REX.W movq r10,0x1b4f13c13ac1    ;; object: 0x1b4f13c13ac1 <Map(elements=3)>
0x177bccd6dc15   597  4c3957ff       REX.W cmpq [rdi-0x1],r10
0x177bccd6dc19   601  0f854b040000   jnz 1706  (0x177bccd6e06a)
                  ;;; <@164,#139> load-named-field
0x177bccd6dc1f   607  4c8b471f       REX.W movq r8,[rdi+0x1f]
                  ;;; <@167,#140> branch
0x177bccd6dc23   611  4d3b45a8       REX.W cmpq r8,[r13-0x58]
0x177bccd6dc27   615  0f8418000000   jz 645  (0x177bccd6dc45)
0x177bccd6dc2d   621  4d85c0         REX.W testq r8,r8
0x177bccd6dc30   624  0f840f000000   jz 645  (0x177bccd6dc45)
0x177bccd6dc36   630  41f6c001       testb r8,0x1
0x177bccd6dc3a   634  0f844c000000   jz 716  (0x177bccd6dc8c)
0x177bccd6dc40   640  e85b84c9ff     call 0x177bcca060a0     ;; deoptimization bailout 16
                  ;;; <@168,#144> -------------------- B9 (unreachable/replaced) --------------------
                  ;;; <@172,#147> -------------------- B10 --------------------
                  ;;; <@174,#148> load-global-cell
0x177bccd6dc45   645  49b8e8046125ac0f0000 REX.W movq r8,0xfac256104e8    ;; debug: position 192
                                                             ;; property cell
0x177bccd6dc4f   655  4d8b00         REX.W movq r8,[r8]
                  ;;; <@176,#331> tagged-to-i
0x177bccd6dc52   658  41f6c001       testb r8,0x1
0x177bccd6dc56   662  0f8559040000   jnz 1781  (0x177bccd6e0b5)
0x177bccd6dc5c   668  49c1e820       REX.W shrq r8,32
                  ;;; <@177,#331> gap
0x177bccd6dc60   672  4d8bc8         REX.W movq r9,r8
                  ;;; <@178,#151> add-i
0x177bccd6dc63   675  4183c101       addl r9,0x1
0x177bccd6dc67   679  0f802f060000   jo 2268  (0x177bccd6e29c)
                  ;;; <@180,#333> smi-tag
0x177bccd6dc6d   685  458bd9         movl r11,r9
0x177bccd6dc70   688  49c1e320       REX.W shlq r11,32
                  ;;; <@182,#152> store-global-cell
0x177bccd6dc74   692  49bae8046125ac0f0000 REX.W movq r10,0xfac256104e8    ;; property cell
0x177bccd6dc7e   702  4d891a         REX.W movq [r10],r11
                  ;;; <@184,#332> smi-tag
0x177bccd6dc81   705  458bc8         movl r9,r8
0x177bccd6dc84   708  49c1e120       REX.W shlq r9,32
                  ;;; <@186,#155> store-named-field
0x177bccd6dc88   712  4c894f1f       REX.W movq [rdi+0x1f],r9
                  ;;; <@190,#141> -------------------- B11 (unreachable/replaced) --------------------
                  ;;; <@194,#159> -------------------- B12 (unreachable/replaced) --------------------
                  ;;; <@198,#162> -------------------- B13 --------------------
                  ;;; <@200,#164> load-named-field
0x177bccd6dc8c   716  488b7f1f       REX.W movq rdi,[rdi+0x1f]
                  ;;; <@204,#168> -------------------- B14 --------------------
                  ;;; <@205,#168> gap
0x177bccd6dc90   720  4c8bc7         REX.W movq r8,rdi
                  ;;; <@206,#334> tagged-to-i
0x177bccd6dc93   723  41f6c001       testb r8,0x1
0x177bccd6dc97   727  0f855c040000   jnz 1849  (0x177bccd6e0f9)
0x177bccd6dc9d   733  49c1e820       REX.W shrq r8,32
                  ;;; <@208,#175> bounds-check
0x177bccd6dca1   737  413bc0         cmpl rax,r8
0x177bccd6dca4   740  0f86f7050000   jna 2273  (0x177bccd6e2a1)
                  ;;; <@209,#175> gap
0x177bccd6dcaa   746  498bff         REX.W movq rdi,r15
                  ;;; <@210,#177> store-keyed
0x177bccd6dcad   749  4a894cc70f     REX.W movq [rdi+r8*8+0xf],rcx
0x177bccd6dcb2   754  4e8d44c70f     REX.W leaq r8,[rdi+r8*8+0xf]
0x177bccd6dcb7   759  f6c101         testb rcx,0x1
0x177bccd6dcba   762  0f8422000000   jz 802  (0x177bccd6dce2)
0x177bccd6dcc0   768  4881e10000f0ff REX.W andq rcx,0xfffffffffff00000
0x177bccd6dcc7   775  f6410804       testb [rcx+0x8],0x4
0x177bccd6dccb   779  7415           jz 802  (0x177bccd6dce2)
0x177bccd6dccd   781  48c7c10000f0ff REX.W movq rcx,0xfff00000
0x177bccd6dcd4   788  4823cf         REX.W andq rcx,rdi
0x177bccd6dcd7   791  f6410808       testb [rcx+0x8],0x8
0x177bccd6dcdb   795  7405           jz 802  (0x177bccd6dce2)
0x177bccd6dcdd   797  e89ef2ffff     call 0x177bccd6cf80     ;; code: STUB, RecordWriteStub, minor: 10263
                  ;;; <@212,#180> add-i
0x177bccd6dce2   802  83c201         addl rdx,0x1            ;; debug: position 450
                  ;;; <@215,#183> goto
0x177bccd6dce5   805  e9d3feffff     jmp 509  (0x177bccd6dbbd)
                  ;;; <@216,#110> -------------------- B15 (unreachable/replaced) --------------------
                  ;;; <@220,#184> -------------------- B16 --------------------
                  ;;; <@221,#184> gap
0x177bccd6dcea   810  488b7598       REX.W movq rsi,[rbp-0x68]
0x177bccd6dcee   814  488b5588       REX.W movq rdx,[rbp-0x78]
                  ;;; <@222,#185> load-named-generic
0x177bccd6dcf2   818  48b989f430fe38160000 REX.W movq rcx,0x1638fe30f489    ;; object: 0x1638fe30f489 <String[6]: length>
0x177bccd6dcfc   828  e81f28fcff     call 0x177bccd30520     ;; code: LOAD_IC, UNINITIALIZED
                  ;;; <@224,#186> lazy-bailout
                  ;;; <@225,#186> gap
0x177bccd6dd01   833  488b7598       REX.W movq rsi,[rbp-0x68]
0x177bccd6dd05   837  488b5580       REX.W movq rdx,[rbp-0x80]
                  ;;; <@226,#187> store-named-generic
0x177bccd6dd09   841  0f1f440000     nop
0x177bccd6dd0e   846  48b989f430fe38160000 REX.W movq rcx,0x1638fe30f489    ;; object: 0x1638fe30f489 <String[6]: length>
0x177bccd6dd18   856  e88328fcff     call 0x177bccd305a0     ;; code: STORE_IC, UNINITIALIZED
                  ;;; <@228,#188> lazy-bailout
                  ;;; <@229,#188> gap
0x177bccd6dd1d   861  488b7598       REX.W movq rsi,[rbp-0x68]
0x177bccd6dd21   865  488b5588       REX.W movq rdx,[rbp-0x78]
                  ;;; <@230,#191> load-named-generic
0x177bccd6dd25   869  0f1f440000     nop
0x177bccd6dd2a   874  48b989f430fe38160000 REX.W movq rcx,0x1638fe30f489    ;; object: 0x1638fe30f489 <String[6]: length>
0x177bccd6dd34   884  e8e727fcff     call 0x177bccd30520     ;; code: LOAD_IC, UNINITIALIZED
                  ;;; <@231,#191> gap
0x177bccd6dd39   889  48898570ffffff REX.W movq [rbp-0x90],rax
                  ;;; <@232,#192> lazy-bailout
                  ;;; <@233,#192> gap
0x177bccd6dd40   896  488bd8         REX.W movq rbx,rax
                  ;;; <@234,#335> tagged-to-i
0x177bccd6dd43   899  f6c301         testb rbx,0x1           ;; debug: position 650
0x177bccd6dd46   902  0f85e1030000   jnz 1901  (0x177bccd6e12d)
0x177bccd6dd4c   908  48c1eb20       REX.W shrq rbx,32
                  ;;; <@235,#335> gap
0x177bccd6dd50   912  48899d50ffffff REX.W movq [rbp-0xb0],rbx
0x177bccd6dd57   919  488b7d88       REX.W movq rdi,[rbp-0x78]
                  ;;; <@236,#222> check-non-smi
0x177bccd6dd5b   923  40f6c701       testb rdi,0x1
0x177bccd6dd5f   927  0f8441050000   jz 2278  (0x177bccd6e2a6)
                  ;;; <@238,#207> gap
0x177bccd6dd65   933  4533c0         xorl r8,r8              ;; debug: position 450
                  ;;; <@240,#208> -------------------- B17 (loop header) --------------------
0x177bccd6dd68   936  4c898568ffffff REX.W movq [rbp-0x98],r8    ;; debug: position 650
                  ;;; <@243,#211> compare-numeric-and-branch
0x177bccd6dd6f   943  443bc3         cmpl r8,rbx
0x177bccd6dd72   946  0f8dc2010000   jge 1402  (0x177bccd6df3a)
                  ;;; <@244,#212> -------------------- B18 (unreachable/replaced) --------------------
                  ;;; <@248,#218> -------------------- B19 --------------------
                  ;;; <@250,#220> stack-check
0x177bccd6dd78   952  493ba590070000 REX.W cmpq rsp,[r13+0x790]
0x177bccd6dd7f   959  0f82d9030000   jc 1950  (0x177bccd6e15e)
                  ;;; <@252,#223> check-maps
0x177bccd6dd85   965  49bac9d5c0134f1b0000 REX.W movq r10,0x1b4f13c0d5c9    ;; object: 0x1b4f13c0d5c9 <Map(elements=2)>
0x177bccd6dd8f   975  4c3957ff       REX.W cmpq [rdi-0x1],r10
0x177bccd6dd93   979  0f8512050000   jnz 2283  (0x177bccd6e2ab)
                  ;;; <@254,#224> load-named-field
0x177bccd6dd99   985  488b570f       REX.W movq rdx,[rdi+0xf]
                  ;;; <@256,#225> load-named-field
0x177bccd6dd9d   989  8b4f1b         movl rcx,[rdi+0x1b]
                  ;;; <@258,#226> bounds-check
0x177bccd6dda0   992  413bc8         cmpl rcx,r8
0x177bccd6dda3   995  0f8607050000   jna 2288  (0x177bccd6e2b0)
                  ;;; <@260,#227> load-keyed
0x177bccd6dda9  1001  4e8b4cc20f     REX.W movq r9,[rdx+r8*8+0xf]
                  ;;; <@261,#227> gap
0x177bccd6ddae  1006  4c898d60ffffff REX.W movq [rbp-0xa0],r9
                  ;;; <@262,#243> check-non-smi
0x177bccd6ddb5  1013  41f6c101       testb r9,0x1
0x177bccd6ddb9  1017  0f84f6040000   jz 2293  (0x177bccd6e2b5)
                  ;;; <@264,#244> check-maps
0x177bccd6ddbf  1023  49bac13ac1134f1b0000 REX.W movq r10,0x1b4f13c13ac1    ;; object: 0x1b4f13c13ac1 <Map(elements=3)>
0x177bccd6ddc9  1033  4d3951ff       REX.W cmpq [r9-0x1],r10
0x177bccd6ddcd  1037  0f85cc030000   jnz 2015  (0x177bccd6e19f)
                  ;;; <@266,#245> load-named-field
0x177bccd6ddd3  1043  498b511f       REX.W movq rdx,[r9+0x1f]
                  ;;; <@269,#246> branch
0x177bccd6ddd7  1047  493b55a8       REX.W cmpq rdx,[r13-0x58]
0x177bccd6dddb  1051  0f8417000000   jz 1080  (0x177bccd6ddf8)
0x177bccd6dde1  1057  4885d2         REX.W testq rdx,rdx
0x177bccd6dde4  1060  0f840e000000   jz 1080  (0x177bccd6ddf8)
0x177bccd6ddea  1066  f6c201         testb rdx,0x1
0x177bccd6dded  1069  0f8448000000   jz 1147  (0x177bccd6de3b)
0x177bccd6ddf3  1075  e81683c9ff     call 0x177bcca0610e     ;; deoptimization bailout 27
                  ;;; <@270,#250> -------------------- B20 (unreachable/replaced) --------------------
                  ;;; <@274,#253> -------------------- B21 --------------------
                  ;;; <@276,#254> load-global-cell
0x177bccd6ddf8  1080  48bae8046125ac0f0000 REX.W movq rdx,0xfac256104e8    ;; debug: position 192
                                                             ;; property cell
0x177bccd6de02  1090  488b12         REX.W movq rdx,[rdx]
                  ;;; <@278,#337> tagged-to-i
0x177bccd6de05  1093  f6c201         testb rdx,0x1
0x177bccd6de08  1096  0f85dd030000   jnz 2091  (0x177bccd6e1eb)
0x177bccd6de0e  1102  48c1ea20       REX.W shrq rdx,32
                  ;;; <@279,#337> gap
0x177bccd6de12  1106  488bca         REX.W movq rcx,rdx
                  ;;; <@280,#256> add-i
0x177bccd6de15  1109  83c101         addl rcx,0x1
0x177bccd6de18  1112  0f809c040000   jo 2298  (0x177bccd6e2ba)
                  ;;; <@282,#339> smi-tag
0x177bccd6de1e  1118  8bf1           movl rsi,rcx
0x177bccd6de20  1120  48c1e620       REX.W shlq rsi,32
                  ;;; <@284,#257> store-global-cell
0x177bccd6de24  1124  49bae8046125ac0f0000 REX.W movq r10,0xfac256104e8    ;; property cell
0x177bccd6de2e  1134  498932         REX.W movq [r10],rsi
                  ;;; <@286,#338> smi-tag
0x177bccd6de31  1137  8bca           movl rcx,rdx
0x177bccd6de33  1139  48c1e120       REX.W shlq rcx,32
                  ;;; <@288,#261> store-named-field
0x177bccd6de37  1143  4989491f       REX.W movq [r9+0x1f],rcx
                  ;;; <@292,#247> -------------------- B22 (unreachable/replaced) --------------------
                  ;;; <@296,#265> -------------------- B23 (unreachable/replaced) --------------------
                  ;;; <@300,#268> -------------------- B24 --------------------
                  ;;; <@302,#271> load-named-field
0x177bccd6de3b  1147  4d8b591f       REX.W movq r11,[r9+0x1f]
                  ;;; <@303,#271> gap
0x177bccd6de3f  1151  4c899d58ffffff REX.W movq [rbp-0xa8],r11
                  ;;; <@306,#275> -------------------- B25 --------------------
                  ;;; <@307,#275> gap
0x177bccd6de46  1158  488b7598       REX.W movq rsi,[rbp-0x68]
0x177bccd6de4a  1162  488b55a0       REX.W movq rdx,[rbp-0x60]
0x177bccd6de4e  1166  498bcb         REX.W movq rcx,r11
                  ;;; <@308,#279> load-keyed-generic
0x177bccd6de51  1169  e80a6afcff     call KeyedLoadIC_Initialize  (0x177bccd34860)    ;; debug: position 789
                                                             ;; code: KEYED_LOAD_IC, UNINITIALIZED
                  ;;; <@310,#280> lazy-bailout
                  ;;; <@313,#281> cmp-object-eq-and-branch
0x177bccd6de56  1174  49ba2141c0f5cb0e0000 REX.W movq r10,0xecbf5c04121    ;; object: 0xecbf5c04121 <undefined>
0x177bccd6de60  1184  493bc2         REX.W cmpq rax,r10
0x177bccd6de63  1187  0f841c000000   jz 1221  (0x177bccd6de85)
                  ;;; <@314,#285> -------------------- B26 (unreachable/replaced) --------------------
                  ;;; <@318,#301> -------------------- B27 --------------------
                  ;;; <@319,#301> gap
0x177bccd6de69  1193  488b7598       REX.W movq rsi,[rbp-0x68]
0x177bccd6de6d  1197  488b55a0       REX.W movq rdx,[rbp-0x60]
0x177bccd6de71  1201  488b8d58ffffff REX.W movq rcx,[rbp-0xa8]
                  ;;; <@320,#304> load-keyed-generic
0x177bccd6de78  1208  e8e369fcff     call KeyedLoadIC_Initialize  (0x177bccd34860)    ;; code: KEYED_LOAD_IC, UNINITIALIZED
                  ;;; <@322,#305> lazy-bailout
                  ;;; <@324,#310> gap
0x177bccd6de7d  1213  488bd8         REX.W movq rbx,rax
                  ;;; <@325,#310> goto
0x177bccd6de80  1216  e96f000000     jmp 1332  (0x177bccd6def4)
                  ;;; <@326,#282> -------------------- B28 (unreachable/replaced) --------------------
                  ;;; <@330,#288> -------------------- B29 --------------------
                  ;;; <@332,#290> push-argument
0x177bccd6de85  1221  49ba2141c0f5cb0e0000 REX.W movq r10,0xecbf5c04121    ;; object: 0xecbf5c04121 <undefined>
0x177bccd6de8f  1231  4152           push r10
                  ;;; <@334,#290> push-argument
0x177bccd6de91  1233  ffb560ffffff   push [rbp-0xa0]
                  ;;; <@335,#290> gap
0x177bccd6de97  1239  488b7598       REX.W movq rsi,[rbp-0x68]
0x177bccd6de9b  1243  488b7d90       REX.W movq rdi,[rbp-0x70]
                  ;;; <@336,#291> call-function
0x177bccd6de9f  1247  e83ce7fbff     call 0x177bccd2c5e0     ;; code: STUB, CallFunctionStub, argc = 1
                  ;;; <@338,#292> lazy-bailout
                  ;;; <@340,#296> check-non-smi
0x177bccd6dea4  1252  a801           test al,0x1
0x177bccd6dea6  1254  0f8413040000   jz 2303  (0x177bccd6e2bf)
                  ;;; <@342,#297> check-maps
0x177bccd6deac  1260  49bac13ac1134f1b0000 REX.W movq r10,0x1b4f13c13ac1    ;; object: 0x1b4f13c13ac1 <Map(elements=3)>
0x177bccd6deb6  1270  4c3950ff       REX.W cmpq [rax-0x1],r10
0x177bccd6deba  1274  0f8569030000   jnz 2153  (0x177bccd6e229)
                  ;;; <@343,#297> gap
0x177bccd6dec0  1280  488b9d60ffffff REX.W movq rbx,[rbp-0xa0]
                  ;;; <@344,#299> store-named-field
0x177bccd6dec7  1287  48895827       REX.W movq [rax+0x27],rbx
0x177bccd6decb  1291  488d5027       REX.W leaq rdx,[rax+0x27]
0x177bccd6decf  1295  4881e30000f0ff REX.W andq rbx,0xfffffffffff00000
0x177bccd6ded6  1302  f6430804       testb [rbx+0x8],0x4
0x177bccd6deda  1306  7415           jz 1329  (0x177bccd6def1)
0x177bccd6dedc  1308  48c7c30000f0ff REX.W movq rbx,0xfff00000
0x177bccd6dee3  1315  4823d8         REX.W andq rbx,rax
0x177bccd6dee6  1318  f6430808       testb [rbx+0x8],0x8
0x177bccd6deea  1322  7405           jz 1329  (0x177bccd6def1)
0x177bccd6deec  1324  e86f5cffff     call 0x177bccd63b60     ;; code: STUB, RecordWriteStub, minor: 8752
                  ;;; <@346,#308> gap
0x177bccd6def1  1329  488bd8         REX.W movq rbx,rax
                  ;;; <@348,#312> -------------------- B30 --------------------
0x177bccd6def4  1332  48899d48ffffff REX.W movq [rbp-0xb8],rbx
                  ;;; <@349,#312> gap
0x177bccd6defb  1339  488bbd68ffffff REX.W movq rdi,[rbp-0x98]
                  ;;; <@350,#336> smi-tag
0x177bccd6df02  1346  8bcf           movl rcx,rdi
0x177bccd6df04  1348  48c1e120       REX.W shlq rcx,32
                  ;;; <@351,#336> gap
0x177bccd6df08  1352  488b7598       REX.W movq rsi,[rbp-0x68]
0x177bccd6df0c  1356  488b5580       REX.W movq rdx,[rbp-0x80]
0x177bccd6df10  1360  488bc3         REX.W movq rax,rbx
                  ;;; <@352,#315> store-keyed-generic
0x177bccd6df13  1363  e8088ffcff     call KeyedStoreIC_Initialize  (0x177bccd36e20)    ;; code: KEYED_STORE_IC, UNINITIALIZED
                  ;;; <@354,#316> lazy-bailout
                  ;;; <@355,#316> gap
0x177bccd6df18  1368  488b8568ffffff REX.W movq rax,[rbp-0x98]
                  ;;; <@356,#318> add-i
0x177bccd6df1f  1375  448d4001       leal r8,[rax+0x1]       ;; debug: position 656
                  ;;; <@358,#321> gap
0x177bccd6df23  1379  488b7d88       REX.W movq rdi,[rbp-0x78]
0x177bccd6df27  1383  488b8570ffffff REX.W movq rax,[rbp-0x90]
0x177bccd6df2e  1390  488b9d50ffffff REX.W movq rbx,[rbp-0xb0]
                  ;;; <@359,#321> goto
0x177bccd6df35  1397  e92efeffff     jmp 936  (0x177bccd6dd68)
                  ;;; <@360,#215> -------------------- B31 (unreachable/replaced) --------------------
                  ;;; <@364,#322> -------------------- B32 --------------------
                  ;;; <@366,#7> constant-t
0x177bccd6df3a  1402  48b82141c0f5cb0e0000 REX.W movq rax,0xecbf5c04121    ;; object: 0xecbf5c04121 <undefined>
                  ;;; <@368,#324> return
0x177bccd6df44  1412  488be5         REX.W movq rsp,rbp
0x177bccd6df47  1415  5d             pop rbp
0x177bccd6df48  1416  c22000         ret 0x20
                  ;;; <@106,#329> -------------------- Deferred tagged-to-i --------------------
0x177bccd6df4b  1419  4d8b5500       REX.W movq r10,[r13+0x0]
0x177bccd6df4f  1423  4c3950ff       REX.W cmpq [rax-0x1],r10
0x177bccd6df53  1427  751d           jnz 1458  (0x177bccd6df72)
0x177bccd6df55  1429  f20f104007     movsd xmm0,[rax+0x7]
0x177bccd6df5a  1434  f20f2cc0       cvttsd2sil rax,xmm0
0x177bccd6df5e  1438  0f57c9         xorps xmm1,xmm1
0x177bccd6df61  1441  f20f2ac8       cvtsi2sd xmm1,rax
0x177bccd6df65  1445  660f2ec1       ucomisd xmm0,xmm1
                  Deferred TaggedToI: lost precision
0x177bccd6df69  1449  7507           jnz 1458  (0x177bccd6df72)
                  Deferred TaggedToI: NaN
0x177bccd6df6b  1451  7a05           jpe 1458  (0x177bccd6df72)
0x177bccd6df6d  1453  e978fbffff     jmp 298  (0x177bccd6daea)
0x177bccd6df72  1458  e8dd81c9ff     call 0x177bcca06154     ;; deoptimization bailout 34
0x177bccd6df77  1463  e96efbffff     jmp 298  (0x177bccd6daea)
                  ;;; <@108,#330> -------------------- Deferred tagged-to-i --------------------
0x177bccd6df7c  1468  4d8b5500       REX.W movq r10,[r13+0x0]
0x177bccd6df80  1472  4c3953ff       REX.W cmpq [rbx-0x1],r10
0x177bccd6df84  1476  751d           jnz 1507  (0x177bccd6dfa3)
0x177bccd6df86  1478  f20f104307     movsd xmm0,[rbx+0x7]
0x177bccd6df8b  1483  f20f2cd8       cvttsd2sil rbx,xmm0
0x177bccd6df8f  1487  0f57c9         xorps xmm1,xmm1
0x177bccd6df92  1490  f20f2acb       cvtsi2sd xmm1,rbx
0x177bccd6df96  1494  660f2ec1       ucomisd xmm0,xmm1
                  Deferred TaggedToI: lost precision
0x177bccd6df9a  1498  7507           jnz 1507  (0x177bccd6dfa3)
                  Deferred TaggedToI: NaN
0x177bccd6df9c  1500  7a05           jpe 1507  (0x177bccd6dfa3)
0x177bccd6df9e  1502  e958fbffff     jmp 315  (0x177bccd6dafb)
0x177bccd6dfa3  1507  e8b681c9ff     call 0x177bcca0615e     ;; deoptimization bailout 35
0x177bccd6dfa8  1512  e94efbffff     jmp 315  (0x177bccd6dafb)
                  ;;; <@114,#328> -------------------- Deferred tagged-to-i --------------------
0x177bccd6dfad  1517  4d8b5500       REX.W movq r10,[r13+0x0]
0x177bccd6dfb1  1521  4c3953ff       REX.W cmpq [rbx-0x1],r10
0x177bccd6dfb5  1525  751d           jnz 1556  (0x177bccd6dfd4)
0x177bccd6dfb7  1527  f20f104307     movsd xmm0,[rbx+0x7]
0x177bccd6dfbc  1532  f20f2cd8       cvttsd2sil rbx,xmm0
0x177bccd6dfc0  1536  0f57c9         xorps xmm1,xmm1
0x177bccd6dfc3  1539  f20f2acb       cvtsi2sd xmm1,rbx
0x177bccd6dfc7  1543  660f2ec1       ucomisd xmm0,xmm1
                  Deferred TaggedToI: lost precision
0x177bccd6dfcb  1547  7507           jnz 1556  (0x177bccd6dfd4)
                  Deferred TaggedToI: NaN
0x177bccd6dfcd  1549  7a05           jpe 1556  (0x177bccd6dfd4)
0x177bccd6dfcf  1551  e956fbffff     jmp 362  (0x177bccd6db2a)
0x177bccd6dfd4  1556  e88f81c9ff     call 0x177bcca06168     ;; deoptimization bailout 36
0x177bccd6dfd9  1561  e94cfbffff     jmp 362  (0x177bccd6db2a)
                  ;;; <@150,#115> -------------------- Deferred stack-check --------------------
0x177bccd6dfde  1566  50             push rax                ;; debug: position 444
0x177bccd6dfdf  1567  51             push rcx
0x177bccd6dfe0  1568  52             push rdx
0x177bccd6dfe1  1569  53             push rbx
0x177bccd6dfe2  1570  56             push rsi
0x177bccd6dfe3  1571  57             push rdi
0x177bccd6dfe4  1572  4150           push r8
0x177bccd6dfe6  1574  4151           push r9
0x177bccd6dfe8  1576  4153           push r11
0x177bccd6dfea  1578  4156           push r14
0x177bccd6dfec  1580  4157           push r15
0x177bccd6dfee  1582  488d6424d8     REX.W leaq rsp,[rsp-0x28]
0x177bccd6dff3  1587  488b75f8       REX.W movq rsi,[rbp-0x8]
0x177bccd6dff7  1591  33c0           xorl rax,rax
0x177bccd6dff9  1593  498d9d58bce4fd REX.W leaq rbx,[r13-0x21b43a8]
0x177bccd6e000  1600  e89b82f9ff     call 0x177bccd062a0     ;; code: STUB, CEntryStub, minor: 1
0x177bccd6e005  1605  488d642428     REX.W leaq rsp,[rsp+0x28]
0x177bccd6e00a  1610  415f           pop r15
0x177bccd6e00c  1612  415e           pop r14
0x177bccd6e00e  1614  415b           pop r11
0x177bccd6e010  1616  4159           pop r9
0x177bccd6e012  1618  4158           pop r8
0x177bccd6e014  1620  5f             pop rdi
0x177bccd6e015  1621  5e             pop rsi
0x177bccd6e016  1622  5b             pop rbx
0x177bccd6e017  1623  5a             pop rdx
0x177bccd6e018  1624  59             pop rcx
0x177bccd6e019  1625  58             pop rax
0x177bccd6e01a  1626  e9b3fbffff     jmp 530  (0x177bccd6dbd2)
                  ;;; <@158,#126> -------------------- Deferred check-maps --------------------
0x177bccd6e01f  1631  50             push rax
0x177bccd6e020  1632  51             push rcx
0x177bccd6e021  1633  52             push rdx
0x177bccd6e022  1634  53             push rbx
0x177bccd6e023  1635  56             push rsi
0x177bccd6e024  1636  57             push rdi
0x177bccd6e025  1637  4150           push r8
0x177bccd6e027  1639  4151           push r9
0x177bccd6e029  1641  4153           push r11
0x177bccd6e02b  1643  4156           push r14
0x177bccd6e02d  1645  4157           push r15
0x177bccd6e02f  1647  488d6424d8     REX.W leaq rsp,[rsp-0x28]
0x177bccd6e034  1652  51             push rcx
0x177bccd6e035  1653  33f6           xorl rsi,rsi
0x177bccd6e037  1655  b801000000     movl rax,0x1
0x177bccd6e03c  1660  498d9d482ae6fd REX.W leaq rbx,[r13-0x219d5b8]
0x177bccd6e043  1667  e85882f9ff     call 0x177bccd062a0     ;; code: STUB, CEntryStub, minor: 1
0x177bccd6e048  1672  a801           test al,0x1
0x177bccd6e04a  1674  488d642428     REX.W leaq rsp,[rsp+0x28]
0x177bccd6e04f  1679  415f           pop r15
0x177bccd6e051  1681  415e           pop r14
0x177bccd6e053  1683  415b           pop r11
0x177bccd6e055  1685  4159           pop r9
0x177bccd6e057  1687  4158           pop r8
0x177bccd6e059  1689  5f             pop rdi
0x177bccd6e05a  1690  5e             pop rsi
0x177bccd6e05b  1691  5b             pop rbx
0x177bccd6e05c  1692  5a             pop rdx
0x177bccd6e05d  1693  59             pop rcx
0x177bccd6e05e  1694  58             pop rax
0x177bccd6e05f  1695  0f845f020000   jz 2308  (0x177bccd6e2c4)
0x177bccd6e065  1701  e989fbffff     jmp 563  (0x177bccd6dbf3)
                  ;;; <@162,#138> -------------------- Deferred check-maps --------------------
0x177bccd6e06a  1706  50             push rax
0x177bccd6e06b  1707  51             push rcx
0x177bccd6e06c  1708  52             push rdx
0x177bccd6e06d  1709  53             push rbx
0x177bccd6e06e  1710  56             push rsi
0x177bccd6e06f  1711  57             push rdi
0x177bccd6e070  1712  4150           push r8
0x177bccd6e072  1714  4151           push r9
0x177bccd6e074  1716  4153           push r11
0x177bccd6e076  1718  4156           push r14
0x177bccd6e078  1720  4157           push r15
0x177bccd6e07a  1722  488d6424d8     REX.W leaq rsp,[rsp-0x28]
0x177bccd6e07f  1727  57             push rdi
0x177bccd6e080  1728  33f6           xorl rsi,rsi
0x177bccd6e082  1730  b801000000     movl rax,0x1
0x177bccd6e087  1735  498d9d482ae6fd REX.W leaq rbx,[r13-0x219d5b8]
0x177bccd6e08e  1742  e80d82f9ff     call 0x177bccd062a0     ;; code: STUB, CEntryStub, minor: 1
0x177bccd6e093  1747  a801           test al,0x1
0x177bccd6e095  1749  488d642428     REX.W leaq rsp,[rsp+0x28]
0x177bccd6e09a  1754  415f           pop r15
0x177bccd6e09c  1756  415e           pop r14
0x177bccd6e09e  1758  415b           pop r11
0x177bccd6e0a0  1760  4159           pop r9
0x177bccd6e0a2  1762  4158           pop r8
0x177bccd6e0a4  1764  5f             pop rdi
0x177bccd6e0a5  1765  5e             pop rsi
0x177bccd6e0a6  1766  5b             pop rbx
0x177bccd6e0a7  1767  5a             pop rdx
0x177bccd6e0a8  1768  59             pop rcx
0x177bccd6e0a9  1769  58             pop rax
0x177bccd6e0aa  1770  0f8419020000   jz 2313  (0x177bccd6e2c9)
0x177bccd6e0b0  1776  e956fbffff     jmp 587  (0x177bccd6dc0b)
                  ;;; <@176,#331> -------------------- Deferred tagged-to-i --------------------
0x177bccd6e0b5  1781  4d8b5500       REX.W movq r10,[r13+0x0]    ;; debug: position 192
0x177bccd6e0b9  1785  4d3950ff       REX.W cmpq [r8-0x1],r10
0x177bccd6e0bd  1789  7530           jnz 1839  (0x177bccd6e0ef)
0x177bccd6e0bf  1791  f2410f104007   movsd xmm0,[r8+0x7]
0x177bccd6e0c5  1797  f2440f2cc0     cvttsd2sil r8,xmm0
0x177bccd6e0ca  1802  0f57c9         xorps xmm1,xmm1
0x177bccd6e0cd  1805  f2410f2ac8     cvtsi2sd xmm1,r8
0x177bccd6e0d2  1810  660f2ec1       ucomisd xmm0,xmm1
                  Deferred TaggedToI: lost precision
0x177bccd6e0d6  1814  7517           jnz 1839  (0x177bccd6e0ef)
                  Deferred TaggedToI: NaN
0x177bccd6e0d8  1816  7a15           jpe 1839  (0x177bccd6e0ef)
0x177bccd6e0da  1818  4585c0         testl r8,r8
0x177bccd6e0dd  1821  750b           jnz 1834  (0x177bccd6e0ea)
0x177bccd6e0df  1823  66440f50c0     movmskpd r8,xmm0
0x177bccd6e0e4  1828  4183e001       andl r8,0x1
0x177bccd6e0e8  1832  7505           jnz 1839  (0x177bccd6e0ef)
0x177bccd6e0ea  1834  e971fbffff     jmp 672  (0x177bccd6dc60)
0x177bccd6e0ef  1839  e89280c9ff     call 0x177bcca06186     ;; deoptimization bailout 39
0x177bccd6e0f4  1844  e967fbffff     jmp 672  (0x177bccd6dc60)
                  ;;; <@206,#334> -------------------- Deferred tagged-to-i --------------------
0x177bccd6e0f9  1849  4d8b5500       REX.W movq r10,[r13+0x0]
0x177bccd6e0fd  1853  4d3950ff       REX.W cmpq [r8-0x1],r10
0x177bccd6e101  1857  7520           jnz 1891  (0x177bccd6e123)
0x177bccd6e103  1859  f2410f104007   movsd xmm0,[r8+0x7]
0x177bccd6e109  1865  f2440f2cc0     cvttsd2sil r8,xmm0
0x177bccd6e10e  1870  0f57c9         xorps xmm1,xmm1
0x177bccd6e111  1873  f2410f2ac8     cvtsi2sd xmm1,r8
0x177bccd6e116  1878  660f2ec1       ucomisd xmm0,xmm1
                  Deferred TaggedToI: lost precision
0x177bccd6e11a  1882  7507           jnz 1891  (0x177bccd6e123)
                  Deferred TaggedToI: NaN
0x177bccd6e11c  1884  7a05           jpe 1891  (0x177bccd6e123)
0x177bccd6e11e  1886  e97efbffff     jmp 737  (0x177bccd6dca1)
0x177bccd6e123  1891  e86880c9ff     call 0x177bcca06190     ;; deoptimization bailout 40
0x177bccd6e128  1896  e974fbffff     jmp 737  (0x177bccd6dca1)
                  ;;; <@234,#335> -------------------- Deferred tagged-to-i --------------------
0x177bccd6e12d  1901  4d8b5500       REX.W movq r10,[r13+0x0]    ;; debug: position 650
0x177bccd6e131  1905  4c3953ff       REX.W cmpq [rbx-0x1],r10
0x177bccd6e135  1909  751d           jnz 1940  (0x177bccd6e154)
0x177bccd6e137  1911  f20f104307     movsd xmm0,[rbx+0x7]
0x177bccd6e13c  1916  f20f2cd8       cvttsd2sil rbx,xmm0
0x177bccd6e140  1920  0f57c9         xorps xmm1,xmm1
0x177bccd6e143  1923  f20f2acb       cvtsi2sd xmm1,rbx
0x177bccd6e147  1927  660f2ec1       ucomisd xmm0,xmm1
                  Deferred TaggedToI: lost precision
0x177bccd6e14b  1931  7507           jnz 1940  (0x177bccd6e154)
                  Deferred TaggedToI: NaN
0x177bccd6e14d  1933  7a05           jpe 1940  (0x177bccd6e154)
0x177bccd6e14f  1935  e9fcfbffff     jmp 912  (0x177bccd6dd50)
0x177bccd6e154  1940  e84180c9ff     call 0x177bcca0619a     ;; deoptimization bailout 41
0x177bccd6e159  1945  e9f2fbffff     jmp 912  (0x177bccd6dd50)
                  ;;; <@250,#220> -------------------- Deferred stack-check --------------------
0x177bccd6e15e  1950  50             push rax
0x177bccd6e15f  1951  51             push rcx
0x177bccd6e160  1952  52             push rdx
0x177bccd6e161  1953  53             push rbx
0x177bccd6e162  1954  56             push rsi
0x177bccd6e163  1955  57             push rdi
0x177bccd6e164  1956  4150           push r8
0x177bccd6e166  1958  4151           push r9
0x177bccd6e168  1960  4153           push r11
0x177bccd6e16a  1962  4156           push r14
0x177bccd6e16c  1964  4157           push r15
0x177bccd6e16e  1966  488d6424d8     REX.W leaq rsp,[rsp-0x28]
0x177bccd6e173  1971  488b75f8       REX.W movq rsi,[rbp-0x8]
0x177bccd6e177  1975  33c0           xorl rax,rax
0x177bccd6e179  1977  498d9d58bce4fd REX.W leaq rbx,[r13-0x21b43a8]
0x177bccd6e180  1984  e81b81f9ff     call 0x177bccd062a0     ;; code: STUB, CEntryStub, minor: 1
0x177bccd6e185  1989  488d642428     REX.W leaq rsp,[rsp+0x28]
0x177bccd6e18a  1994  415f           pop r15
0x177bccd6e18c  1996  415e           pop r14
0x177bccd6e18e  1998  415b           pop r11
0x177bccd6e190  2000  4159           pop r9
0x177bccd6e192  2002  4158           pop r8
0x177bccd6e194  2004  5f             pop rdi
0x177bccd6e195  2005  5e             pop rsi
0x177bccd6e196  2006  5b             pop rbx
0x177bccd6e197  2007  5a             pop rdx
0x177bccd6e198  2008  59             pop rcx
0x177bccd6e199  2009  58             pop rax
0x177bccd6e19a  2010  e9e6fbffff     jmp 965  (0x177bccd6dd85)
                  ;;; <@264,#244> -------------------- Deferred check-maps --------------------
0x177bccd6e19f  2015  50             push rax
0x177bccd6e1a0  2016  51             push rcx
0x177bccd6e1a1  2017  52             push rdx
0x177bccd6e1a2  2018  53             push rbx
0x177bccd6e1a3  2019  56             push rsi
0x177bccd6e1a4  2020  57             push rdi
0x177bccd6e1a5  2021  4150           push r8
0x177bccd6e1a7  2023  4151           push r9
0x177bccd6e1a9  2025  4153           push r11
0x177bccd6e1ab  2027  4156           push r14
0x177bccd6e1ad  2029  4157           push r15
0x177bccd6e1af  2031  488d6424d8     REX.W leaq rsp,[rsp-0x28]
0x177bccd6e1b4  2036  4151           push r9
0x177bccd6e1b6  2038  33f6           xorl rsi,rsi
0x177bccd6e1b8  2040  b801000000     movl rax,0x1
0x177bccd6e1bd  2045  498d9d482ae6fd REX.W leaq rbx,[r13-0x219d5b8]
0x177bccd6e1c4  2052  e8d780f9ff     call 0x177bccd062a0     ;; code: STUB, CEntryStub, minor: 1
0x177bccd6e1c9  2057  a801           test al,0x1
0x177bccd6e1cb  2059  488d642428     REX.W leaq rsp,[rsp+0x28]
0x177bccd6e1d0  2064  415f           pop r15
0x177bccd6e1d2  2066  415e           pop r14
0x177bccd6e1d4  2068  415b           pop r11
0x177bccd6e1d6  2070  4159           pop r9
0x177bccd6e1d8  2072  4158           pop r8
0x177bccd6e1da  2074  5f             pop rdi
0x177bccd6e1db  2075  5e             pop rsi
0x177bccd6e1dc  2076  5b             pop rbx
0x177bccd6e1dd  2077  5a             pop rdx
0x177bccd6e1de  2078  59             pop rcx
0x177bccd6e1df  2079  58             pop rax
0x177bccd6e1e0  2080  0f84e8000000   jz 2318  (0x177bccd6e2ce)
0x177bccd6e1e6  2086  e9d4fbffff     jmp 1023  (0x177bccd6ddbf)
                  ;;; <@278,#337> -------------------- Deferred tagged-to-i --------------------
0x177bccd6e1eb  2091  4d8b5500       REX.W movq r10,[r13+0x0]    ;; debug: position 192
0x177bccd6e1ef  2095  4c3952ff       REX.W cmpq [rdx-0x1],r10
0x177bccd6e1f3  2099  752a           jnz 2143  (0x177bccd6e21f)
0x177bccd6e1f5  2101  f20f104207     movsd xmm0,[rdx+0x7]
0x177bccd6e1fa  2106  f20f2cd0       cvttsd2sil rdx,xmm0
0x177bccd6e1fe  2110  0f57c9         xorps xmm1,xmm1
0x177bccd6e201  2113  f20f2aca       cvtsi2sd xmm1,rdx
0x177bccd6e205  2117  660f2ec1       ucomisd xmm0,xmm1
                  Deferred TaggedToI: lost precision
0x177bccd6e209  2121  7514           jnz 2143  (0x177bccd6e21f)
                  Deferred TaggedToI: NaN
0x177bccd6e20b  2123  7a12           jpe 2143  (0x177bccd6e21f)
0x177bccd6e20d  2125  85d2           testl rdx,rdx
0x177bccd6e20f  2127  7509           jnz 2138  (0x177bccd6e21a)
0x177bccd6e211  2129  660f50d0       movmskpd rdx,xmm0
0x177bccd6e215  2133  83e201         andl rdx,0x1
0x177bccd6e218  2136  7505           jnz 2143  (0x177bccd6e21f)
0x177bccd6e21a  2138  e9f3fbffff     jmp 1106  (0x177bccd6de12)
0x177bccd6e21f  2143  e88a7fc9ff     call 0x177bcca061ae     ;; deoptimization bailout 43
0x177bccd6e224  2148  e9e9fbffff     jmp 1106  (0x177bccd6de12)
                  ;;; <@342,#297> -------------------- Deferred check-maps --------------------
0x177bccd6e229  2153  50             push rax                ;; debug: position 789
0x177bccd6e22a  2154  51             push rcx
0x177bccd6e22b  2155  52             push rdx
0x177bccd6e22c  2156  53             push rbx
0x177bccd6e22d  2157  56             push rsi
0x177bccd6e22e  2158  57             push rdi
0x177bccd6e22f  2159  4150           push r8
0x177bccd6e231  2161  4151           push r9
0x177bccd6e233  2163  4153           push r11
0x177bccd6e235  2165  4156           push r14
0x177bccd6e237  2167  4157           push r15
0x177bccd6e239  2169  488d6424d8     REX.W leaq rsp,[rsp-0x28]
0x177bccd6e23e  2174  50             push rax
0x177bccd6e23f  2175  33f6           xorl rsi,rsi
0x177bccd6e241  2177  b801000000     movl rax,0x1
0x177bccd6e246  2182  498d9d482ae6fd REX.W leaq rbx,[r13-0x219d5b8]
0x177bccd6e24d  2189  e84e80f9ff     call 0x177bccd062a0     ;; code: STUB, CEntryStub, minor: 1
0x177bccd6e252  2194  a801           test al,0x1
0x177bccd6e254  2196  488d642428     REX.W leaq rsp,[rsp+0x28]
0x177bccd6e259  2201  415f           pop r15
0x177bccd6e25b  2203  415e           pop r14
0x177bccd6e25d  2205  415b           pop r11
0x177bccd6e25f  2207  4159           pop r9
0x177bccd6e261  2209  4158           pop r8
0x177bccd6e263  2211  5f             pop rdi
0x177bccd6e264  2212  5e             pop rsi
0x177bccd6e265  2213  5b             pop rbx
0x177bccd6e266  2214  5a             pop rdx
0x177bccd6e267  2215  59             pop rcx
0x177bccd6e268  2216  58             pop rax
0x177bccd6e269  2217  0f8464000000   jz 2323  (0x177bccd6e2d3)
0x177bccd6e26f  2223  e938fcffff     jmp 1260  (0x177bccd6deac)
                  ;;; -------------------- Jump table --------------------
                  ;;; jump table entry 0: deoptimization bailout 7.
0x177bccd6e274  2228  e8cd7dc9ff     call 0x177bcca06046     ;; deoptimization bailout 7
                  ;;; jump table entry 1: deoptimization bailout 8.
0x177bccd6e279  2233  e8d27dc9ff     call 0x177bcca06050     ;; deoptimization bailout 8
                  ;;; jump table entry 2: deoptimization bailout 9.
0x177bccd6e27e  2238  e8d77dc9ff     call 0x177bcca0605a     ;; deoptimization bailout 9
                  ;;; jump table entry 3: deoptimization bailout 10.
0x177bccd6e283  2243  e8dc7dc9ff     call 0x177bcca06064     ;; deoptimization bailout 10
                  ;;; jump table entry 4: deoptimization bailout 11.
0x177bccd6e288  2248  e8e17dc9ff     call 0x177bcca0606e     ;; deoptimization bailout 11
                  ;;; jump table entry 5: deoptimization bailout 13.
0x177bccd6e28d  2253  e8f07dc9ff     call 0x177bcca06082     ;; deoptimization bailout 13
                  ;;; jump table entry 6: deoptimization bailout 14.
0x177bccd6e292  2258  e8f57dc9ff     call 0x177bcca0608c     ;; deoptimization bailout 14
                  ;;; jump table entry 7: deoptimization bailout 15.
0x177bccd6e297  2263  e8fa7dc9ff     call 0x177bcca06096     ;; deoptimization bailout 15
                  ;;; jump table entry 8: deoptimization bailout 17.
0x177bccd6e29c  2268  e8097ec9ff     call 0x177bcca060aa     ;; deoptimization bailout 17
                  ;;; jump table entry 9: deoptimization bailout 18.
0x177bccd6e2a1  2273  e80e7ec9ff     call 0x177bcca060b4     ;; deoptimization bailout 18
                  ;;; jump table entry 10: deoptimization bailout 22.
0x177bccd6e2a6  2278  e8317ec9ff     call 0x177bcca060dc     ;; deoptimization bailout 22
                  ;;; jump table entry 11: deoptimization bailout 24.
0x177bccd6e2ab  2283  e8407ec9ff     call 0x177bcca060f0     ;; deoptimization bailout 24
                  ;;; jump table entry 12: deoptimization bailout 25.
0x177bccd6e2b0  2288  e8457ec9ff     call 0x177bcca060fa     ;; deoptimization bailout 25
                  ;;; jump table entry 13: deoptimization bailout 26.
0x177bccd6e2b5  2293  e84a7ec9ff     call 0x177bcca06104     ;; deoptimization bailout 26
                  ;;; jump table entry 14: deoptimization bailout 28.
0x177bccd6e2ba  2298  e8597ec9ff     call 0x177bcca06118     ;; deoptimization bailout 28
                  ;;; jump table entry 15: deoptimization bailout 32.
0x177bccd6e2bf  2303  e87c7ec9ff     call 0x177bcca06140     ;; deoptimization bailout 32
                  ;;; jump table entry 16: deoptimization bailout 37.
0x177bccd6e2c4  2308  e8a97ec9ff     call 0x177bcca06172     ;; deoptimization bailout 37
                  ;;; jump table entry 17: deoptimization bailout 38.
0x177bccd6e2c9  2313  e8ae7ec9ff     call 0x177bcca0617c     ;; deoptimization bailout 38
                  ;;; jump table entry 18: deoptimization bailout 42.
0x177bccd6e2ce  2318  e8d17ec9ff     call 0x177bcca061a4     ;; deoptimization bailout 42
                  ;;; jump table entry 19: deoptimization bailout 44.
0x177bccd6e2d3  2323  e8e07ec9ff     call 0x177bcca061b8     ;; deoptimization bailout 44
                  ;;; Safepoint table.

Deoptimization Input Data (deopt points = 45)
 index  ast id    argc     pc
     0       3       0     38
     1      15       0     73
     2      18       0    122
     3      35       0    153
     4      45       0    241
     5      38       0    269
     6      49       0     -1
     7      47       0     -1
     8      47       0     -1
     9      47       0     -1
    10      47       0     -1
    11      47       0     -1
    12      51       0    530
    13      51       0     -1
    14      51       0     -1
    15      51       0     -1
    16       2       0     -1
    17      35       0     -1
    18     107       0     -1
    19     129       0    833
    20     132       0    861
    21     148       0    896
    22     157       0     -1
    23     161       0    965
    24     161       0     -1
    25     161       0     -1
    26       2       0     -1
    27       2       0     -1
    28      35       0     -1
    29     225       0   1174
    30     268       0   1213
    31     241       0   1252
    32     241       0     -1
    33     288       0   1368
    34      47       0     -1
    35      47       0     -1
    36      47       0     -1
    37      51       0     -1
    38       2       0     -1
    39      35       0     -1
    40     107       0     -1
    41     157       0     -1
    42       2       0     -1
    43      35       0     -1
    44     241       0     -1

Safepoints (size = 268)
0x177bccd6d9e6    38  000000000000010000000 (sp -> fp)       0
0x177bccd6da09    73  000000000000010000000 (sp -> fp)       1
0x177bccd6da33   115  000000000000010000000 (sp -> fp)       2
0x177bccd6da59   153  000000000000110000000 (sp -> fp)       3
0x177bccd6daad   237  000000000000110000000 (sp -> fp)       4
0x177bccd6dab1   241  000000000000110000000 (sp -> fp)       4
0x177bccd6dacd   269  000000000000110000000 (sp -> fp)       5
0x177bccd6dd01   833  000000111111000000000 (sp -> fp)      19
0x177bccd6dd1d   861  000000111111000000000 (sp -> fp)      20
0x177bccd6dd39   889  000000111111000000000 (sp -> fp)      21
0x177bccd6de56  1174  001101111111000000000 (sp -> fp)      29
0x177bccd6de7d  1213  000001111111000000000 (sp -> fp)      30
0x177bccd6dea4  1252  000101111111000000000 (sp -> fp)      31
0x177bccd6df18  1368  100001111111000000000 (sp -> fp)      33
0x177bccd6e005  1605  000000111111000000000 | rsi | r15 (sp -> fp)      12
0x177bccd6e048  1672  000000111111000000000 | rcx | rsi | r15 (sp -> fp)  <none> argc: 1
0x177bccd6e093  1747  000000111111000000000 | rcx | rsi | rdi | r15 (sp -> fp)  <none> argc: 1
0x177bccd6e185  1989  000001111111000000000 | rax | rdi (sp -> fp)      23
0x177bccd6e1c9  2057  000101111111000000000 | rax | rdi | r9 (sp -> fp)  <none> argc: 1
0x177bccd6e252  2194  000101111111000000000 | rax (sp -> fp)  <none> argc: 1

RelocInfo (size = 2744)
0x177bccd6d9cd  comment  (;;; <@0,#0> -------------------- B0 --------------------)
0x177bccd6d9cd  comment  (;;; <@2,#1> context)
0x177bccd6d9d1  comment  (;;; <@3,#1> gap)
0x177bccd6d9d5  comment  (;;; <@14,#10> -------------------- B1 --------------------)
0x177bccd6d9d5  comment  (;;; <@15,#10> gap)
0x177bccd6d9d8  comment  (;;; <@16,#12> stack-check)
0x177bccd6d9e2  code target (BUILTIN)  (0x177bccd31140)
0x177bccd6d9e6  comment  (;;; <@18,#12> lazy-bailout)
0x177bccd6d9e6  comment  (;;; <@20,#16> constant-t)
0x177bccd6d9e8  embedded object  (0xecbf5c6f749 <FixedArray[112]>)
0x177bccd6d9f0  comment  (;;; <@22,#20> constant-t)
0x177bccd6d9f2  embedded object  (0xecbf5c50eb1 <JS Function Object (SharedFunctionInfo 0xecbf5c3d169)>)
0x177bccd6d9fa  comment  (;;; <@24,#21> load-named-generic)
0x177bccd6d9fc  embedded object  (0x1638fe312ba1 <String[6]: create>)
0x177bccd6da05  code target (LOAD_IC)  (0x177bccd30520)
0x177bccd6da09  comment  (;;; <@26,#22> lazy-bailout)
0x177bccd6da09  comment  (;;; <@28,#24> push-argument)
0x177bccd6da0b  embedded object  (0xecbf5c50eb1 <JS Function Object (SharedFunctionInfo 0xecbf5c3d169)>)
0x177bccd6da15  comment  (;;; <@30,#24> push-argument)
0x177bccd6da17  embedded object  (0xecbf5c04101 <null>)
0x177bccd6da21  comment  (;;; <@32,#16> constant-t)
0x177bccd6da23  embedded object  (0xecbf5c6f749 <FixedArray[112]>)
0x177bccd6da2b  comment  (;;; <@33,#16> gap)
0x177bccd6da2e  comment  (;;; <@34,#25> call-function)
0x177bccd6da2f  code target (STUB)  (0x177bccd2c5e0)
0x177bccd6da33  comment  (;;; <@35,#25> gap)
0x177bccd6da3a  comment  (;;; <@36,#26> lazy-bailout)
0x177bccd6da3a  comment  (;;; <@38,#16> constant-t)
0x177bccd6da3c  embedded object  (0xecbf5c6f749 <FixedArray[112]>)
0x177bccd6da44  comment  (;;; <@40,#326> constant-t)
0x177bccd6da47  comment  (;;; <@41,#326> gap)
0x177bccd6da4a  comment  (;;; <@42,#31> store-named-generic)
0x177bccd6da4c  embedded object  (0x1638fe32c461 <String[3]: foo>)
0x177bccd6da55  code target (STORE_IC)  (0x177bccd305a0)
0x177bccd6da59  comment  (;;; <@44,#32> lazy-bailout)
0x177bccd6da59  comment  (;;; <@46,#16> constant-t)
0x177bccd6da5b  embedded object  (0xecbf5c6f749 <FixedArray[112]>)
0x177bccd6da63  comment  (;;; <@48,#35> load-named-field)
0x177bccd6da67  comment  (;;; <@50,#36> load-named-field)
0x177bccd6da6b  comment  (;;; <@52,#37> load-named-field)
0x177bccd6da72  comment  (;;; <@54,#39> push-argument)
0x177bccd6da75  comment  (;;; <@56,#39> push-argument)
0x177bccd6da77  embedded object  (0x1638fe32c461 <String[3]: foo>)
0x177bccd6da81  comment  (;;; <@58,#39> push-argument)
0x177bccd6da83  comment  (;;; <@60,#16> constant-t)
0x177bccd6da85  embedded object  (0xecbf5c6f749 <FixedArray[112]>)
0x177bccd6da8d  comment  (;;; <@62,#40> invoke-function)
0x177bccd6daa9  code target (BUILTIN)  (0x177bccd06da0)
0x177bccd6dab1  comment  (;;; <@64,#41> lazy-bailout)
0x177bccd6dab1  comment  (;;; <@68,#46> -------------------- B2 --------------------)
0x177bccd6dab1  comment  (;;; <@69,#46> gap)
0x177bccd6dab9  comment  (;;; <@70,#50> load-named-generic)
0x177bccd6dac0  embedded object  (0x1638fe30f489 <String[6]: length>)
0x177bccd6dac9  code target (LOAD_IC)  (0x177bccd30520)
0x177bccd6dacd  comment  (;;; <@72,#51> lazy-bailout)
0x177bccd6dacd  comment  (;;; <@75,#54> goto)
0x177bccd6dad2  comment  (;;; <@76,#58> -------------------- B3 (OSR entry) --------------------)
0x177bccd6dad6  comment  (;;; <@104,#73> context)
0x177bccd6dada  comment  (;;; <@105,#73> gap)
0x177bccd6dade  comment  (;;; <@106,#329> tagged-to-i)
0x177bccd6daea  comment  (;;; <@107,#329> gap)
0x177bccd6daee  comment  (;;; <@108,#330> tagged-to-i)
0x177bccd6dafb  comment  (;;; <@110,#75> gap)
0x177bccd6db15  comment  (;;; <@111,#75> goto)
0x177bccd6db1a  comment  (;;; <@112,#55> -------------------- B4 --------------------)
0x177bccd6db1a  comment  (;;; <@113,#55> gap)
0x177bccd6db1d  comment  (;;; <@114,#328> tagged-to-i)
0x177bccd6db2a  comment  (;;; <@116,#57> gap)
0x177bccd6db44  comment  (;;; <@118,#100> -------------------- B5 --------------------)
0x177bccd6db5f  comment  (;;; <@120,#117> check-non-smi)
0x177bccd6db5f  position  (444)
0x177bccd6db69  comment  (;;; <@122,#118> check-maps)
0x177bccd6db6b  embedded object  (0x1b4f13c13b09 <Map(elements=3)>)
0x177bccd6db7d  comment  (;;; <@124,#119> load-named-field)
0x177bccd6db81  comment  (;;; <@126,#120> load-named-field)
0x177bccd6db85  comment  (;;; <@128,#170> check-non-smi)
0x177bccd6db85  position  (192)
0x177bccd6db8d  comment  (;;; <@130,#171> check-maps)
0x177bccd6db8f  embedded object  (0x1b4f13c13c29 <Map(elements=3)>)
0x177bccd6dba1  comment  (;;; <@132,#172> load-named-field)
0x177bccd6dba5  comment  (;;; <@134,#173> check-maps)
0x177bccd6dba7  embedded object  (0x1b4f13c04221 <Map(elements=0)>)
0x177bccd6dbb9  comment  (;;; <@136,#174> load-named-field)
0x177bccd6dbbd  position  (444)
0x177bccd6dbbd  comment  (;;; <@140,#103> -------------------- B6 (loop header) --------------------)
0x177bccd6dbbd  comment  (;;; <@143,#106> compare-numeric-and-branch)
0x177bccd6dbc5  comment  (;;; <@144,#107> -------------------- B7 (unreachable/replaced) --------------------)
0x177bccd6dbc5  comment  (;;; <@148,#113> -------------------- B8 --------------------)
0x177bccd6dbc5  comment  (;;; <@150,#115> stack-check)
0x177bccd6dbd2  comment  (;;; <@152,#121> bounds-check)
0x177bccd6dbdb  comment  (;;; <@154,#122> load-keyed)
0x177bccd6dbea  comment  (;;; <@156,#125> check-non-smi)
0x177bccd6dbf3  comment  (;;; <@158,#126> check-maps)
0x177bccd6dbf5  embedded object  (0x1b4f13c13ac1 <Map(elements=3)>)
0x177bccd6dc07  comment  (;;; <@160,#127> load-named-field)
0x177bccd6dc0b  comment  (;;; <@162,#138> check-maps)
0x177bccd6dc0d  embedded object  (0x1b4f13c13ac1 <Map(elements=3)>)
0x177bccd6dc1f  comment  (;;; <@164,#139> load-named-field)
0x177bccd6dc23  comment  (;;; <@167,#140> branch)
0x177bccd6dc41  runtime entry  (deoptimization bailout 16)
0x177bccd6dc45  comment  (;;; <@168,#144> -------------------- B9 (unreachable/replaced) --------------------)
0x177bccd6dc45  position  (192)
0x177bccd6dc45  comment  (;;; <@172,#147> -------------------- B10 --------------------)
0x177bccd6dc45  comment  (;;; <@174,#148> load-global-cell)
0x177bccd6dc47  property cell
0x177bccd6dc52  comment  (;;; <@176,#331> tagged-to-i)
0x177bccd6dc60  comment  (;;; <@177,#331> gap)
0x177bccd6dc63  comment  (;;; <@178,#151> add-i)
0x177bccd6dc6d  comment  (;;; <@180,#333> smi-tag)
0x177bccd6dc74  comment  (;;; <@182,#152> store-global-cell)
0x177bccd6dc76  property cell
0x177bccd6dc81  comment  (;;; <@184,#332> smi-tag)
0x177bccd6dc88  comment  (;;; <@186,#155> store-named-field)
0x177bccd6dc8c  comment  (;;; <@190,#141> -------------------- B11 (unreachable/replaced) --------------------)
0x177bccd6dc8c  comment  (;;; <@194,#159> -------------------- B12 (unreachable/replaced) --------------------)
0x177bccd6dc8c  comment  (;;; <@198,#162> -------------------- B13 --------------------)
0x177bccd6dc8c  comment  (;;; <@200,#164> load-named-field)
0x177bccd6dc90  comment  (;;; <@204,#168> -------------------- B14 --------------------)
0x177bccd6dc90  comment  (;;; <@205,#168> gap)
0x177bccd6dc93  comment  (;;; <@206,#334> tagged-to-i)
0x177bccd6dca1  comment  (;;; <@208,#175> bounds-check)
0x177bccd6dcaa  comment  (;;; <@209,#175> gap)
0x177bccd6dcad  comment  (;;; <@210,#177> store-keyed)
0x177bccd6dcde  code target (STUB)  (0x177bccd6cf80)
0x177bccd6dce2  comment  (;;; <@212,#180> add-i)
0x177bccd6dce2  position  (450)
0x177bccd6dce5  comment  (;;; <@215,#183> goto)
0x177bccd6dcea  comment  (;;; <@216,#110> -------------------- B15 (unreachable/replaced) --------------------)
0x177bccd6dcea  comment  (;;; <@220,#184> -------------------- B16 --------------------)
0x177bccd6dcea  comment  (;;; <@221,#184> gap)
0x177bccd6dcf2  comment  (;;; <@222,#185> load-named-generic)
0x177bccd6dcf4  embedded object  (0x1638fe30f489 <String[6]: length>)
0x177bccd6dcfd  code target (LOAD_IC)  (0x177bccd30520)
0x177bccd6dd01  comment  (;;; <@224,#186> lazy-bailout)
0x177bccd6dd01  comment  (;;; <@225,#186> gap)
0x177bccd6dd09  comment  (;;; <@226,#187> store-named-generic)
0x177bccd6dd10  embedded object  (0x1638fe30f489 <String[6]: length>)
0x177bccd6dd19  code target (STORE_IC)  (0x177bccd305a0)
0x177bccd6dd1d  comment  (;;; <@228,#188> lazy-bailout)
0x177bccd6dd1d  comment  (;;; <@229,#188> gap)
0x177bccd6dd25  comment  (;;; <@230,#191> load-named-generic)
0x177bccd6dd2c  embedded object  (0x1638fe30f489 <String[6]: length>)
0x177bccd6dd35  code target (LOAD_IC)  (0x177bccd30520)
0x177bccd6dd39  comment  (;;; <@231,#191> gap)
0x177bccd6dd40  comment  (;;; <@232,#192> lazy-bailout)
0x177bccd6dd40  comment  (;;; <@233,#192> gap)
0x177bccd6dd43  comment  (;;; <@234,#335> tagged-to-i)
0x177bccd6dd43  position  (650)
0x177bccd6dd50  comment  (;;; <@235,#335> gap)
0x177bccd6dd5b  comment  (;;; <@236,#222> check-non-smi)
0x177bccd6dd65  comment  (;;; <@238,#207> gap)
0x177bccd6dd65  position  (450)
0x177bccd6dd68  position  (650)
0x177bccd6dd68  comment  (;;; <@240,#208> -------------------- B17 (loop header) --------------------)
0x177bccd6dd6f  comment  (;;; <@243,#211> compare-numeric-and-branch)
0x177bccd6dd78  comment  (;;; <@244,#212> -------------------- B18 (unreachable/replaced) --------------------)
0x177bccd6dd78  comment  (;;; <@248,#218> -------------------- B19 --------------------)
0x177bccd6dd78  comment  (;;; <@250,#220> stack-check)
0x177bccd6dd85  comment  (;;; <@252,#223> check-maps)
0x177bccd6dd87  embedded object  (0x1b4f13c0d5c9 <Map(elements=2)>)
0x177bccd6dd99  comment  (;;; <@254,#224> load-named-field)
0x177bccd6dd9d  comment  (;;; <@256,#225> load-named-field)
0x177bccd6dda0  comment  (;;; <@258,#226> bounds-check)
0x177bccd6dda9  comment  (;;; <@260,#227> load-keyed)
0x177bccd6ddae  comment  (;;; <@261,#227> gap)
0x177bccd6ddb5  comment  (;;; <@262,#243> check-non-smi)
0x177bccd6ddbf  comment  (;;; <@264,#244> check-maps)
0x177bccd6ddc1  embedded object  (0x1b4f13c13ac1 <Map(elements=3)>)
0x177bccd6ddd3  comment  (;;; <@266,#245> load-named-field)
0x177bccd6ddd7  comment  (;;; <@269,#246> branch)
0x177bccd6ddf4  runtime entry  (deoptimization bailout 27)
0x177bccd6ddf8  comment  (;;; <@270,#250> -------------------- B20 (unreachable/replaced) --------------------)
0x177bccd6ddf8  position  (192)
0x177bccd6ddf8  comment  (;;; <@274,#253> -------------------- B21 --------------------)
0x177bccd6ddf8  comment  (;;; <@276,#254> load-global-cell)
0x177bccd6ddfa  property cell
0x177bccd6de05  comment  (;;; <@278,#337> tagged-to-i)
0x177bccd6de12  comment  (;;; <@279,#337> gap)
0x177bccd6de15  comment  (;;; <@280,#256> add-i)
0x177bccd6de1e  comment  (;;; <@282,#339> smi-tag)
0x177bccd6de24  comment  (;;; <@284,#257> store-global-cell)
0x177bccd6de26  property cell
0x177bccd6de31  comment  (;;; <@286,#338> smi-tag)
0x177bccd6de37  comment  (;;; <@288,#261> store-named-field)
0x177bccd6de3b  comment  (;;; <@292,#247> -------------------- B22 (unreachable/replaced) --------------------)
0x177bccd6de3b  comment  (;;; <@296,#265> -------------------- B23 (unreachable/replaced) --------------------)
0x177bccd6de3b  comment  (;;; <@300,#268> -------------------- B24 --------------------)
0x177bccd6de3b  comment  (;;; <@302,#271> load-named-field)
0x177bccd6de3f  comment  (;;; <@303,#271> gap)
0x177bccd6de46  comment  (;;; <@306,#275> -------------------- B25 --------------------)
0x177bccd6de46  comment  (;;; <@307,#275> gap)
0x177bccd6de51  comment  (;;; <@308,#279> load-keyed-generic)
0x177bccd6de51  position  (789)
0x177bccd6de52  code target (KEYED_LOAD_IC)  (0x177bccd34860)
0x177bccd6de56  comment  (;;; <@310,#280> lazy-bailout)
0x177bccd6de56  comment  (;;; <@313,#281> cmp-object-eq-and-branch)
0x177bccd6de58  embedded object  (0xecbf5c04121 <undefined>)
0x177bccd6de69  comment  (;;; <@314,#285> -------------------- B26 (unreachable/replaced) --------------------)
0x177bccd6de69  comment  (;;; <@318,#301> -------------------- B27 --------------------)
0x177bccd6de69  comment  (;;; <@319,#301> gap)
0x177bccd6de78  comment  (;;; <@320,#304> load-keyed-generic)
0x177bccd6de79  code target (KEYED_LOAD_IC)  (0x177bccd34860)
0x177bccd6de7d  comment  (;;; <@322,#305> lazy-bailout)
0x177bccd6de7d  comment  (;;; <@324,#310> gap)
0x177bccd6de80  comment  (;;; <@325,#310> goto)
0x177bccd6de85  comment  (;;; <@326,#282> -------------------- B28 (unreachable/replaced) --------------------)
0x177bccd6de85  comment  (;;; <@330,#288> -------------------- B29 --------------------)
0x177bccd6de85  comment  (;;; <@332,#290> push-argument)
0x177bccd6de87  embedded object  (0xecbf5c04121 <undefined>)
0x177bccd6de91  comment  (;;; <@334,#290> push-argument)
0x177bccd6de97  comment  (;;; <@335,#290> gap)
0x177bccd6de9f  comment  (;;; <@336,#291> call-function)
0x177bccd6dea0  code target (STUB)  (0x177bccd2c5e0)
0x177bccd6dea4  comment  (;;; <@338,#292> lazy-bailout)
0x177bccd6dea4  comment  (;;; <@340,#296> check-non-smi)
0x177bccd6deac  comment  (;;; <@342,#297> check-maps)
0x177bccd6deae  embedded object  (0x1b4f13c13ac1 <Map(elements=3)>)
0x177bccd6dec0  comment  (;;; <@343,#297> gap)
0x177bccd6dec7  comment  (;;; <@344,#299> store-named-field)
0x177bccd6deed  code target (STUB)  (0x177bccd63b60)
0x177bccd6def1  comment  (;;; <@346,#308> gap)
0x177bccd6def4  comment  (;;; <@348,#312> -------------------- B30 --------------------)
0x177bccd6defb  comment  (;;; <@349,#312> gap)
0x177bccd6df02  comment  (;;; <@350,#336> smi-tag)
0x177bccd6df08  comment  (;;; <@351,#336> gap)
0x177bccd6df13  comment  (;;; <@352,#315> store-keyed-generic)
0x177bccd6df14  code target (KEYED_STORE_IC)  (0x177bccd36e20)
0x177bccd6df18  comment  (;;; <@354,#316> lazy-bailout)
0x177bccd6df18  comment  (;;; <@355,#316> gap)
0x177bccd6df1f  comment  (;;; <@356,#318> add-i)
0x177bccd6df1f  position  (656)
0x177bccd6df23  comment  (;;; <@358,#321> gap)
0x177bccd6df35  comment  (;;; <@359,#321> goto)
0x177bccd6df3a  comment  (;;; <@360,#215> -------------------- B31 (unreachable/replaced) --------------------)
0x177bccd6df3a  comment  (;;; <@364,#322> -------------------- B32 --------------------)
0x177bccd6df3a  comment  (;;; <@366,#7> constant-t)
0x177bccd6df3c  embedded object  (0xecbf5c04121 <undefined>)
0x177bccd6df44  comment  (;;; <@368,#324> return)
0x177bccd6df4b  comment  (;;; <@106,#329> -------------------- Deferred tagged-to-i --------------------)
0x177bccd6df69  comment  (Deferred TaggedToI: lost precision)
0x177bccd6df6b  comment  (Deferred TaggedToI: NaN)
0x177bccd6df73  runtime entry  (deoptimization bailout 34)
0x177bccd6df7c  comment  (;;; <@108,#330> -------------------- Deferred tagged-to-i --------------------)
0x177bccd6df9a  comment  (Deferred TaggedToI: lost precision)
0x177bccd6df9c  comment  (Deferred TaggedToI: NaN)
0x177bccd6dfa4  runtime entry  (deoptimization bailout 35)
0x177bccd6dfad  comment  (;;; <@114,#328> -------------------- Deferred tagged-to-i --------------------)
0x177bccd6dfcb  comment  (Deferred TaggedToI: lost precision)
0x177bccd6dfcd  comment  (Deferred TaggedToI: NaN)
0x177bccd6dfd5  runtime entry  (deoptimization bailout 36)
0x177bccd6dfde  position  (444)
0x177bccd6dfde  comment  (;;; <@150,#115> -------------------- Deferred stack-check --------------------)
0x177bccd6e001  code target (STUB)  (0x177bccd062a0)
0x177bccd6e01f  comment  (;;; <@158,#126> -------------------- Deferred check-maps --------------------)
0x177bccd6e044  code target (STUB)  (0x177bccd062a0)
0x177bccd6e06a  comment  (;;; <@162,#138> -------------------- Deferred check-maps --------------------)
0x177bccd6e08f  code target (STUB)  (0x177bccd062a0)
0x177bccd6e0b5  position  (192)
0x177bccd6e0b5  comment  (;;; <@176,#331> -------------------- Deferred tagged-to-i --------------------)
0x177bccd6e0d6  comment  (Deferred TaggedToI: lost precision)
0x177bccd6e0d8  comment  (Deferred TaggedToI: NaN)
0x177bccd6e0f0  runtime entry  (deoptimization bailout 39)
0x177bccd6e0f9  comment  (;;; <@206,#334> -------------------- Deferred tagged-to-i --------------------)
0x177bccd6e11a  comment  (Deferred TaggedToI: lost precision)
0x177bccd6e11c  comment  (Deferred TaggedToI: NaN)
0x177bccd6e124  runtime entry  (deoptimization bailout 40)
0x177bccd6e12d  position  (650)
0x177bccd6e12d  comment  (;;; <@234,#335> -------------------- Deferred tagged-to-i --------------------)
0x177bccd6e14b  comment  (Deferred TaggedToI: lost precision)
0x177bccd6e14d  comment  (Deferred TaggedToI: NaN)
0x177bccd6e155  runtime entry  (deoptimization bailout 41)
0x177bccd6e15e  comment  (;;; <@250,#220> -------------------- Deferred stack-check --------------------)
0x177bccd6e181  code target (STUB)  (0x177bccd062a0)
0x177bccd6e19f  comment  (;;; <@264,#244> -------------------- Deferred check-maps --------------------)
0x177bccd6e1c5  code target (STUB)  (0x177bccd062a0)
0x177bccd6e1eb  position  (192)
0x177bccd6e1eb  comment  (;;; <@278,#337> -------------------- Deferred tagged-to-i --------------------)
0x177bccd6e209  comment  (Deferred TaggedToI: lost precision)
0x177bccd6e20b  comment  (Deferred TaggedToI: NaN)
0x177bccd6e220  runtime entry  (deoptimization bailout 43)
0x177bccd6e229  position  (789)
0x177bccd6e229  comment  (;;; <@342,#297> -------------------- Deferred check-maps --------------------)
0x177bccd6e24e  code target (STUB)  (0x177bccd062a0)
0x177bccd6e274  comment  (;;; -------------------- Jump table --------------------)
0x177bccd6e274  comment  (;;; jump table entry 0: deoptimization bailout 7.)
0x177bccd6e275  runtime entry  (deoptimization bailout 7)
0x177bccd6e279  comment  (;;; jump table entry 1: deoptimization bailout 8.)
0x177bccd6e27a  runtime entry  (deoptimization bailout 8)
0x177bccd6e27e  comment  (;;; jump table entry 2: deoptimization bailout 9.)
0x177bccd6e27f  runtime entry  (deoptimization bailout 9)
0x177bccd6e283  comment  (;;; jump table entry 3: deoptimization bailout 10.)
0x177bccd6e284  runtime entry  (deoptimization bailout 10)
0x177bccd6e288  comment  (;;; jump table entry 4: deoptimization bailout 11.)
0x177bccd6e289  runtime entry  (deoptimization bailout 11)
0x177bccd6e28d  comment  (;;; jump table entry 5: deoptimization bailout 13.)
0x177bccd6e28e  runtime entry  (deoptimization bailout 13)
0x177bccd6e292  comment  (;;; jump table entry 6: deoptimization bailout 14.)
0x177bccd6e293  runtime entry  (deoptimization bailout 14)
0x177bccd6e297  comment  (;;; jump table entry 7: deoptimization bailout 15.)
0x177bccd6e298  runtime entry  (deoptimization bailout 15)
0x177bccd6e29c  comment  (;;; jump table entry 8: deoptimization bailout 17.)
0x177bccd6e29d  runtime entry  (deoptimization bailout 17)
0x177bccd6e2a1  comment  (;;; jump table entry 9: deoptimization bailout 18.)
0x177bccd6e2a2  runtime entry  (deoptimization bailout 18)
0x177bccd6e2a6  comment  (;;; jump table entry 10: deoptimization bailout 22.)
0x177bccd6e2a7  runtime entry  (deoptimization bailout 22)
0x177bccd6e2ab  comment  (;;; jump table entry 11: deoptimization bailout 24.)
0x177bccd6e2ac  runtime entry  (deoptimization bailout 24)
0x177bccd6e2b0  comment  (;;; jump table entry 12: deoptimization bailout 25.)
0x177bccd6e2b1  runtime entry  (deoptimization bailout 25)
0x177bccd6e2b5  comment  (;;; jump table entry 13: deoptimization bailout 26.)
0x177bccd6e2b6  runtime entry  (deoptimization bailout 26)
0x177bccd6e2ba  comment  (;;; jump table entry 14: deoptimization bailout 28.)
0x177bccd6e2bb  runtime entry  (deoptimization bailout 28)
0x177bccd6e2bf  comment  (;;; jump table entry 15: deoptimization bailout 32.)
0x177bccd6e2c0  runtime entry  (deoptimization bailout 32)
0x177bccd6e2c4  comment  (;;; jump table entry 16: deoptimization bailout 37.)
0x177bccd6e2c5  runtime entry  (deoptimization bailout 37)
0x177bccd6e2c9  comment  (;;; jump table entry 17: deoptimization bailout 38.)
0x177bccd6e2ca  runtime entry  (deoptimization bailout 38)
0x177bccd6e2ce  comment  (;;; jump table entry 18: deoptimization bailout 42.)
0x177bccd6e2cf  runtime entry  (deoptimization bailout 42)
0x177bccd6e2d3  comment  (;;; jump table entry 19: deoptimization bailout 44.)
0x177bccd6e2d4  runtime entry  (deoptimization bailout 44)
0x177bccd6e2d8  comment  (;;; Safepoint table.)

--- End code ---
[optimizing 0xecbf5c621a1 <JS Function syncMap (SharedFunctionInfo 0xecbf5c61c19)> - took 1.131, 4.662, 5.366 ms]
[deoptimizing (DEOPT eager): begin 0xecbf5c621a1 syncMap (opt #9) @10, FP to SP delta: 184]
            ;;; jump table entry 3: deoptimization bailout 10.
  translating syncMap => node=47, height=56
    0x7fff5fbfe118: [top + 112] <- 0xecbf5c04121 ; r11 0xecbf5c04121 <undefined>
    0x7fff5fbfe110: [top + 104] <- 0x13fa3c0c369 ; r9 0x13fa3c0c369 <JS Array[50000]>
    0x7fff5fbfe108: [top + 96] <- 0xecbf5c6fad9 ; r8 0xecbf5c6fad9 <JS Array[50000]>
    0x7fff5fbfe100: [top + 88] <- 0xecbf5c621e9 ; rdi 0xecbf5c621e9 <JS Function ident (SharedFunctionInfo 0xecbf5c61ca9)>
    0x7fff5fbfe0f8: [top + 80] <- 0x177bccd5f816 ; caller's pc
    0x7fff5fbfe0f0: [top + 72] <- 0x7fff5fbfe140 ; caller's fp
    0x7fff5fbfe0e8: [top + 64] <- 0xecbf5c6f749; context
    0x7fff5fbfe0e0: [top + 56] <- 0xecbf5c621a1; function
    0x7fff5fbfe0d8: [top + 48] <- 0 ; rdx (smi)
    0x7fff5fbfe0d0: [top + 40] <- 0xecbf5c04121 <undefined> ; literal
    0x7fff5fbfe0c8: [top + 32] <- 50000 ; rbx (smi)
    0x7fff5fbfe0c0: [top + 24] <- 0x1a44080c63a1 ; rax 0x1a44080c63a1 <an Object with map 0x1b4f13c115e9>
    0x7fff5fbfe0b8: [top + 16] <- 0xecbf5c04121 <undefined> ; literal
    0x7fff5fbfe0b0: [top + 8] <- 0xecbf5c04121 <undefined> ; literal
    0x7fff5fbfe0a8: [top + 0] <- 0xecbf5c04121 <undefined> ; literal
[deoptimizing (eager): end 0xecbf5c621a1 syncMap @10 => node=47, pc=0x177bccd61aa0, state=NO_REGISTERS, alignment=no padding, took 0.074 ms]
[removing optimized code for: syncMap]
[evicting entry from optimizing code map (notify deoptimized) for 0xecbf5c61c19 <SharedFunctionInfo syncMap> (osr ast id 49)]
[marking 0xecbf5c621a1 <JS Function syncMap (SharedFunctionInfo 0xecbf5c61c19)> for recompilation, reason: hot and stable, ICs with typeinfo: 13/24 (54%)]
Inlined makeMap called from syncMap.
Inlined guid called from syncMap.
Inlined guid called from syncMap.
--- Raw source ---
(mapped, source, mapFn) {\x0a  var i,x, l, guidMap = makeMap();\x0a\x0a  for (i = 0, l = mapped.length; i < l; i++) {\x0a    var mappedItem = mapped[i];\x0a    var sourceItem = mappedItem.__source__;\x0a    guidMap[guid(sourceItem)] = mappedItem;\x0a  }\x0a\x0a  mapped.length = source.length;\x0a\x0a  for (x = 0, l = source.length; x < l; x++) {\x0a    var sourceItem = source[x];\x0a    var sourceItemGuid = guid(source[x]);\x0a    var mappedItem;\x0a\x0a    if (guidMap[sourceItemGuid] === undefined) {\x0a      mappedItem = mapFn(sourceItem);\x0a      mappedItem.__source__ = sourceItem;\x0a    } else {\x0a      mappedItem = guidMap[sourceItemGuid];\x0a    }\x0a\x0a    mapped[x] = mappedItem;\x0a  }\x0a}\x0a

--- Optimized code ---
optimization_id = 10
source_position = 347
kind = OPTIMIZED_FUNCTION
name = syncMap
stack_slots = 23
Instructions (size = 2489)
0x177bccd6ea40     0  55             push rbp
0x177bccd6ea41     1  4889e5         REX.W movq rbp,rsp
0x177bccd6ea44     4  56             push rsi
0x177bccd6ea45     5  57             push rdi
0x177bccd6ea46     6  4881ecb8000000 REX.W subq rsp,0xb8
                  ;;; <@0,#0> -------------------- B0 --------------------
                  ;;; <@2,#1> context
0x177bccd6ea4d    13  488b45f8       REX.W movq rax,[rbp-0x8]
                  ;;; <@3,#1> gap
0x177bccd6ea51    17  488945b0       REX.W movq [rbp-0x50],rax
                  ;;; <@14,#10> -------------------- B1 --------------------
                  ;;; <@15,#10> gap
0x177bccd6ea55    21  488bf0         REX.W movq rsi,rax
                  ;;; <@16,#12> stack-check
0x177bccd6ea58    24  493ba590070000 REX.W cmpq rsp,[r13+0x790]
0x177bccd6ea5f    31  7305           jnc 38  (0x177bccd6ea66)
0x177bccd6ea61    33  e8da26fcff     call StackCheck  (0x177bccd31140)    ;; code: BUILTIN
                  ;;; <@18,#12> lazy-bailout
                  ;;; <@20,#16> constant-t
0x177bccd6ea66    38  48be49f7c6f5cb0e0000 REX.W movq rsi,0xecbf5c6f749    ;; object: 0xecbf5c6f749 <FixedArray[112]>
                  ;;; <@22,#20> constant-t
0x177bccd6ea70    48  48bab10ec5f5cb0e0000 REX.W movq rdx,0xecbf5c50eb1    ;; object: 0xecbf5c50eb1 <JS Function Object (SharedFunctionInfo 0xecbf5c3d169)>
                  ;;; <@24,#21> load-named-generic
0x177bccd6ea7a    58  48b9a12b31fe38160000 REX.W movq rcx,0x1638fe312ba1    ;; object: 0x1638fe312ba1 <String[6]: create>
0x177bccd6ea84    68  e8971afcff     call 0x177bccd30520     ;; code: LOAD_IC, UNINITIALIZED
                  ;;; <@26,#22> lazy-bailout
                  ;;; <@28,#24> push-argument
0x177bccd6ea89    73  49bab10ec5f5cb0e0000 REX.W movq r10,0xecbf5c50eb1    ;; object: 0xecbf5c50eb1 <JS Function Object (SharedFunctionInfo 0xecbf5c3d169)>
0x177bccd6ea93    83  4152           push r10
                  ;;; <@30,#24> push-argument
0x177bccd6ea95    85  49ba0141c0f5cb0e0000 REX.W movq r10,0xecbf5c04101    ;; object: 0xecbf5c04101 <null>
0x177bccd6ea9f    95  4152           push r10
                  ;;; <@32,#16> constant-t
0x177bccd6eaa1    97  48be49f7c6f5cb0e0000 REX.W movq rsi,0xecbf5c6f749    ;; object: 0xecbf5c6f749 <FixedArray[112]>
                  ;;; <@33,#16> gap
0x177bccd6eaab   107  488bf8         REX.W movq rdi,rax
                  ;;; <@34,#25> call-function
0x177bccd6eaae   110  e82ddbfbff     call 0x177bccd2c5e0     ;; code: STUB, CallFunctionStub, argc = 1
                  ;;; <@35,#25> gap
0x177bccd6eab3   115  488945a8       REX.W movq [rbp-0x58],rax
0x177bccd6eab7   119  488bd8         REX.W movq rbx,rax
                  ;;; <@36,#26> lazy-bailout
                  ;;; <@38,#16> constant-t
0x177bccd6eaba   122  48be49f7c6f5cb0e0000 REX.W movq rsi,0xecbf5c6f749    ;; object: 0xecbf5c6f749 <FixedArray[112]>
                  ;;; <@40,#319> constant-t
0x177bccd6eac4   132  4c89e0         REX.W movq rax,r12
                  ;;; <@41,#319> gap
0x177bccd6eac7   135  488bd3         REX.W movq rdx,rbx
                  ;;; <@42,#31> store-named-generic
0x177bccd6eaca   138  48b961c432fe38160000 REX.W movq rcx,0x1638fe32c461    ;; object: 0x1638fe32c461 <String[3]: foo>
0x177bccd6ead4   148  e8c71afcff     call 0x177bccd305a0     ;; code: STORE_IC, UNINITIALIZED
                  ;;; <@44,#32> lazy-bailout
                  ;;; <@46,#16> constant-t
0x177bccd6ead9   153  48be49f7c6f5cb0e0000 REX.W movq rsi,0xecbf5c6f749    ;; object: 0xecbf5c6f749 <FixedArray[112]>
                  ;;; <@48,#35> load-named-field
0x177bccd6eae3   163  488b4627       REX.W movq rax,[rsi+0x27]
                  ;;; <@50,#36> load-named-field
0x177bccd6eae7   167  488b4017       REX.W movq rax,[rax+0x17]
                  ;;; <@52,#37> load-named-field
0x177bccd6eaeb   171  488bb8a7000000 REX.W movq rdi,[rax+0xa7]
                  ;;; <@54,#39> push-argument
0x177bccd6eaf2   178  ff75a8         push [rbp-0x58]
                  ;;; <@56,#39> push-argument
0x177bccd6eaf5   181  49ba61c432fe38160000 REX.W movq r10,0x1638fe32c461    ;; object: 0x1638fe32c461 <String[3]: foo>
0x177bccd6eaff   191  4152           push r10
                  ;;; <@58,#39> push-argument
0x177bccd6eb01   193  6a00           push 0x0
                  ;;; <@60,#16> constant-t
0x177bccd6eb03   195  48be49f7c6f5cb0e0000 REX.W movq rsi,0xecbf5c6f749    ;; object: 0xecbf5c6f749 <FixedArray[112]>
                  ;;; <@62,#40> invoke-function
0x177bccd6eb0d   205  488b5727       REX.W movq rdx,[rdi+0x27]
0x177bccd6eb11   209  488b772f       REX.W movq rsi,[rdi+0x2f]
0x177bccd6eb15   213  48635a63       REX.W movsxlq rbx,[rdx+0x63]
0x177bccd6eb19   217  488b5717       REX.W movq rdx,[rdi+0x17]
0x177bccd6eb1d   221  4883fb02       REX.W cmpq rbx,0x2
0x177bccd6eb21   225  740c           jz 239  (0x177bccd6eb2f)
0x177bccd6eb23   227  b802000000     movl rax,0x2
0x177bccd6eb28   232  e87382f9ff     call ArgumentsAdaptorTrampoline  (0x177bccd06da0)    ;; code: BUILTIN
0x177bccd6eb2d   237  eb02           jmp 241  (0x177bccd6eb31)
0x177bccd6eb2f   239  ffd2           call rdx
                  ;;; <@64,#41> lazy-bailout
                  ;;; <@68,#46> -------------------- B2 --------------------
                  ;;; <@69,#46> gap
0x177bccd6eb31   241  488b75b0       REX.W movq rsi,[rbp-0x50]
0x177bccd6eb35   245  488b5520       REX.W movq rdx,[rbp+0x20]
                  ;;; <@70,#50> load-named-generic
0x177bccd6eb39   249  0f1f440000     nop
0x177bccd6eb3e   254  48b989f430fe38160000 REX.W movq rcx,0x1638fe30f489    ;; object: 0x1638fe30f489 <String[6]: length>
0x177bccd6eb48   264  e8d319fcff     call 0x177bccd30520     ;; code: LOAD_IC, UNINITIALIZED
                  ;;; <@72,#51> lazy-bailout
                  ;;; <@75,#54> goto
0x177bccd6eb4d   269  e94b000000     jmp 349  (0x177bccd6eb9d)
                  ;;; <@76,#58> -------------------- B3 (OSR entry) --------------------
0x177bccd6eb52   274  4881ec80000000 REX.W subq rsp,0x80
                  ;;; <@104,#73> context
0x177bccd6eb59   281  488b75f8       REX.W movq rsi,[rbp-0x8]
                  ;;; <@105,#73> gap
0x177bccd6eb5d   285  488b45e8       REX.W movq rax,[rbp-0x18]
                  ;;; <@106,#322> tagged-to-i
0x177bccd6eb61   289  a801           test al,0x1
0x177bccd6eb63   291  0f8538040000   jnz 1377  (0x177bccd6efa1)
0x177bccd6eb69   297  48c1e820       REX.W shrq rax,32
                  ;;; <@107,#322> gap
0x177bccd6eb6d   301  488b5dd8       REX.W movq rbx,[rbp-0x28]
                  ;;; <@108,#323> tagged-to-i
0x177bccd6eb71   305  f6c301         testb rbx,0x1
0x177bccd6eb74   308  0f8558040000   jnz 1426  (0x177bccd6efd2)
0x177bccd6eb7a   314  48c1eb20       REX.W shrq rbx,32
                  ;;; <@110,#75> gap
0x177bccd6eb7e   318  4c8b7d28       REX.W movq r15,[rbp+0x28]
0x177bccd6eb82   322  4c8b7520       REX.W movq r14,[rbp+0x20]
0x177bccd6eb86   326  4c8b5d18       REX.W movq r11,[rbp+0x18]
0x177bccd6eb8a   330  4c8b4d10       REX.W movq r9,[rbp+0x10]
0x177bccd6eb8e   334  4c8bc6         REX.W movq r8,rsi
0x177bccd6eb91   337  488bfb         REX.W movq rdi,rbx
0x177bccd6eb94   340  488b5dd0       REX.W movq rbx,[rbp-0x30]
                  ;;; <@111,#75> goto
0x177bccd6eb98   344  e92d000000     jmp 394  (0x177bccd6ebca)
                  ;;; <@112,#55> -------------------- B4 --------------------
                  ;;; <@113,#55> gap
0x177bccd6eb9d   349  488bd8         REX.W movq rbx,rax
                  ;;; <@114,#321> tagged-to-i
0x177bccd6eba0   352  f6c301         testb rbx,0x1
0x177bccd6eba3   355  0f855a040000   jnz 1475  (0x177bccd6f003)
0x177bccd6eba9   361  48c1eb20       REX.W shrq rbx,32
                  ;;; <@116,#57> gap
0x177bccd6ebad   365  4c8b7d28       REX.W movq r15,[rbp+0x28]
0x177bccd6ebb1   369  4c8b7520       REX.W movq r14,[rbp+0x20]
0x177bccd6ebb5   373  4c8b5d18       REX.W movq r11,[rbp+0x18]
0x177bccd6ebb9   377  4c8b4d10       REX.W movq r9,[rbp+0x10]
0x177bccd6ebbd   381  4c8b45b0       REX.W movq r8,[rbp-0x50]
0x177bccd6ebc1   385  488bfb         REX.W movq rdi,rbx
0x177bccd6ebc4   388  488b5da8       REX.W movq rbx,[rbp-0x58]
0x177bccd6ebc8   392  33c0           xorl rax,rax
                  ;;; <@118,#100> -------------------- B5 --------------------
0x177bccd6ebca   394  4c89bd78ffffff REX.W movq [rbp-0x88],r15
0x177bccd6ebd1   401  4c897580       REX.W movq [rbp-0x80],r14
0x177bccd6ebd5   405  4c895d88       REX.W movq [rbp-0x78],r11
0x177bccd6ebd9   409  4c894d90       REX.W movq [rbp-0x70],r9
0x177bccd6ebdd   413  4c898560ffffff REX.W movq [rbp-0xa0],r8
0x177bccd6ebe4   420  48897d98       REX.W movq [rbp-0x68],rdi
0x177bccd6ebe8   424  48895da0       REX.W movq [rbp-0x60],rbx
                  ;;; <@120,#117> check-non-smi
0x177bccd6ebec   428  41f6c601       testb r14,0x1           ;; debug: position 444
0x177bccd6ebf0   432  0f849a060000   jz 2128  (0x177bccd6f290)
                  ;;; <@124,#103> -------------------- B6 (loop header) --------------------
0x177bccd6ebf6   438  48898570ffffff REX.W movq [rbp-0x90],rax
                  ;;; <@127,#106> compare-numeric-and-branch
0x177bccd6ebfd   445  3bc7           cmpl rax,rdi
0x177bccd6ebff   447  0f8d2c010000   jge 753  (0x177bccd6ed31)
                  ;;; <@128,#107> -------------------- B7 (unreachable/replaced) --------------------
                  ;;; <@132,#113> -------------------- B8 --------------------
                  ;;; <@134,#115> stack-check
0x177bccd6ec05   453  493ba590070000 REX.W cmpq rsp,[r13+0x790]
0x177bccd6ec0c   460  0f8222040000   jc 1524  (0x177bccd6f034)
                  ;;; <@136,#118> check-maps
0x177bccd6ec12   466  49ba093bc1134f1b0000 REX.W movq r10,0x1b4f13c13b09    ;; object: 0x1b4f13c13b09 <Map(elements=3)>
0x177bccd6ec1c   476  4d3956ff       REX.W cmpq [r14-0x1],r10
0x177bccd6ec20   480  0f856f060000   jnz 2133  (0x177bccd6f295)
                  ;;; <@138,#119> load-named-field
0x177bccd6ec26   486  498b560f       REX.W movq rdx,[r14+0xf]
                  ;;; <@140,#120> load-named-field
0x177bccd6ec2a   490  418b4e1b       movl rcx,[r14+0x1b]
                  ;;; <@142,#121> bounds-check
0x177bccd6ec2e   494  3bc8           cmpl rcx,rax
0x177bccd6ec30   496  0f8664060000   jna 2138  (0x177bccd6f29a)
                  ;;; <@144,#122> load-keyed
0x177bccd6ec36   502  488b54c20f     REX.W movq rdx,[rdx+rax*8+0xf]
0x177bccd6ec3b   507  493b55b0       REX.W cmpq rdx,[r13-0x50]
0x177bccd6ec3f   511  0f845a060000   jz 2143  (0x177bccd6f29f)
                  ;;; <@145,#122> gap
0x177bccd6ec45   517  48899568ffffff REX.W movq [rbp-0x98],rdx
                  ;;; <@146,#125> check-non-smi
0x177bccd6ec4c   524  f6c201         testb rdx,0x1
0x177bccd6ec4f   527  0f844f060000   jz 2148  (0x177bccd6f2a4)
                  ;;; <@148,#126> check-maps
0x177bccd6ec55   533  49bac13ac1134f1b0000 REX.W movq r10,0x1b4f13c13ac1    ;; object: 0x1b4f13c13ac1 <Map(elements=3)>
0x177bccd6ec5f   543  4c3952ff       REX.W cmpq [rdx-0x1],r10
0x177bccd6ec63   547  0f850c040000   jnz 1589  (0x177bccd6f075)
                  ;;; <@150,#127> load-named-field
0x177bccd6ec69   553  488b4a27       REX.W movq rcx,[rdx+0x27]
                  ;;; <@152,#138> check-maps
0x177bccd6ec6d   557  49bac13ac1134f1b0000 REX.W movq r10,0x1b4f13c13ac1    ;; object: 0x1b4f13c13ac1 <Map(elements=3)>
0x177bccd6ec77   567  4c3951ff       REX.W cmpq [rcx-0x1],r10
0x177bccd6ec7b   571  0f853f040000   jnz 1664  (0x177bccd6f0c0)
                  ;;; <@154,#139> load-named-field
0x177bccd6ec81   577  488b711f       REX.W movq rsi,[rcx+0x1f]
                  ;;; <@157,#140> branch
0x177bccd6ec85   581  493b75a8       REX.W cmpq rsi,[r13-0x58]
0x177bccd6ec89   585  0f8418000000   jz 615  (0x177bccd6eca7)
0x177bccd6ec8f   591  4885f6         REX.W testq rsi,rsi
0x177bccd6ec92   594  0f840f000000   jz 615  (0x177bccd6eca7)
0x177bccd6ec98   600  40f6c601       testb rsi,0x1
0x177bccd6ec9c   604  0f8449000000   jz 683  (0x177bccd6eceb)
0x177bccd6eca2   610  e8db73c9ff     call 0x177bcca06082     ;; deoptimization bailout 13
                  ;;; <@158,#144> -------------------- B9 (unreachable/replaced) --------------------
                  ;;; <@162,#147> -------------------- B10 --------------------
                  ;;; <@164,#148> load-global-cell
0x177bccd6eca7   615  48bee8046125ac0f0000 REX.W movq rsi,0xfac256104e8    ;; debug: position 192
                                                             ;; property cell
0x177bccd6ecb1   625  488b36         REX.W movq rsi,[rsi]
                  ;;; <@166,#324> tagged-to-i
0x177bccd6ecb4   628  40f6c601       testb rsi,0x1
0x177bccd6ecb8   632  0f854d040000   jnz 1739  (0x177bccd6f10b)
0x177bccd6ecbe   638  48c1ee20       REX.W shrq rsi,32
                  ;;; <@167,#324> gap
0x177bccd6ecc2   642  488bde         REX.W movq rbx,rsi
                  ;;; <@168,#151> add-i
0x177bccd6ecc5   645  83c301         addl rbx,0x1
0x177bccd6ecc8   648  0f80db050000   jo 2153  (0x177bccd6f2a9)
                  ;;; <@170,#326> smi-tag
0x177bccd6ecce   654  8bfb           movl rdi,rbx
0x177bccd6ecd0   656  48c1e720       REX.W shlq rdi,32
                  ;;; <@172,#152> store-global-cell
0x177bccd6ecd4   660  49bae8046125ac0f0000 REX.W movq r10,0xfac256104e8    ;; property cell
0x177bccd6ecde   670  49893a         REX.W movq [r10],rdi
                  ;;; <@174,#325> smi-tag
0x177bccd6ece1   673  8bde           movl rbx,rsi
0x177bccd6ece3   675  48c1e320       REX.W shlq rbx,32
                  ;;; <@176,#155> store-named-field
0x177bccd6ece7   679  4889591f       REX.W movq [rcx+0x1f],rbx
                  ;;; <@180,#141> -------------------- B11 (unreachable/replaced) --------------------
                  ;;; <@184,#159> -------------------- B12 (unreachable/replaced) --------------------
                  ;;; <@188,#162> -------------------- B13 --------------------
                  ;;; <@190,#164> load-named-field
0x177bccd6eceb   683  488b491f       REX.W movq rcx,[rcx+0x1f]
                  ;;; <@194,#168> -------------------- B14 --------------------
                  ;;; <@195,#168> gap
0x177bccd6ecef   687  498bf0         REX.W movq rsi,r8
0x177bccd6ecf2   690  488bd8         REX.W movq rbx,rax
0x177bccd6ecf5   693  488bc2         REX.W movq rax,rdx
0x177bccd6ecf8   696  488bfa         REX.W movq rdi,rdx
0x177bccd6ecfb   699  488b55a0       REX.W movq rdx,[rbp-0x60]
                  ;;; <@196,#170> store-keyed-generic
0x177bccd6ecff   703  e81c81fcff     call KeyedStoreIC_Initialize  (0x177bccd36e20)    ;; code: KEYED_STORE_IC, UNINITIALIZED
                  ;;; <@198,#171> lazy-bailout
                  ;;; <@199,#171> gap
0x177bccd6ed04   708  488b8570ffffff REX.W movq rax,[rbp-0x90]
                  ;;; <@200,#173> add-i
0x177bccd6ed0b   715  83c001         addl rax,0x1            ;; debug: position 450
                  ;;; <@202,#176> gap
0x177bccd6ed0e   718  4c8bbd78ffffff REX.W movq r15,[rbp-0x88]
0x177bccd6ed15   725  4c8b7580       REX.W movq r14,[rbp-0x80]
0x177bccd6ed19   729  4c8b5d88       REX.W movq r11,[rbp-0x78]
0x177bccd6ed1d   733  4c8b4d90       REX.W movq r9,[rbp-0x70]
0x177bccd6ed21   737  4c8b8560ffffff REX.W movq r8,[rbp-0xa0]
0x177bccd6ed28   744  488b7d98       REX.W movq rdi,[rbp-0x68]
                  ;;; <@203,#176> goto
0x177bccd6ed2c   748  e9c5feffff     jmp 438  (0x177bccd6ebf6)
                  ;;; <@204,#110> -------------------- B15 (unreachable/replaced) --------------------
                  ;;; <@208,#177> -------------------- B16 --------------------
                  ;;; <@209,#177> gap
0x177bccd6ed31   753  488bb560ffffff REX.W movq rsi,[rbp-0xa0]
0x177bccd6ed38   760  488b5588       REX.W movq rdx,[rbp-0x78]
                  ;;; <@210,#178> load-named-generic
0x177bccd6ed3c   764  48b989f430fe38160000 REX.W movq rcx,0x1638fe30f489    ;; object: 0x1638fe30f489 <String[6]: length>
0x177bccd6ed46   774  e8d517fcff     call 0x177bccd30520     ;; code: LOAD_IC, UNINITIALIZED
                  ;;; <@212,#179> lazy-bailout
                  ;;; <@213,#179> gap
0x177bccd6ed4b   779  488bb560ffffff REX.W movq rsi,[rbp-0xa0]
0x177bccd6ed52   786  488b5580       REX.W movq rdx,[rbp-0x80]
                  ;;; <@214,#180> store-named-generic
0x177bccd6ed56   790  6690           nop
0x177bccd6ed58   792  48b989f430fe38160000 REX.W movq rcx,0x1638fe30f489    ;; object: 0x1638fe30f489 <String[6]: length>
0x177bccd6ed62   802  e83918fcff     call 0x177bccd305a0     ;; code: STORE_IC, UNINITIALIZED
                  ;;; <@216,#181> lazy-bailout
                  ;;; <@217,#181> gap
0x177bccd6ed67   807  488bb560ffffff REX.W movq rsi,[rbp-0xa0]
0x177bccd6ed6e   814  488b5588       REX.W movq rdx,[rbp-0x78]
                  ;;; <@218,#184> load-named-generic
0x177bccd6ed72   818  6690           nop
0x177bccd6ed74   820  48b989f430fe38160000 REX.W movq rcx,0x1638fe30f489    ;; object: 0x1638fe30f489 <String[6]: length>
0x177bccd6ed7e   830  e89d17fcff     call 0x177bccd30520     ;; code: LOAD_IC, UNINITIALIZED
                  ;;; <@219,#184> gap
0x177bccd6ed83   835  48898570ffffff REX.W movq [rbp-0x90],rax
                  ;;; <@220,#185> lazy-bailout
                  ;;; <@221,#185> gap
0x177bccd6ed8a   842  488bd8         REX.W movq rbx,rax
                  ;;; <@222,#327> tagged-to-i
0x177bccd6ed8d   845  f6c301         testb rbx,0x1           ;; debug: position 650
0x177bccd6ed90   848  0f85b3030000   jnz 1801  (0x177bccd6f149)
0x177bccd6ed96   854  48c1eb20       REX.W shrq rbx,32
                  ;;; <@223,#327> gap
0x177bccd6ed9a   858  48899d40ffffff REX.W movq [rbp-0xc0],rbx
0x177bccd6eda1   865  488b7d88       REX.W movq rdi,[rbp-0x78]
                  ;;; <@224,#215> check-non-smi
0x177bccd6eda5   869  40f6c701       testb rdi,0x1
0x177bccd6eda9   873  0f84ff040000   jz 2158  (0x177bccd6f2ae)
                  ;;; <@226,#200> gap
0x177bccd6edaf   879  4533c0         xorl r8,r8              ;; debug: position 450
                  ;;; <@228,#201> -------------------- B17 (loop header) --------------------
0x177bccd6edb2   882  4c898558ffffff REX.W movq [rbp-0xa8],r8    ;; debug: position 650
                  ;;; <@231,#204> compare-numeric-and-branch
0x177bccd6edb9   889  443bc3         cmpl r8,rbx
0x177bccd6edbc   892  0f8dce010000   jge 1360  (0x177bccd6ef90)
                  ;;; <@232,#205> -------------------- B18 (unreachable/replaced) --------------------
                  ;;; <@236,#211> -------------------- B19 --------------------
                  ;;; <@238,#213> stack-check
0x177bccd6edc2   898  493ba590070000 REX.W cmpq rsp,[r13+0x790]
0x177bccd6edc9   905  0f82ab030000   jc 1850  (0x177bccd6f17a)
                  ;;; <@240,#216> check-maps
0x177bccd6edcf   911  49bac9d5c0134f1b0000 REX.W movq r10,0x1b4f13c0d5c9    ;; object: 0x1b4f13c0d5c9 <Map(elements=2)>
0x177bccd6edd9   921  4c3957ff       REX.W cmpq [rdi-0x1],r10
0x177bccd6eddd   925  0f85d0040000   jnz 2163  (0x177bccd6f2b3)
                  ;;; <@242,#217> load-named-field
0x177bccd6ede3   931  488b570f       REX.W movq rdx,[rdi+0xf]
                  ;;; <@244,#218> load-named-field
0x177bccd6ede7   935  8b4f1b         movl rcx,[rdi+0x1b]
                  ;;; <@246,#219> bounds-check
0x177bccd6edea   938  413bc8         cmpl rcx,r8
0x177bccd6eded   941  0f86c5040000   jna 2168  (0x177bccd6f2b8)
                  ;;; <@248,#220> load-keyed
0x177bccd6edf3   947  4e8b4cc20f     REX.W movq r9,[rdx+r8*8+0xf]
                  ;;; <@249,#220> gap
0x177bccd6edf8   952  4c898d50ffffff REX.W movq [rbp-0xb0],r9
                  ;;; <@250,#236> check-non-smi
0x177bccd6edff   959  41f6c101       testb r9,0x1
0x177bccd6ee03   963  0f84b4040000   jz 2173  (0x177bccd6f2bd)
                  ;;; <@252,#237> check-maps
0x177bccd6ee09   969  49bac13ac1134f1b0000 REX.W movq r10,0x1b4f13c13ac1    ;; object: 0x1b4f13c13ac1 <Map(elements=3)>
0x177bccd6ee13   979  4d3951ff       REX.W cmpq [r9-0x1],r10
0x177bccd6ee17   983  0f859e030000   jnz 1915  (0x177bccd6f1bb)
                  ;;; <@254,#238> load-named-field
0x177bccd6ee1d   989  498b511f       REX.W movq rdx,[r9+0x1f]
                  ;;; <@257,#239> branch
0x177bccd6ee21   993  493b55a8       REX.W cmpq rdx,[r13-0x58]
0x177bccd6ee25   997  0f8417000000   jz 1026  (0x177bccd6ee42)
0x177bccd6ee2b  1003  4885d2         REX.W testq rdx,rdx
0x177bccd6ee2e  1006  0f840e000000   jz 1026  (0x177bccd6ee42)
0x177bccd6ee34  1012  f6c201         testb rdx,0x1
0x177bccd6ee37  1015  0f8448000000   jz 1093  (0x177bccd6ee85)
0x177bccd6ee3d  1021  e8ae72c9ff     call 0x177bcca060f0     ;; deoptimization bailout 24
                  ;;; <@258,#243> -------------------- B20 (unreachable/replaced) --------------------
                  ;;; <@262,#246> -------------------- B21 --------------------
                  ;;; <@264,#247> load-global-cell
0x177bccd6ee42  1026  48bae8046125ac0f0000 REX.W movq rdx,0xfac256104e8    ;; debug: position 192
                                                             ;; property cell
0x177bccd6ee4c  1036  488b12         REX.W movq rdx,[rdx]
                  ;;; <@266,#329> tagged-to-i
0x177bccd6ee4f  1039  f6c201         testb rdx,0x1
0x177bccd6ee52  1042  0f85af030000   jnz 1991  (0x177bccd6f207)
0x177bccd6ee58  1048  48c1ea20       REX.W shrq rdx,32
                  ;;; <@267,#329> gap
0x177bccd6ee5c  1052  488bca         REX.W movq rcx,rdx
                  ;;; <@268,#249> add-i
0x177bccd6ee5f  1055  83c101         addl rcx,0x1
0x177bccd6ee62  1058  0f805a040000   jo 2178  (0x177bccd6f2c2)
                  ;;; <@270,#331> smi-tag
0x177bccd6ee68  1064  8bf1           movl rsi,rcx
0x177bccd6ee6a  1066  48c1e620       REX.W shlq rsi,32
                  ;;; <@272,#250> store-global-cell
0x177bccd6ee6e  1070  49bae8046125ac0f0000 REX.W movq r10,0xfac256104e8    ;; property cell
0x177bccd6ee78  1080  498932         REX.W movq [r10],rsi
                  ;;; <@274,#330> smi-tag
0x177bccd6ee7b  1083  8bca           movl rcx,rdx
0x177bccd6ee7d  1085  48c1e120       REX.W shlq rcx,32
                  ;;; <@276,#254> store-named-field
0x177bccd6ee81  1089  4989491f       REX.W movq [r9+0x1f],rcx
                  ;;; <@280,#240> -------------------- B22 (unreachable/replaced) --------------------
                  ;;; <@284,#258> -------------------- B23 (unreachable/replaced) --------------------
                  ;;; <@288,#261> -------------------- B24 --------------------
                  ;;; <@290,#264> load-named-field
0x177bccd6ee85  1093  4d8b591f       REX.W movq r11,[r9+0x1f]
                  ;;; <@291,#264> gap
0x177bccd6ee89  1097  4c899d48ffffff REX.W movq [rbp-0xb8],r11
                  ;;; <@294,#268> -------------------- B25 --------------------
                  ;;; <@295,#268> gap
0x177bccd6ee90  1104  488bb560ffffff REX.W movq rsi,[rbp-0xa0]
0x177bccd6ee97  1111  488b55a0       REX.W movq rdx,[rbp-0x60]
0x177bccd6ee9b  1115  498bcb         REX.W movq rcx,r11
                  ;;; <@296,#272> load-keyed-generic
0x177bccd6ee9e  1118  e8bd59fcff     call KeyedLoadIC_Initialize  (0x177bccd34860)    ;; debug: position 789
                                                             ;; code: KEYED_LOAD_IC, UNINITIALIZED
                  ;;; <@298,#273> lazy-bailout
                  ;;; <@301,#274> cmp-object-eq-and-branch
0x177bccd6eea3  1123  49ba2141c0f5cb0e0000 REX.W movq r10,0xecbf5c04121    ;; object: 0xecbf5c04121 <undefined>
0x177bccd6eead  1133  493bc2         REX.W cmpq rax,r10
0x177bccd6eeb0  1136  0f841f000000   jz 1173  (0x177bccd6eed5)
                  ;;; <@302,#278> -------------------- B26 (unreachable/replaced) --------------------
                  ;;; <@306,#294> -------------------- B27 --------------------
                  ;;; <@307,#294> gap
0x177bccd6eeb6  1142  488bb560ffffff REX.W movq rsi,[rbp-0xa0]
0x177bccd6eebd  1149  488b55a0       REX.W movq rdx,[rbp-0x60]
0x177bccd6eec1  1153  488b8d48ffffff REX.W movq rcx,[rbp-0xb8]
                  ;;; <@308,#297> load-keyed-generic
0x177bccd6eec8  1160  e89359fcff     call KeyedLoadIC_Initialize  (0x177bccd34860)    ;; code: KEYED_LOAD_IC, UNINITIALIZED
                  ;;; <@310,#298> lazy-bailout
                  ;;; <@312,#303> gap
0x177bccd6eecd  1165  488bd8         REX.W movq rbx,rax
                  ;;; <@313,#303> goto
0x177bccd6eed0  1168  e972000000     jmp 1287  (0x177bccd6ef47)
                  ;;; <@314,#275> -------------------- B28 (unreachable/replaced) --------------------
                  ;;; <@318,#281> -------------------- B29 --------------------
                  ;;; <@320,#283> push-argument
0x177bccd6eed5  1173  49ba2141c0f5cb0e0000 REX.W movq r10,0xecbf5c04121    ;; object: 0xecbf5c04121 <undefined>
0x177bccd6eedf  1183  4152           push r10
                  ;;; <@322,#283> push-argument
0x177bccd6eee1  1185  ffb550ffffff   push [rbp-0xb0]
                  ;;; <@323,#283> gap
0x177bccd6eee7  1191  488bb560ffffff REX.W movq rsi,[rbp-0xa0]
0x177bccd6eeee  1198  488b7d90       REX.W movq rdi,[rbp-0x70]
                  ;;; <@324,#284> call-function
0x177bccd6eef2  1202  e8e9d6fbff     call 0x177bccd2c5e0     ;; code: STUB, CallFunctionStub, argc = 1
                  ;;; <@326,#285> lazy-bailout
                  ;;; <@328,#289> check-non-smi
0x177bccd6eef7  1207  a801           test al,0x1
0x177bccd6eef9  1209  0f84c8030000   jz 2183  (0x177bccd6f2c7)
                  ;;; <@330,#290> check-maps
0x177bccd6eeff  1215  49bac13ac1134f1b0000 REX.W movq r10,0x1b4f13c13ac1    ;; object: 0x1b4f13c13ac1 <Map(elements=3)>
0x177bccd6ef09  1225  4c3950ff       REX.W cmpq [rax-0x1],r10
0x177bccd6ef0d  1229  0f8532030000   jnz 2053  (0x177bccd6f245)
                  ;;; <@331,#290> gap
0x177bccd6ef13  1235  488b9d50ffffff REX.W movq rbx,[rbp-0xb0]
                  ;;; <@332,#292> store-named-field
0x177bccd6ef1a  1242  48895827       REX.W movq [rax+0x27],rbx
0x177bccd6ef1e  1246  488d5027       REX.W leaq rdx,[rax+0x27]
0x177bccd6ef22  1250  4881e30000f0ff REX.W andq rbx,0xfffffffffff00000
0x177bccd6ef29  1257  f6430804       testb [rbx+0x8],0x4
0x177bccd6ef2d  1261  7415           jz 1284  (0x177bccd6ef44)
0x177bccd6ef2f  1263  48c7c30000f0ff REX.W movq rbx,0xfff00000
0x177bccd6ef36  1270  4823d8         REX.W andq rbx,rax
0x177bccd6ef39  1273  f6430808       testb [rbx+0x8],0x8
0x177bccd6ef3d  1277  7405           jz 1284  (0x177bccd6ef44)
0x177bccd6ef3f  1279  e81c4cffff     call 0x177bccd63b60     ;; code: STUB, RecordWriteStub, minor: 8752
                  ;;; <@334,#301> gap
0x177bccd6ef44  1284  488bd8         REX.W movq rbx,rax
                  ;;; <@336,#305> -------------------- B30 --------------------
0x177bccd6ef47  1287  48899d38ffffff REX.W movq [rbp-0xc8],rbx
                  ;;; <@337,#305> gap
0x177bccd6ef4e  1294  488bbd58ffffff REX.W movq rdi,[rbp-0xa8]
                  ;;; <@338,#328> smi-tag
0x177bccd6ef55  1301  8bcf           movl rcx,rdi
0x177bccd6ef57  1303  48c1e120       REX.W shlq rcx,32
                  ;;; <@339,#328> gap
0x177bccd6ef5b  1307  488bb560ffffff REX.W movq rsi,[rbp-0xa0]
0x177bccd6ef62  1314  488b5580       REX.W movq rdx,[rbp-0x80]
0x177bccd6ef66  1318  488bc3         REX.W movq rax,rbx
                  ;;; <@340,#308> store-keyed-generic
0x177bccd6ef69  1321  e8b27efcff     call KeyedStoreIC_Initialize  (0x177bccd36e20)    ;; code: KEYED_STORE_IC, UNINITIALIZED
                  ;;; <@342,#309> lazy-bailout
                  ;;; <@343,#309> gap
0x177bccd6ef6e  1326  488b8558ffffff REX.W movq rax,[rbp-0xa8]
                  ;;; <@344,#311> add-i
0x177bccd6ef75  1333  448d4001       leal r8,[rax+0x1]       ;; debug: position 656
                  ;;; <@346,#314> gap
0x177bccd6ef79  1337  488b7d88       REX.W movq rdi,[rbp-0x78]
0x177bccd6ef7d  1341  488b8570ffffff REX.W movq rax,[rbp-0x90]
0x177bccd6ef84  1348  488b9d40ffffff REX.W movq rbx,[rbp-0xc0]
                  ;;; <@347,#314> goto
0x177bccd6ef8b  1355  e922feffff     jmp 882  (0x177bccd6edb2)
                  ;;; <@348,#208> -------------------- B31 (unreachable/replaced) --------------------
                  ;;; <@352,#315> -------------------- B32 --------------------
                  ;;; <@354,#7> constant-t
0x177bccd6ef90  1360  48b82141c0f5cb0e0000 REX.W movq rax,0xecbf5c04121    ;; object: 0xecbf5c04121 <undefined>
                  ;;; <@356,#317> return
0x177bccd6ef9a  1370  488be5         REX.W movq rsp,rbp
0x177bccd6ef9d  1373  5d             pop rbp
0x177bccd6ef9e  1374  c22000         ret 0x20
                  ;;; <@106,#322> -------------------- Deferred tagged-to-i --------------------
0x177bccd6efa1  1377  4d8b5500       REX.W movq r10,[r13+0x0]
0x177bccd6efa5  1381  4c3950ff       REX.W cmpq [rax-0x1],r10
0x177bccd6efa9  1385  751d           jnz 1416  (0x177bccd6efc8)
0x177bccd6efab  1387  f20f104007     movsd xmm0,[rax+0x7]
0x177bccd6efb0  1392  f20f2cc0       cvttsd2sil rax,xmm0
0x177bccd6efb4  1396  0f57c9         xorps xmm1,xmm1
0x177bccd6efb7  1399  f20f2ac8       cvtsi2sd xmm1,rax
0x177bccd6efbb  1403  660f2ec1       ucomisd xmm0,xmm1
                  Deferred TaggedToI: lost precision
0x177bccd6efbf  1407  7507           jnz 1416  (0x177bccd6efc8)
                  Deferred TaggedToI: NaN
0x177bccd6efc1  1409  7a05           jpe 1416  (0x177bccd6efc8)
0x177bccd6efc3  1411  e9a5fbffff     jmp 301  (0x177bccd6eb6d)
0x177bccd6efc8  1416  e86971c9ff     call 0x177bcca06136     ;; deoptimization bailout 31
0x177bccd6efcd  1421  e99bfbffff     jmp 301  (0x177bccd6eb6d)
                  ;;; <@108,#323> -------------------- Deferred tagged-to-i --------------------
0x177bccd6efd2  1426  4d8b5500       REX.W movq r10,[r13+0x0]
0x177bccd6efd6  1430  4c3953ff       REX.W cmpq [rbx-0x1],r10
0x177bccd6efda  1434  751d           jnz 1465  (0x177bccd6eff9)
0x177bccd6efdc  1436  f20f104307     movsd xmm0,[rbx+0x7]
0x177bccd6efe1  1441  f20f2cd8       cvttsd2sil rbx,xmm0
0x177bccd6efe5  1445  0f57c9         xorps xmm1,xmm1
0x177bccd6efe8  1448  f20f2acb       cvtsi2sd xmm1,rbx
0x177bccd6efec  1452  660f2ec1       ucomisd xmm0,xmm1
                  Deferred TaggedToI: lost precision
0x177bccd6eff0  1456  7507           jnz 1465  (0x177bccd6eff9)
                  Deferred TaggedToI: NaN
0x177bccd6eff2  1458  7a05           jpe 1465  (0x177bccd6eff9)
0x177bccd6eff4  1460  e985fbffff     jmp 318  (0x177bccd6eb7e)
0x177bccd6eff9  1465  e84271c9ff     call 0x177bcca06140     ;; deoptimization bailout 32
0x177bccd6effe  1470  e97bfbffff     jmp 318  (0x177bccd6eb7e)
                  ;;; <@114,#321> -------------------- Deferred tagged-to-i --------------------
0x177bccd6f003  1475  4d8b5500       REX.W movq r10,[r13+0x0]
0x177bccd6f007  1479  4c3953ff       REX.W cmpq [rbx-0x1],r10
0x177bccd6f00b  1483  751d           jnz 1514  (0x177bccd6f02a)
0x177bccd6f00d  1485  f20f104307     movsd xmm0,[rbx+0x7]
0x177bccd6f012  1490  f20f2cd8       cvttsd2sil rbx,xmm0
0x177bccd6f016  1494  0f57c9         xorps xmm1,xmm1
0x177bccd6f019  1497  f20f2acb       cvtsi2sd xmm1,rbx
0x177bccd6f01d  1501  660f2ec1       ucomisd xmm0,xmm1
                  Deferred TaggedToI: lost precision
0x177bccd6f021  1505  7507           jnz 1514  (0x177bccd6f02a)
                  Deferred TaggedToI: NaN
0x177bccd6f023  1507  7a05           jpe 1514  (0x177bccd6f02a)
0x177bccd6f025  1509  e983fbffff     jmp 365  (0x177bccd6ebad)
0x177bccd6f02a  1514  e81b71c9ff     call 0x177bcca0614a     ;; deoptimization bailout 33
0x177bccd6f02f  1519  e979fbffff     jmp 365  (0x177bccd6ebad)
                  ;;; <@134,#115> -------------------- Deferred stack-check --------------------
0x177bccd6f034  1524  50             push rax                ;; debug: position 444
0x177bccd6f035  1525  51             push rcx
0x177bccd6f036  1526  52             push rdx
0x177bccd6f037  1527  53             push rbx
0x177bccd6f038  1528  56             push rsi
0x177bccd6f039  1529  57             push rdi
0x177bccd6f03a  1530  4150           push r8
0x177bccd6f03c  1532  4151           push r9
0x177bccd6f03e  1534  4153           push r11
0x177bccd6f040  1536  4156           push r14
0x177bccd6f042  1538  4157           push r15
0x177bccd6f044  1540  488d6424d8     REX.W leaq rsp,[rsp-0x28]
0x177bccd6f049  1545  488b75f8       REX.W movq rsi,[rbp-0x8]
0x177bccd6f04d  1549  33c0           xorl rax,rax
0x177bccd6f04f  1551  498d9d58bce4fd REX.W leaq rbx,[r13-0x21b43a8]
0x177bccd6f056  1558  e84572f9ff     call 0x177bccd062a0     ;; code: STUB, CEntryStub, minor: 1
0x177bccd6f05b  1563  488d642428     REX.W leaq rsp,[rsp+0x28]
0x177bccd6f060  1568  415f           pop r15
0x177bccd6f062  1570  415e           pop r14
0x177bccd6f064  1572  415b           pop r11
0x177bccd6f066  1574  4159           pop r9
0x177bccd6f068  1576  4158           pop r8
0x177bccd6f06a  1578  5f             pop rdi
0x177bccd6f06b  1579  5e             pop rsi
0x177bccd6f06c  1580  5b             pop rbx
0x177bccd6f06d  1581  5a             pop rdx
0x177bccd6f06e  1582  59             pop rcx
0x177bccd6f06f  1583  58             pop rax
0x177bccd6f070  1584  e99dfbffff     jmp 466  (0x177bccd6ec12)
                  ;;; <@148,#126> -------------------- Deferred check-maps --------------------
0x177bccd6f075  1589  50             push rax
0x177bccd6f076  1590  51             push rcx
0x177bccd6f077  1591  52             push rdx
0x177bccd6f078  1592  53             push rbx
0x177bccd6f079  1593  56             push rsi
0x177bccd6f07a  1594  57             push rdi
0x177bccd6f07b  1595  4150           push r8
0x177bccd6f07d  1597  4151           push r9
0x177bccd6f07f  1599  4153           push r11
0x177bccd6f081  1601  4156           push r14
0x177bccd6f083  1603  4157           push r15
0x177bccd6f085  1605  488d6424d8     REX.W leaq rsp,[rsp-0x28]
0x177bccd6f08a  1610  52             push rdx
0x177bccd6f08b  1611  33f6           xorl rsi,rsi
0x177bccd6f08d  1613  b801000000     movl rax,0x1
0x177bccd6f092  1618  498d9d482ae6fd REX.W leaq rbx,[r13-0x219d5b8]
0x177bccd6f099  1625  e80272f9ff     call 0x177bccd062a0     ;; code: STUB, CEntryStub, minor: 1
0x177bccd6f09e  1630  a801           test al,0x1
0x177bccd6f0a0  1632  488d642428     REX.W leaq rsp,[rsp+0x28]
0x177bccd6f0a5  1637  415f           pop r15
0x177bccd6f0a7  1639  415e           pop r14
0x177bccd6f0a9  1641  415b           pop r11
0x177bccd6f0ab  1643  4159           pop r9
0x177bccd6f0ad  1645  4158           pop r8
0x177bccd6f0af  1647  5f             pop rdi
0x177bccd6f0b0  1648  5e             pop rsi
0x177bccd6f0b1  1649  5b             pop rbx
0x177bccd6f0b2  1650  5a             pop rdx
0x177bccd6f0b3  1651  59             pop rcx
0x177bccd6f0b4  1652  58             pop rax
0x177bccd6f0b5  1653  0f8411020000   jz 2188  (0x177bccd6f2cc)
0x177bccd6f0bb  1659  e995fbffff     jmp 533  (0x177bccd6ec55)
                  ;;; <@152,#138> -------------------- Deferred check-maps --------------------
0x177bccd6f0c0  1664  50             push rax
0x177bccd6f0c1  1665  51             push rcx
0x177bccd6f0c2  1666  52             push rdx
0x177bccd6f0c3  1667  53             push rbx
0x177bccd6f0c4  1668  56             push rsi
0x177bccd6f0c5  1669  57             push rdi
0x177bccd6f0c6  1670  4150           push r8
0x177bccd6f0c8  1672  4151           push r9
0x177bccd6f0ca  1674  4153           push r11
0x177bccd6f0cc  1676  4156           push r14
0x177bccd6f0ce  1678  4157           push r15
0x177bccd6f0d0  1680  488d6424d8     REX.W leaq rsp,[rsp-0x28]
0x177bccd6f0d5  1685  51             push rcx
0x177bccd6f0d6  1686  33f6           xorl rsi,rsi
0x177bccd6f0d8  1688  b801000000     movl rax,0x1
0x177bccd6f0dd  1693  498d9d482ae6fd REX.W leaq rbx,[r13-0x219d5b8]
0x177bccd6f0e4  1700  e8b771f9ff     call 0x177bccd062a0     ;; code: STUB, CEntryStub, minor: 1
0x177bccd6f0e9  1705  a801           test al,0x1
0x177bccd6f0eb  1707  488d642428     REX.W leaq rsp,[rsp+0x28]
0x177bccd6f0f0  1712  415f           pop r15
0x177bccd6f0f2  1714  415e           pop r14
0x177bccd6f0f4  1716  415b           pop r11
0x177bccd6f0f6  1718  4159           pop r9
0x177bccd6f0f8  1720  4158           pop r8
0x177bccd6f0fa  1722  5f             pop rdi
0x177bccd6f0fb  1723  5e             pop rsi
0x177bccd6f0fc  1724  5b             pop rbx
0x177bccd6f0fd  1725  5a             pop rdx
0x177bccd6f0fe  1726  59             pop rcx
0x177bccd6f0ff  1727  58             pop rax
0x177bccd6f100  1728  0f84cb010000   jz 2193  (0x177bccd6f2d1)
0x177bccd6f106  1734  e962fbffff     jmp 557  (0x177bccd6ec6d)
                  ;;; <@166,#324> -------------------- Deferred tagged-to-i --------------------
0x177bccd6f10b  1739  4d8b5500       REX.W movq r10,[r13+0x0]    ;; debug: position 192
0x177bccd6f10f  1743  4c3956ff       REX.W cmpq [rsi-0x1],r10
0x177bccd6f113  1747  752a           jnz 1791  (0x177bccd6f13f)
0x177bccd6f115  1749  f20f104607     movsd xmm0,[rsi+0x7]
0x177bccd6f11a  1754  f20f2cf0       cvttsd2sil rsi,xmm0
0x177bccd6f11e  1758  0f57c9         xorps xmm1,xmm1
0x177bccd6f121  1761  f20f2ace       cvtsi2sd xmm1,rsi
0x177bccd6f125  1765  660f2ec1       ucomisd xmm0,xmm1
                  Deferred TaggedToI: lost precision
0x177bccd6f129  1769  7514           jnz 1791  (0x177bccd6f13f)
                  Deferred TaggedToI: NaN
0x177bccd6f12b  1771  7a12           jpe 1791  (0x177bccd6f13f)
0x177bccd6f12d  1773  85f6           testl rsi,rsi
0x177bccd6f12f  1775  7509           jnz 1786  (0x177bccd6f13a)
0x177bccd6f131  1777  660f50f0       movmskpd rsi,xmm0
0x177bccd6f135  1781  83e601         andl rsi,0x1
0x177bccd6f138  1784  7505           jnz 1791  (0x177bccd6f13f)
0x177bccd6f13a  1786  e983fbffff     jmp 642  (0x177bccd6ecc2)
0x177bccd6f13f  1791  e82470c9ff     call 0x177bcca06168     ;; deoptimization bailout 36
0x177bccd6f144  1796  e979fbffff     jmp 642  (0x177bccd6ecc2)
                  ;;; <@222,#327> -------------------- Deferred tagged-to-i --------------------
0x177bccd6f149  1801  4d8b5500       REX.W movq r10,[r13+0x0]    ;; debug: position 650
0x177bccd6f14d  1805  4c3953ff       REX.W cmpq [rbx-0x1],r10
0x177bccd6f151  1809  751d           jnz 1840  (0x177bccd6f170)
0x177bccd6f153  1811  f20f104307     movsd xmm0,[rbx+0x7]
0x177bccd6f158  1816  f20f2cd8       cvttsd2sil rbx,xmm0
0x177bccd6f15c  1820  0f57c9         xorps xmm1,xmm1
0x177bccd6f15f  1823  f20f2acb       cvtsi2sd xmm1,rbx
0x177bccd6f163  1827  660f2ec1       ucomisd xmm0,xmm1
                  Deferred TaggedToI: lost precision
0x177bccd6f167  1831  7507           jnz 1840  (0x177bccd6f170)
                  Deferred TaggedToI: NaN
0x177bccd6f169  1833  7a05           jpe 1840  (0x177bccd6f170)
0x177bccd6f16b  1835  e92afcffff     jmp 858  (0x177bccd6ed9a)
0x177bccd6f170  1840  e8fd6fc9ff     call 0x177bcca06172     ;; deoptimization bailout 37
0x177bccd6f175  1845  e920fcffff     jmp 858  (0x177bccd6ed9a)
                  ;;; <@238,#213> -------------------- Deferred stack-check --------------------
0x177bccd6f17a  1850  50             push rax
0x177bccd6f17b  1851  51             push rcx
0x177bccd6f17c  1852  52             push rdx
0x177bccd6f17d  1853  53             push rbx
0x177bccd6f17e  1854  56             push rsi
0x177bccd6f17f  1855  57             push rdi
0x177bccd6f180  1856  4150           push r8
0x177bccd6f182  1858  4151           push r9
0x177bccd6f184  1860  4153           push r11
0x177bccd6f186  1862  4156           push r14
0x177bccd6f188  1864  4157           push r15
0x177bccd6f18a  1866  488d6424d8     REX.W leaq rsp,[rsp-0x28]
0x177bccd6f18f  1871  488b75f8       REX.W movq rsi,[rbp-0x8]
0x177bccd6f193  1875  33c0           xorl rax,rax
0x177bccd6f195  1877  498d9d58bce4fd REX.W leaq rbx,[r13-0x21b43a8]
0x177bccd6f19c  1884  e8ff70f9ff     call 0x177bccd062a0     ;; code: STUB, CEntryStub, minor: 1
0x177bccd6f1a1  1889  488d642428     REX.W leaq rsp,[rsp+0x28]
0x177bccd6f1a6  1894  415f           pop r15
0x177bccd6f1a8  1896  415e           pop r14
0x177bccd6f1aa  1898  415b           pop r11
0x177bccd6f1ac  1900  4159           pop r9
0x177bccd6f1ae  1902  4158           pop r8
0x177bccd6f1b0  1904  5f             pop rdi
0x177bccd6f1b1  1905  5e             pop rsi
0x177bccd6f1b2  1906  5b             pop rbx
0x177bccd6f1b3  1907  5a             pop rdx
0x177bccd6f1b4  1908  59             pop rcx
0x177bccd6f1b5  1909  58             pop rax
0x177bccd6f1b6  1910  e914fcffff     jmp 911  (0x177bccd6edcf)
                  ;;; <@252,#237> -------------------- Deferred check-maps --------------------
0x177bccd6f1bb  1915  50             push rax
0x177bccd6f1bc  1916  51             push rcx
0x177bccd6f1bd  1917  52             push rdx
0x177bccd6f1be  1918  53             push rbx
0x177bccd6f1bf  1919  56             push rsi
0x177bccd6f1c0  1920  57             push rdi
0x177bccd6f1c1  1921  4150           push r8
0x177bccd6f1c3  1923  4151           push r9
0x177bccd6f1c5  1925  4153           push r11
0x177bccd6f1c7  1927  4156           push r14
0x177bccd6f1c9  1929  4157           push r15
0x177bccd6f1cb  1931  488d6424d8     REX.W leaq rsp,[rsp-0x28]
0x177bccd6f1d0  1936  4151           push r9
0x177bccd6f1d2  1938  33f6           xorl rsi,rsi
0x177bccd6f1d4  1940  b801000000     movl rax,0x1
0x177bccd6f1d9  1945  498d9d482ae6fd REX.W leaq rbx,[r13-0x219d5b8]
0x177bccd6f1e0  1952  e8bb70f9ff     call 0x177bccd062a0     ;; code: STUB, CEntryStub, minor: 1
0x177bccd6f1e5  1957  a801           test al,0x1
0x177bccd6f1e7  1959  488d642428     REX.W leaq rsp,[rsp+0x28]
0x177bccd6f1ec  1964  415f           pop r15
0x177bccd6f1ee  1966  415e           pop r14
0x177bccd6f1f0  1968  415b           pop r11
0x177bccd6f1f2  1970  4159           pop r9
0x177bccd6f1f4  1972  4158           pop r8
0x177bccd6f1f6  1974  5f             pop rdi
0x177bccd6f1f7  1975  5e             pop rsi
0x177bccd6f1f8  1976  5b             pop rbx
0x177bccd6f1f9  1977  5a             pop rdx
0x177bccd6f1fa  1978  59             pop rcx
0x177bccd6f1fb  1979  58             pop rax
0x177bccd6f1fc  1980  0f84d4000000   jz 2198  (0x177bccd6f2d6)
0x177bccd6f202  1986  e902fcffff     jmp 969  (0x177bccd6ee09)
                  ;;; <@266,#329> -------------------- Deferred tagged-to-i --------------------
0x177bccd6f207  1991  4d8b5500       REX.W movq r10,[r13+0x0]    ;; debug: position 192
0x177bccd6f20b  1995  4c3952ff       REX.W cmpq [rdx-0x1],r10
0x177bccd6f20f  1999  752a           jnz 2043  (0x177bccd6f23b)
0x177bccd6f211  2001  f20f104207     movsd xmm0,[rdx+0x7]
0x177bccd6f216  2006  f20f2cd0       cvttsd2sil rdx,xmm0
0x177bccd6f21a  2010  0f57c9         xorps xmm1,xmm1
0x177bccd6f21d  2013  f20f2aca       cvtsi2sd xmm1,rdx
0x177bccd6f221  2017  660f2ec1       ucomisd xmm0,xmm1
                  Deferred TaggedToI: lost precision
0x177bccd6f225  2021  7514           jnz 2043  (0x177bccd6f23b)
                  Deferred TaggedToI: NaN
0x177bccd6f227  2023  7a12           jpe 2043  (0x177bccd6f23b)
0x177bccd6f229  2025  85d2           testl rdx,rdx
0x177bccd6f22b  2027  7509           jnz 2038  (0x177bccd6f236)
0x177bccd6f22d  2029  660f50d0       movmskpd rdx,xmm0
0x177bccd6f231  2033  83e201         andl rdx,0x1
0x177bccd6f234  2036  7505           jnz 2043  (0x177bccd6f23b)
0x177bccd6f236  2038  e921fcffff     jmp 1052  (0x177bccd6ee5c)
0x177bccd6f23b  2043  e8466fc9ff     call 0x177bcca06186     ;; deoptimization bailout 39
0x177bccd6f240  2048  e917fcffff     jmp 1052  (0x177bccd6ee5c)
                  ;;; <@330,#290> -------------------- Deferred check-maps --------------------
0x177bccd6f245  2053  50             push rax                ;; debug: position 789
0x177bccd6f246  2054  51             push rcx
0x177bccd6f247  2055  52             push rdx
0x177bccd6f248  2056  53             push rbx
0x177bccd6f249  2057  56             push rsi
0x177bccd6f24a  2058  57             push rdi
0x177bccd6f24b  2059  4150           push r8
0x177bccd6f24d  2061  4151           push r9
0x177bccd6f24f  2063  4153           push r11
0x177bccd6f251  2065  4156           push r14
0x177bccd6f253  2067  4157           push r15
0x177bccd6f255  2069  488d6424d8     REX.W leaq rsp,[rsp-0x28]
0x177bccd6f25a  2074  50             push rax
0x177bccd6f25b  2075  33f6           xorl rsi,rsi
0x177bccd6f25d  2077  b801000000     movl rax,0x1
0x177bccd6f262  2082  498d9d482ae6fd REX.W leaq rbx,[r13-0x219d5b8]
0x177bccd6f269  2089  e83270f9ff     call 0x177bccd062a0     ;; code: STUB, CEntryStub, minor: 1
0x177bccd6f26e  2094  a801           test al,0x1
0x177bccd6f270  2096  488d642428     REX.W leaq rsp,[rsp+0x28]
0x177bccd6f275  2101  415f           pop r15
0x177bccd6f277  2103  415e           pop r14
0x177bccd6f279  2105  415b           pop r11
0x177bccd6f27b  2107  4159           pop r9
0x177bccd6f27d  2109  4158           pop r8
0x177bccd6f27f  2111  5f             pop rdi
0x177bccd6f280  2112  5e             pop rsi
0x177bccd6f281  2113  5b             pop rbx
0x177bccd6f282  2114  5a             pop rdx
0x177bccd6f283  2115  59             pop rcx
0x177bccd6f284  2116  58             pop rax
0x177bccd6f285  2117  0f8450000000   jz 2203  (0x177bccd6f2db)
0x177bccd6f28b  2123  e96ffcffff     jmp 1215  (0x177bccd6eeff)
                  ;;; -------------------- Jump table --------------------
                  ;;; jump table entry 0: deoptimization bailout 7.
0x177bccd6f290  2128  e8b16dc9ff     call 0x177bcca06046     ;; deoptimization bailout 7
                  ;;; jump table entry 1: deoptimization bailout 9.
0x177bccd6f295  2133  e8c06dc9ff     call 0x177bcca0605a     ;; deoptimization bailout 9
                  ;;; jump table entry 2: deoptimization bailout 10.
0x177bccd6f29a  2138  e8c56dc9ff     call 0x177bcca06064     ;; deoptimization bailout 10
                  ;;; jump table entry 3: deoptimization bailout 11.
0x177bccd6f29f  2143  e8ca6dc9ff     call 0x177bcca0606e     ;; deoptimization bailout 11
                  ;;; jump table entry 4: deoptimization bailout 12.
0x177bccd6f2a4  2148  e8cf6dc9ff     call 0x177bcca06078     ;; deoptimization bailout 12
                  ;;; jump table entry 5: deoptimization bailout 14.
0x177bccd6f2a9  2153  e8de6dc9ff     call 0x177bcca0608c     ;; deoptimization bailout 14
                  ;;; jump table entry 6: deoptimization bailout 19.
0x177bccd6f2ae  2158  e80b6ec9ff     call 0x177bcca060be     ;; deoptimization bailout 19
                  ;;; jump table entry 7: deoptimization bailout 21.
0x177bccd6f2b3  2163  e81a6ec9ff     call 0x177bcca060d2     ;; deoptimization bailout 21
                  ;;; jump table entry 8: deoptimization bailout 22.
0x177bccd6f2b8  2168  e81f6ec9ff     call 0x177bcca060dc     ;; deoptimization bailout 22
                  ;;; jump table entry 9: deoptimization bailout 23.
0x177bccd6f2bd  2173  e8246ec9ff     call 0x177bcca060e6     ;; deoptimization bailout 23
                  ;;; jump table entry 10: deoptimization bailout 25.
0x177bccd6f2c2  2178  e8336ec9ff     call 0x177bcca060fa     ;; deoptimization bailout 25
                  ;;; jump table entry 11: deoptimization bailout 29.
0x177bccd6f2c7  2183  e8566ec9ff     call 0x177bcca06122     ;; deoptimization bailout 29
                  ;;; jump table entry 12: deoptimization bailout 34.
0x177bccd6f2cc  2188  e8836ec9ff     call 0x177bcca06154     ;; deoptimization bailout 34
                  ;;; jump table entry 13: deoptimization bailout 35.
0x177bccd6f2d1  2193  e8886ec9ff     call 0x177bcca0615e     ;; deoptimization bailout 35
                  ;;; jump table entry 14: deoptimization bailout 38.
0x177bccd6f2d6  2198  e8a16ec9ff     call 0x177bcca0617c     ;; deoptimization bailout 38
                  ;;; jump table entry 15: deoptimization bailout 40.
0x177bccd6f2db  2203  e8b06ec9ff     call 0x177bcca06190     ;; deoptimization bailout 40
                  ;;; Safepoint table.

Deoptimization Input Data (deopt points = 41)
 index  ast id    argc     pc
     0       3       0     38
     1      15       0     73
     2      18       0    122
     3      35       0    153
     4      45       0    241
     5      38       0    269
     6      49       0     -1
     7      47       0     -1
     8      51       0    466
     9      51       0     -1
    10      51       0     -1
    11      51       0     -1
    12      51       0     -1
    13       2       0     -1
    14      35       0     -1
    15     117       0    708
    16     129       0    779
    17     132       0    807
    18     148       0    842
    19     157       0     -1
    20     161       0    911
    21     161       0     -1
    22     161       0     -1
    23       2       0     -1
    24       2       0     -1
    25      35       0     -1
    26     225       0   1123
    27     268       0   1165
    28     241       0   1207
    29     241       0     -1
    30     288       0   1326
    31      47       0     -1
    32      47       0     -1
    33      47       0     -1
    34      51       0     -1
    35       2       0     -1
    36      35       0     -1
    37     157       0     -1
    38       2       0     -1
    39      35       0     -1
    40     241       0     -1

Safepoints (size = 281)
0x177bccd6ea66    38  00000000000000010000000 (sp -> fp)       0
0x177bccd6ea89    73  00000000000000010000000 (sp -> fp)       1
0x177bccd6eab3   115  00000000000000010000000 (sp -> fp)       2
0x177bccd6ead9   153  00000000000000110000000 (sp -> fp)       3
0x177bccd6eb2d   237  00000000000000110000000 (sp -> fp)       4
0x177bccd6eb31   241  00000000000000110000000 (sp -> fp)       4
0x177bccd6eb4d   269  00000000000000110000000 (sp -> fp)       5
0x177bccd6ed04   708  00000110111101000000000 (sp -> fp)      15
0x177bccd6ed4b   779  00000100111101000000000 (sp -> fp)      16
0x177bccd6ed67   807  00000100111101000000000 (sp -> fp)      17
0x177bccd6ed83   835  00000100111101000000000 (sp -> fp)      18
0x177bccd6eea3  1123  00110101111101000000000 (sp -> fp)      26
0x177bccd6eecd  1165  00000101111101000000000 (sp -> fp)      27
0x177bccd6eef7  1207  00010101111101000000000 (sp -> fp)      28
0x177bccd6ef6e  1326  10000101111101000000000 (sp -> fp)      30
0x177bccd6f05b  1563  00000100111101000000000 | r8 | r9 | r11 | r14 | r15 (sp -> fp)       8
0x177bccd6f09e  1630  00000110111101000000000 | rdx | r8 | r9 | r11 | r14 | r15 (sp -> fp)  <none> argc: 1
0x177bccd6f0e9  1705  00000110111101000000000 | rcx | rdx | r8 | r9 | r11 | r14 | r15 (sp -> fp)  <none> argc: 1
0x177bccd6f1a1  1889  00000101111101000000000 | rax | rdi (sp -> fp)      20
0x177bccd6f1e5  1957  00010101111101000000000 | rax | rdi | r9 (sp -> fp)  <none> argc: 1
0x177bccd6f26e  2094  00010101111101000000000 | rax (sp -> fp)  <none> argc: 1

RelocInfo (size = 2597)
0x177bccd6ea4d  comment  (;;; <@0,#0> -------------------- B0 --------------------)
0x177bccd6ea4d  comment  (;;; <@2,#1> context)
0x177bccd6ea51  comment  (;;; <@3,#1> gap)
0x177bccd6ea55  comment  (;;; <@14,#10> -------------------- B1 --------------------)
0x177bccd6ea55  comment  (;;; <@15,#10> gap)
0x177bccd6ea58  comment  (;;; <@16,#12> stack-check)
0x177bccd6ea62  code target (BUILTIN)  (0x177bccd31140)
0x177bccd6ea66  comment  (;;; <@18,#12> lazy-bailout)
0x177bccd6ea66  comment  (;;; <@20,#16> constant-t)
0x177bccd6ea68  embedded object  (0xecbf5c6f749 <FixedArray[112]>)
0x177bccd6ea70  comment  (;;; <@22,#20> constant-t)
0x177bccd6ea72  embedded object  (0xecbf5c50eb1 <JS Function Object (SharedFunctionInfo 0xecbf5c3d169)>)
0x177bccd6ea7a  comment  (;;; <@24,#21> load-named-generic)
0x177bccd6ea7c  embedded object  (0x1638fe312ba1 <String[6]: create>)
0x177bccd6ea85  code target (LOAD_IC)  (0x177bccd30520)
0x177bccd6ea89  comment  (;;; <@26,#22> lazy-bailout)
0x177bccd6ea89  comment  (;;; <@28,#24> push-argument)
0x177bccd6ea8b  embedded object  (0xecbf5c50eb1 <JS Function Object (SharedFunctionInfo 0xecbf5c3d169)>)
0x177bccd6ea95  comment  (;;; <@30,#24> push-argument)
0x177bccd6ea97  embedded object  (0xecbf5c04101 <null>)
0x177bccd6eaa1  comment  (;;; <@32,#16> constant-t)
0x177bccd6eaa3  embedded object  (0xecbf5c6f749 <FixedArray[112]>)
0x177bccd6eaab  comment  (;;; <@33,#16> gap)
0x177bccd6eaae  comment  (;;; <@34,#25> call-function)
0x177bccd6eaaf  code target (STUB)  (0x177bccd2c5e0)
0x177bccd6eab3  comment  (;;; <@35,#25> gap)
0x177bccd6eaba  comment  (;;; <@36,#26> lazy-bailout)
0x177bccd6eaba  comment  (;;; <@38,#16> constant-t)
0x177bccd6eabc  embedded object  (0xecbf5c6f749 <FixedArray[112]>)
0x177bccd6eac4  comment  (;;; <@40,#319> constant-t)
0x177bccd6eac7  comment  (;;; <@41,#319> gap)
0x177bccd6eaca  comment  (;;; <@42,#31> store-named-generic)
0x177bccd6eacc  embedded object  (0x1638fe32c461 <String[3]: foo>)
0x177bccd6ead5  code target (STORE_IC)  (0x177bccd305a0)
0x177bccd6ead9  comment  (;;; <@44,#32> lazy-bailout)
0x177bccd6ead9  comment  (;;; <@46,#16> constant-t)
0x177bccd6eadb  embedded object  (0xecbf5c6f749 <FixedArray[112]>)
0x177bccd6eae3  comment  (;;; <@48,#35> load-named-field)
0x177bccd6eae7  comment  (;;; <@50,#36> load-named-field)
0x177bccd6eaeb  comment  (;;; <@52,#37> load-named-field)
0x177bccd6eaf2  comment  (;;; <@54,#39> push-argument)
0x177bccd6eaf5  comment  (;;; <@56,#39> push-argument)
0x177bccd6eaf7  embedded object  (0x1638fe32c461 <String[3]: foo>)
0x177bccd6eb01  comment  (;;; <@58,#39> push-argument)
0x177bccd6eb03  comment  (;;; <@60,#16> constant-t)
0x177bccd6eb05  embedded object  (0xecbf5c6f749 <FixedArray[112]>)
0x177bccd6eb0d  comment  (;;; <@62,#40> invoke-function)
0x177bccd6eb29  code target (BUILTIN)  (0x177bccd06da0)
0x177bccd6eb31  comment  (;;; <@64,#41> lazy-bailout)
0x177bccd6eb31  comment  (;;; <@68,#46> -------------------- B2 --------------------)
0x177bccd6eb31  comment  (;;; <@69,#46> gap)
0x177bccd6eb39  comment  (;;; <@70,#50> load-named-generic)
0x177bccd6eb40  embedded object  (0x1638fe30f489 <String[6]: length>)
0x177bccd6eb49  code target (LOAD_IC)  (0x177bccd30520)
0x177bccd6eb4d  comment  (;;; <@72,#51> lazy-bailout)
0x177bccd6eb4d  comment  (;;; <@75,#54> goto)
0x177bccd6eb52  comment  (;;; <@76,#58> -------------------- B3 (OSR entry) --------------------)
0x177bccd6eb59  comment  (;;; <@104,#73> context)
0x177bccd6eb5d  comment  (;;; <@105,#73> gap)
0x177bccd6eb61  comment  (;;; <@106,#322> tagged-to-i)
0x177bccd6eb6d  comment  (;;; <@107,#322> gap)
0x177bccd6eb71  comment  (;;; <@108,#323> tagged-to-i)
0x177bccd6eb7e  comment  (;;; <@110,#75> gap)
0x177bccd6eb98  comment  (;;; <@111,#75> goto)
0x177bccd6eb9d  comment  (;;; <@112,#55> -------------------- B4 --------------------)
0x177bccd6eb9d  comment  (;;; <@113,#55> gap)
0x177bccd6eba0  comment  (;;; <@114,#321> tagged-to-i)
0x177bccd6ebad  comment  (;;; <@116,#57> gap)
0x177bccd6ebca  comment  (;;; <@118,#100> -------------------- B5 --------------------)
0x177bccd6ebec  comment  (;;; <@120,#117> check-non-smi)
0x177bccd6ebec  position  (444)
0x177bccd6ebf6  comment  (;;; <@124,#103> -------------------- B6 (loop header) --------------------)
0x177bccd6ebfd  comment  (;;; <@127,#106> compare-numeric-and-branch)
0x177bccd6ec05  comment  (;;; <@128,#107> -------------------- B7 (unreachable/replaced) --------------------)
0x177bccd6ec05  comment  (;;; <@132,#113> -------------------- B8 --------------------)
0x177bccd6ec05  comment  (;;; <@134,#115> stack-check)
0x177bccd6ec12  comment  (;;; <@136,#118> check-maps)
0x177bccd6ec14  embedded object  (0x1b4f13c13b09 <Map(elements=3)>)
0x177bccd6ec26  comment  (;;; <@138,#119> load-named-field)
0x177bccd6ec2a  comment  (;;; <@140,#120> load-named-field)
0x177bccd6ec2e  comment  (;;; <@142,#121> bounds-check)
0x177bccd6ec36  comment  (;;; <@144,#122> load-keyed)
0x177bccd6ec45  comment  (;;; <@145,#122> gap)
0x177bccd6ec4c  comment  (;;; <@146,#125> check-non-smi)
0x177bccd6ec55  comment  (;;; <@148,#126> check-maps)
0x177bccd6ec57  embedded object  (0x1b4f13c13ac1 <Map(elements=3)>)
0x177bccd6ec69  comment  (;;; <@150,#127> load-named-field)
0x177bccd6ec6d  comment  (;;; <@152,#138> check-maps)
0x177bccd6ec6f  embedded object  (0x1b4f13c13ac1 <Map(elements=3)>)
0x177bccd6ec81  comment  (;;; <@154,#139> load-named-field)
0x177bccd6ec85  comment  (;;; <@157,#140> branch)
0x177bccd6eca3  runtime entry  (deoptimization bailout 13)
0x177bccd6eca7  comment  (;;; <@158,#144> -------------------- B9 (unreachable/replaced) --------------------)
0x177bccd6eca7  position  (192)
0x177bccd6eca7  comment  (;;; <@162,#147> -------------------- B10 --------------------)
0x177bccd6eca7  comment  (;;; <@164,#148> load-global-cell)
0x177bccd6eca9  property cell
0x177bccd6ecb4  comment  (;;; <@166,#324> tagged-to-i)
0x177bccd6ecc2  comment  (;;; <@167,#324> gap)
0x177bccd6ecc5  comment  (;;; <@168,#151> add-i)
0x177bccd6ecce  comment  (;;; <@170,#326> smi-tag)
0x177bccd6ecd4  comment  (;;; <@172,#152> store-global-cell)
0x177bccd6ecd6  property cell
0x177bccd6ece1  comment  (;;; <@174,#325> smi-tag)
0x177bccd6ece7  comment  (;;; <@176,#155> store-named-field)
0x177bccd6eceb  comment  (;;; <@180,#141> -------------------- B11 (unreachable/replaced) --------------------)
0x177bccd6eceb  comment  (;;; <@184,#159> -------------------- B12 (unreachable/replaced) --------------------)
0x177bccd6eceb  comment  (;;; <@188,#162> -------------------- B13 --------------------)
0x177bccd6eceb  comment  (;;; <@190,#164> load-named-field)
0x177bccd6ecef  comment  (;;; <@194,#168> -------------------- B14 --------------------)
0x177bccd6ecef  comment  (;;; <@195,#168> gap)
0x177bccd6ecff  comment  (;;; <@196,#170> store-keyed-generic)
0x177bccd6ed00  code target (KEYED_STORE_IC)  (0x177bccd36e20)
0x177bccd6ed04  comment  (;;; <@198,#171> lazy-bailout)
0x177bccd6ed04  comment  (;;; <@199,#171> gap)
0x177bccd6ed0b  comment  (;;; <@200,#173> add-i)
0x177bccd6ed0b  position  (450)
0x177bccd6ed0e  comment  (;;; <@202,#176> gap)
0x177bccd6ed2c  comment  (;;; <@203,#176> goto)
0x177bccd6ed31  comment  (;;; <@204,#110> -------------------- B15 (unreachable/replaced) --------------------)
0x177bccd6ed31  comment  (;;; <@208,#177> -------------------- B16 --------------------)
0x177bccd6ed31  comment  (;;; <@209,#177> gap)
0x177bccd6ed3c  comment  (;;; <@210,#178> load-named-generic)
0x177bccd6ed3e  embedded object  (0x1638fe30f489 <String[6]: length>)
0x177bccd6ed47  code target (LOAD_IC)  (0x177bccd30520)
0x177bccd6ed4b  comment  (;;; <@212,#179> lazy-bailout)
0x177bccd6ed4b  comment  (;;; <@213,#179> gap)
0x177bccd6ed56  comment  (;;; <@214,#180> store-named-generic)
0x177bccd6ed5a  embedded object  (0x1638fe30f489 <String[6]: length>)
0x177bccd6ed63  code target (STORE_IC)  (0x177bccd305a0)
0x177bccd6ed67  comment  (;;; <@216,#181> lazy-bailout)
0x177bccd6ed67  comment  (;;; <@217,#181> gap)
0x177bccd6ed72  comment  (;;; <@218,#184> load-named-generic)
0x177bccd6ed76  embedded object  (0x1638fe30f489 <String[6]: length>)
0x177bccd6ed7f  code target (LOAD_IC)  (0x177bccd30520)
0x177bccd6ed83  comment  (;;; <@219,#184> gap)
0x177bccd6ed8a  comment  (;;; <@220,#185> lazy-bailout)
0x177bccd6ed8a  comment  (;;; <@221,#185> gap)
0x177bccd6ed8d  comment  (;;; <@222,#327> tagged-to-i)
0x177bccd6ed8d  position  (650)
0x177bccd6ed9a  comment  (;;; <@223,#327> gap)
0x177bccd6eda5  comment  (;;; <@224,#215> check-non-smi)
0x177bccd6edaf  comment  (;;; <@226,#200> gap)
0x177bccd6edaf  position  (450)
0x177bccd6edb2  position  (650)
0x177bccd6edb2  comment  (;;; <@228,#201> -------------------- B17 (loop header) --------------------)
0x177bccd6edb9  comment  (;;; <@231,#204> compare-numeric-and-branch)
0x177bccd6edc2  comment  (;;; <@232,#205> -------------------- B18 (unreachable/replaced) --------------------)
0x177bccd6edc2  comment  (;;; <@236,#211> -------------------- B19 --------------------)
0x177bccd6edc2  comment  (;;; <@238,#213> stack-check)
0x177bccd6edcf  comment  (;;; <@240,#216> check-maps)
0x177bccd6edd1  embedded object  (0x1b4f13c0d5c9 <Map(elements=2)>)
0x177bccd6ede3  comment  (;;; <@242,#217> load-named-field)
0x177bccd6ede7  comment  (;;; <@244,#218> load-named-field)
0x177bccd6edea  comment  (;;; <@246,#219> bounds-check)
0x177bccd6edf3  comment  (;;; <@248,#220> load-keyed)
0x177bccd6edf8  comment  (;;; <@249,#220> gap)
0x177bccd6edff  comment  (;;; <@250,#236> check-non-smi)
0x177bccd6ee09  comment  (;;; <@252,#237> check-maps)
0x177bccd6ee0b  embedded object  (0x1b4f13c13ac1 <Map(elements=3)>)
0x177bccd6ee1d  comment  (;;; <@254,#238> load-named-field)
0x177bccd6ee21  comment  (;;; <@257,#239> branch)
0x177bccd6ee3e  runtime entry  (deoptimization bailout 24)
0x177bccd6ee42  comment  (;;; <@258,#243> -------------------- B20 (unreachable/replaced) --------------------)
0x177bccd6ee42  position  (192)
0x177bccd6ee42  comment  (;;; <@262,#246> -------------------- B21 --------------------)
0x177bccd6ee42  comment  (;;; <@264,#247> load-global-cell)
0x177bccd6ee44  property cell
0x177bccd6ee4f  comment  (;;; <@266,#329> tagged-to-i)
0x177bccd6ee5c  comment  (;;; <@267,#329> gap)
0x177bccd6ee5f  comment  (;;; <@268,#249> add-i)
0x177bccd6ee68  comment  (;;; <@270,#331> smi-tag)
0x177bccd6ee6e  comment  (;;; <@272,#250> store-global-cell)
0x177bccd6ee70  property cell
0x177bccd6ee7b  comment  (;;; <@274,#330> smi-tag)
0x177bccd6ee81  comment  (;;; <@276,#254> store-named-field)
0x177bccd6ee85  comment  (;;; <@280,#240> -------------------- B22 (unreachable/replaced) --------------------)
0x177bccd6ee85  comment  (;;; <@284,#258> -------------------- B23 (unreachable/replaced) --------------------)
0x177bccd6ee85  comment  (;;; <@288,#261> -------------------- B24 --------------------)
0x177bccd6ee85  comment  (;;; <@290,#264> load-named-field)
0x177bccd6ee89  comment  (;;; <@291,#264> gap)
0x177bccd6ee90  comment  (;;; <@294,#268> -------------------- B25 --------------------)
0x177bccd6ee90  comment  (;;; <@295,#268> gap)
0x177bccd6ee9e  comment  (;;; <@296,#272> load-keyed-generic)
0x177bccd6ee9e  position  (789)
0x177bccd6ee9f  code target (KEYED_LOAD_IC)  (0x177bccd34860)
0x177bccd6eea3  comment  (;;; <@298,#273> lazy-bailout)
0x177bccd6eea3  comment  (;;; <@301,#274> cmp-object-eq-and-branch)
0x177bccd6eea5  embedded object  (0xecbf5c04121 <undefined>)
0x177bccd6eeb6  comment  (;;; <@302,#278> -------------------- B26 (unreachable/replaced) --------------------)
0x177bccd6eeb6  comment  (;;; <@306,#294> -------------------- B27 --------------------)
0x177bccd6eeb6  comment  (;;; <@307,#294> gap)
0x177bccd6eec8  comment  (;;; <@308,#297> load-keyed-generic)
0x177bccd6eec9  code target (KEYED_LOAD_IC)  (0x177bccd34860)
0x177bccd6eecd  comment  (;;; <@310,#298> lazy-bailout)
0x177bccd6eecd  comment  (;;; <@312,#303> gap)
0x177bccd6eed0  comment  (;;; <@313,#303> goto)
0x177bccd6eed5  comment  (;;; <@314,#275> -------------------- B28 (unreachable/replaced) --------------------)
0x177bccd6eed5  comment  (;;; <@318,#281> -------------------- B29 --------------------)
0x177bccd6eed5  comment  (;;; <@320,#283> push-argument)
0x177bccd6eed7  embedded object  (0xecbf5c04121 <undefined>)
0x177bccd6eee1  comment  (;;; <@322,#283> push-argument)
0x177bccd6eee7  comment  (;;; <@323,#283> gap)
0x177bccd6eef2  comment  (;;; <@324,#284> call-function)
0x177bccd6eef3  code target (STUB)  (0x177bccd2c5e0)
0x177bccd6eef7  comment  (;;; <@326,#285> lazy-bailout)
0x177bccd6eef7  comment  (;;; <@328,#289> check-non-smi)
0x177bccd6eeff  comment  (;;; <@330,#290> check-maps)
0x177bccd6ef01  embedded object  (0x1b4f13c13ac1 <Map(elements=3)>)
0x177bccd6ef13  comment  (;;; <@331,#290> gap)
0x177bccd6ef1a  comment  (;;; <@332,#292> store-named-field)
0x177bccd6ef40  code target (STUB)  (0x177bccd63b60)
0x177bccd6ef44  comment  (;;; <@334,#301> gap)
0x177bccd6ef47  comment  (;;; <@336,#305> -------------------- B30 --------------------)
0x177bccd6ef4e  comment  (;;; <@337,#305> gap)
0x177bccd6ef55  comment  (;;; <@338,#328> smi-tag)
0x177bccd6ef5b  comment  (;;; <@339,#328> gap)
0x177bccd6ef69  comment  (;;; <@340,#308> store-keyed-generic)
0x177bccd6ef6a  code target (KEYED_STORE_IC)  (0x177bccd36e20)
0x177bccd6ef6e  comment  (;;; <@342,#309> lazy-bailout)
0x177bccd6ef6e  comment  (;;; <@343,#309> gap)
0x177bccd6ef75  comment  (;;; <@344,#311> add-i)
0x177bccd6ef75  position  (656)
0x177bccd6ef79  comment  (;;; <@346,#314> gap)
0x177bccd6ef8b  comment  (;;; <@347,#314> goto)
0x177bccd6ef90  comment  (;;; <@348,#208> -------------------- B31 (unreachable/replaced) --------------------)
0x177bccd6ef90  comment  (;;; <@352,#315> -------------------- B32 --------------------)
0x177bccd6ef90  comment  (;;; <@354,#7> constant-t)
0x177bccd6ef92  embedded object  (0xecbf5c04121 <undefined>)
0x177bccd6ef9a  comment  (;;; <@356,#317> return)
0x177bccd6efa1  comment  (;;; <@106,#322> -------------------- Deferred tagged-to-i --------------------)
0x177bccd6efbf  comment  (Deferred TaggedToI: lost precision)
0x177bccd6efc1  comment  (Deferred TaggedToI: NaN)
0x177bccd6efc9  runtime entry  (deoptimization bailout 31)
0x177bccd6efd2  comment  (;;; <@108,#323> -------------------- Deferred tagged-to-i --------------------)
0x177bccd6eff0  comment  (Deferred TaggedToI: lost precision)
0x177bccd6eff2  comment  (Deferred TaggedToI: NaN)
0x177bccd6effa  runtime entry  (deoptimization bailout 32)
0x177bccd6f003  comment  (;;; <@114,#321> -------------------- Deferred tagged-to-i --------------------)
0x177bccd6f021  comment  (Deferred TaggedToI: lost precision)
0x177bccd6f023  comment  (Deferred TaggedToI: NaN)
0x177bccd6f02b  runtime entry  (deoptimization bailout 33)
0x177bccd6f034  position  (444)
0x177bccd6f034  comment  (;;; <@134,#115> -------------------- Deferred stack-check --------------------)
0x177bccd6f057  code target (STUB)  (0x177bccd062a0)
0x177bccd6f075  comment  (;;; <@148,#126> -------------------- Deferred check-maps --------------------)
0x177bccd6f09a  code target (STUB)  (0x177bccd062a0)
0x177bccd6f0c0  comment  (;;; <@152,#138> -------------------- Deferred check-maps --------------------)
0x177bccd6f0e5  code target (STUB)  (0x177bccd062a0)
0x177bccd6f10b  position  (192)
0x177bccd6f10b  comment  (;;; <@166,#324> -------------------- Deferred tagged-to-i --------------------)
0x177bccd6f129  comment  (Deferred TaggedToI: lost precision)
0x177bccd6f12b  comment  (Deferred TaggedToI: NaN)
0x177bccd6f140  runtime entry  (deoptimization bailout 36)
0x177bccd6f149  position  (650)
0x177bccd6f149  comment  (;;; <@222,#327> -------------------- Deferred tagged-to-i --------------------)
0x177bccd6f167  comment  (Deferred TaggedToI: lost precision)
0x177bccd6f169  comment  (Deferred TaggedToI: NaN)
0x177bccd6f171  runtime entry  (deoptimization bailout 37)
0x177bccd6f17a  comment  (;;; <@238,#213> -------------------- Deferred stack-check --------------------)
0x177bccd6f19d  code target (STUB)  (0x177bccd062a0)
0x177bccd6f1bb  comment  (;;; <@252,#237> -------------------- Deferred check-maps --------------------)
0x177bccd6f1e1  code target (STUB)  (0x177bccd062a0)
0x177bccd6f207  position  (192)
0x177bccd6f207  comment  (;;; <@266,#329> -------------------- Deferred tagged-to-i --------------------)
0x177bccd6f225  comment  (Deferred TaggedToI: lost precision)
0x177bccd6f227  comment  (Deferred TaggedToI: NaN)
0x177bccd6f23c  runtime entry  (deoptimization bailout 39)
0x177bccd6f245  position  (789)
0x177bccd6f245  comment  (;;; <@330,#290> -------------------- Deferred check-maps --------------------)
0x177bccd6f26a  code target (STUB)  (0x177bccd062a0)
0x177bccd6f290  comment  (;;; -------------------- Jump table --------------------)
0x177bccd6f290  comment  (;;; jump table entry 0: deoptimization bailout 7.)
0x177bccd6f291  runtime entry  (deoptimization bailout 7)
0x177bccd6f295  comment  (;;; jump table entry 1: deoptimization bailout 9.)
0x177bccd6f296  runtime entry  (deoptimization bailout 9)
0x177bccd6f29a  comment  (;;; jump table entry 2: deoptimization bailout 10.)
0x177bccd6f29b  runtime entry  (deoptimization bailout 10)
0x177bccd6f29f  comment  (;;; jump table entry 3: deoptimization bailout 11.)
0x177bccd6f2a0  runtime entry  (deoptimization bailout 11)
0x177bccd6f2a4  comment  (;;; jump table entry 4: deoptimization bailout 12.)
0x177bccd6f2a5  runtime entry  (deoptimization bailout 12)
0x177bccd6f2a9  comment  (;;; jump table entry 5: deoptimization bailout 14.)
0x177bccd6f2aa  runtime entry  (deoptimization bailout 14)
0x177bccd6f2ae  comment  (;;; jump table entry 6: deoptimization bailout 19.)
0x177bccd6f2af  runtime entry  (deoptimization bailout 19)
0x177bccd6f2b3  comment  (;;; jump table entry 7: deoptimization bailout 21.)
0x177bccd6f2b4  runtime entry  (deoptimization bailout 21)
0x177bccd6f2b8  comment  (;;; jump table entry 8: deoptimization bailout 22.)
0x177bccd6f2b9  runtime entry  (deoptimization bailout 22)
0x177bccd6f2bd  comment  (;;; jump table entry 9: deoptimization bailout 23.)
0x177bccd6f2be  runtime entry  (deoptimization bailout 23)
0x177bccd6f2c2  comment  (;;; jump table entry 10: deoptimization bailout 25.)
0x177bccd6f2c3  runtime entry  (deoptimization bailout 25)
0x177bccd6f2c7  comment  (;;; jump table entry 11: deoptimization bailout 29.)
0x177bccd6f2c8  runtime entry  (deoptimization bailout 29)
0x177bccd6f2cc  comment  (;;; jump table entry 12: deoptimization bailout 34.)
0x177bccd6f2cd  runtime entry  (deoptimization bailout 34)
0x177bccd6f2d1  comment  (;;; jump table entry 13: deoptimization bailout 35.)
0x177bccd6f2d2  runtime entry  (deoptimization bailout 35)
0x177bccd6f2d6  comment  (;;; jump table entry 14: deoptimization bailout 38.)
0x177bccd6f2d7  runtime entry  (deoptimization bailout 38)
0x177bccd6f2db  comment  (;;; jump table entry 15: deoptimization bailout 40.)
0x177bccd6f2dc  runtime entry  (deoptimization bailout 40)
0x177bccd6f2e0  comment  (;;; Safepoint table.)

--- End code ---
[optimizing 0xecbf5c621a1 <JS Function syncMap (SharedFunctionInfo 0xecbf5c61c19)> - took 1.187, 4.469, 4.787 ms]
[marking 0xecbf5c62089 <JS Function (SharedFunctionInfo 0xecbf5c61ff9)> for recompilation, reason: hot and stable, ICs with typeinfo: 79/97 (81%)]
Inlining builtin 0xecbf5c53689 <JS Function push (SharedFunctionInfo 0xecbf5c3bf79)>
Inlining builtin 0xecbf5c53689 <JS Function push (SharedFunctionInfo 0xecbf5c3bf79)>
Did not inline syncMap called from  (target text too big).
Inlining builtin 0xecbf5c586d1 <JS Function imul (SharedFunctionInfo 0xecbf5c10c11)>
Inlining builtin 0xecbf5c586d1 <JS Function imul (SharedFunctionInfo 0xecbf5c10c11)>
Inlined random called from .
Inlining builtin 0xecbf5c52339 <JS Function floor (SharedFunctionInfo 0xecbf5c10549)>
Did not inline splice called from  (target not inlineable).
Inlining builtin 0xecbf5c53689 <JS Function push (SharedFunctionInfo 0xecbf5c3bf79)>
Inlining builtin 0xecbf5c586d1 <JS Function imul (SharedFunctionInfo 0xecbf5c10c11)>
Inlining builtin 0xecbf5c586d1 <JS Function imul (SharedFunctionInfo 0xecbf5c10c11)>
Inlined random called from .
Inlining builtin 0xecbf5c52339 <JS Function floor (SharedFunctionInfo 0xecbf5c10549)>
Did not inline splice called from  (target not inlineable).
Did not inline syncMap called from  (target text too big).
--- Raw source ---
// noprotect\x0a//var science = require('science');\x0a//var now = require('performance-now');\x0a\x0a// Lib-y stuff\x0a\x0avar __guid = 0;\x0a\x0afunction guid(obj) {\x0a  if (!obj.__guid__) {\x0a    obj.__guid__ = __guid++;\x0a  }\x0a\x0a  return obj.__guid__;\x0a}\x0a\x0afunction makeMap() {\x0a  var map = Object.create(null);\x0a  map.foo = 1;\x0a  delete map.foo;\x0a  return map;\x0a}\x0a\x0afunction syncMap(mapped, source, mapFn) {\x0a  var i,x, l, guidMap = makeMap();\x0a\x0a  for (i = 0, l = mapped.length; i < l; i++) {\x0a    var mappedItem = mapped[i];\x0a    var sourceItem = mappedItem.__source__;\x0a    guidMap[guid(sourceItem)] = mappedItem;\x0a  }\x0a\x0a  mapped.length = source.length;\x0a\x0a  for (x = 0, l = source.length; x < l; x++) {\x0a    var sourceItem = source[x];\x0a    var sourceItemGuid = guid(source[x]);\x0a    var mappedItem;\x0a\x0a    if (guidMap[sourceItemGuid] === undefined) {\x0a      mappedItem = mapFn(sourceItem);\x0a      mappedItem.__source__ = sourceItem;\x0a    } else {\x0a      mappedItem = guidMap[sourceItemGuid];\x0a    }\x0a\x0a    mapped[x] = mappedItem;\x0a  }\x0a}\x0a\x0a// Test\x0a\x0a//console.log("working...");\x0a\x0afunction ident(item) {\x0a  try {} finally {}\x0a  return item;\x0a}\x0a\x0avar counter = 0;\x0avar mapped = [];\x0avar source = [];\x0avar swap = [];\x0a\x0afunction Entry(foo) {\x0a  this.foo = foo;\x0a  this.__guid__ = undefined;\x0a  this.__source__ = undefined;\x0a}\x0a\x0afor (var i = 0; i < 50000; i++) {\x0a  source.push(new Entry(counter++));\x0a}\x0a\x0afor (var i = 0; i < 1000; i++) {\x0a  swap.push(new Entry(counter++));\x0a}\x0a\x0asyncMap(mapped, source, ident);\x0a\x0avar times = [];\x0a\x0afor (var runs = 0; runs < 100; runs++) {\x0a  var newSwap = [];\x0a\x0a  for (var i = 0; i < swap.length; i++) {\x0a    var j = Math.floor(Math.random() * source.length);\x0a    newSwap.push(source.splice(j, 1)[0]);\x0a  }\x0a\x0a  for (var i = 0; i < swap.length; i++) {\x0a    var j = Math.floor(Math.random() * (source.length+1));\x0a    source.splice(j, 0, swap[i]);\x0a  }\x0a\x0a  swap = newSwap;\x0a\x0a  //var startTime = 1//now();\x0a\x0a  syncMap(mapped, source, ident);\x0a\x0a  //times.push(now() - startTime)\x0a}\x0a\x0a//console.log("(times in ms)");\x0a//console.log("mean:", science.stats.mean(times));\x0a//console.log("sd:", Math.sqrt(science.stats.variance(times)));\x0a

--- Optimized code ---
optimization_id = 11
source_position = 0
kind = OPTIMIZED_FUNCTION
stack_slots = 8
Instructions (size = 5786)
0x177bccd740e0     0  55             push rbp
0x177bccd740e1     1  4889e5         REX.W movq rbp,rsp
0x177bccd740e4     4  56             push rsi
0x177bccd740e5     5  57             push rdi
0x177bccd740e6     6  4883ec40       REX.W subq rsp,0x40
                  ;;; <@0,#0> -------------------- B0 --------------------
                  ;;; <@2,#1> context
0x177bccd740ea    10  488b45f8       REX.W movq rax,[rbp-0x8]
                  ;;; <@3,#1> gap
0x177bccd740ee    14  488945e0       REX.W movq [rbp-0x20],rax
                  ;;; <@8,#7> -------------------- B1 --------------------
                  ;;; <@9,#7> gap
0x177bccd740f2    18  488bf0         REX.W movq rsi,rax
                  ;;; <@10,#8> declare-globals
0x177bccd740f5    21  56             push rsi
0x177bccd740f6    22  49ba818e994b8a160000 REX.W movq r10,0x168a4b998e81    ;; object: 0x168a4b998e81 <FixedArray[38]>
0x177bccd74100    32  4152           push r10
0x177bccd74102    34  6a00           push 0x0
0x177bccd74104    36  b803000000     movl rax,0x3
0x177bccd74109    41  498d9d1828e2fd REX.W leaq rbx,[r13-0x21dd7e8]
0x177bccd74110    48  e88b25f9ff     call 0x177bccd066a0     ;; code: STUB, CEntryStub, minor: 0
                  ;;; <@12,#9> lazy-bailout
                  ;;; <@13,#9> gap
0x177bccd74115    53  488b75e0       REX.W movq rsi,[rbp-0x20]
                  ;;; <@14,#10> stack-check
0x177bccd74119    57  660f1f840000000000 nop
0x177bccd74122    66  493ba590070000 REX.W cmpq rsp,[r13+0x790]
0x177bccd74129    73  7305           jnc 80  (0x177bccd74130)
0x177bccd7412b    75  e810d0fbff     call StackCheck  (0x177bccd31140)    ;; code: BUILTIN
                  ;;; <@16,#10> lazy-bailout
                  ;;; <@18,#14> push-argument
0x177bccd74130    80  49bab1c232fe38160000 REX.W movq r10,0x1638fe32c2b1    ;; object: 0x1638fe32c2b1 <String[6]: __guid>
0x177bccd7413a    90  4152           push r10
                  ;;; <@20,#14> push-argument
0x177bccd7413c    92  6a00           push 0x0
                  ;;; <@22,#14> push-argument
0x177bccd7413e    94  6a00           push 0x0
                  ;;; <@23,#14> gap
0x177bccd74140    96  488b75e0       REX.W movq rsi,[rbp-0x20]
                  ;;; <@24,#15> call-runtime
0x177bccd74144   100  b803000000     movl rax,0x3
0x177bccd74149   105  498d9db83de2fd REX.W leaq rbx,[r13-0x21dc248]
0x177bccd74150   112  e84b25f9ff     call 0x177bccd066a0     ;; code: STUB, CEntryStub, minor: 0
                  ;;; <@26,#16> lazy-bailout
                  ;;; <@28,#20> push-argument
0x177bccd74155   117  49ba01c432fe38160000 REX.W movq r10,0x1638fe32c401    ;; object: 0x1638fe32c401 <String[7]: counter>
0x177bccd7415f   127  4152           push r10
                  ;;; <@30,#20> push-argument
0x177bccd74161   129  6a00           push 0x0
                  ;;; <@32,#20> push-argument
0x177bccd74163   131  6a00           push 0x0
                  ;;; <@33,#20> gap
0x177bccd74165   133  488b75e0       REX.W movq rsi,[rbp-0x20]
                  ;;; <@34,#21> call-runtime
0x177bccd74169   137  b803000000     movl rax,0x3
0x177bccd7416e   142  498d9db83de2fd REX.W leaq rbx,[r13-0x21dc248]
0x177bccd74175   149  e82625f9ff     call 0x177bccd066a0     ;; code: STUB, CEntryStub, minor: 0
                  ;;; <@36,#22> lazy-bailout
                  ;;; <@38,#26> allocate
0x177bccd7417a   154  498b9d980a0000 REX.W movq rbx,[r13+0xa98]
0x177bccd74181   161  488bc3         REX.W movq rax,rbx
0x177bccd74184   164  4883c020       REX.W addq rax,0x20
0x177bccd74188   168  0f82da0d0000   jc 3720  (0x177bccd74f68)
0x177bccd7418e   174  493b85a00a0000 REX.W cmpq rax,[r13+0xaa0]
0x177bccd74195   181  0f87cd0d0000   ja 3720  (0x177bccd74f68)
0x177bccd7419b   187  498985980a0000 REX.W movq [r13+0xa98],rax
0x177bccd741a2   194  48ffc3         REX.W incq rbx
                  ;;; <@40,#28> store-named-field
0x177bccd741a5   197  49ba114130fe38160000 REX.W movq r10,0x1638fe304111    ;; object: 0x1638fe304111 <FixedArray[0]>
0x177bccd741af   207  4c89530f       REX.W movq [rbx+0xf],r10
                  ;;; <@42,#30> store-named-field
0x177bccd741b3   211  49ba59d6c0134f1b0000 REX.W movq r10,0x1b4f13c0d659    ;; object: 0x1b4f13c0d659 <Map(elements=0)>
0x177bccd741bd   221  4c8953ff       REX.W movq [rbx-0x1],r10
                  ;;; <@44,#32> store-named-field
0x177bccd741c1   225  49ba114130fe38160000 REX.W movq r10,0x1638fe304111    ;; object: 0x1638fe304111 <FixedArray[0]>
0x177bccd741cb   235  4c895307       REX.W movq [rbx+0x7],r10
                  ;;; <@46,#34> store-named-field
0x177bccd741cf   239  4533d2         xorl r10,r10
0x177bccd741d2   242  4c895317       REX.W movq [rbx+0x17],r10
                  ;;; <@48,#38> push-argument
0x177bccd741d6   246  49ba81c332fe38160000 REX.W movq r10,0x1638fe32c381    ;; object: 0x1638fe32c381 <String[6]: mapped>
0x177bccd741e0   256  4152           push r10
                  ;;; <@50,#38> push-argument
0x177bccd741e2   258  6a00           push 0x0
                  ;;; <@52,#38> push-argument
0x177bccd741e4   260  53             push rbx
                  ;;; <@53,#38> gap
0x177bccd741e5   261  488b75e0       REX.W movq rsi,[rbp-0x20]
                  ;;; <@54,#39> call-runtime
0x177bccd741e9   265  b803000000     movl rax,0x3
0x177bccd741ee   270  498d9db83de2fd REX.W leaq rbx,[r13-0x21dc248]
0x177bccd741f5   277  e8a624f9ff     call 0x177bccd066a0     ;; code: STUB, CEntryStub, minor: 0
                  ;;; <@56,#40> lazy-bailout
                  ;;; <@58,#44> allocate
0x177bccd741fa   282  498b9d980a0000 REX.W movq rbx,[r13+0xa98]
0x177bccd74201   289  488bc3         REX.W movq rax,rbx
0x177bccd74204   292  4883c020       REX.W addq rax,0x20
0x177bccd74208   296  0f82b30d0000   jc 3809  (0x177bccd74fc1)
0x177bccd7420e   302  493b85a00a0000 REX.W cmpq rax,[r13+0xaa0]
0x177bccd74215   309  0f87a60d0000   ja 3809  (0x177bccd74fc1)
0x177bccd7421b   315  498985980a0000 REX.W movq [r13+0xa98],rax
0x177bccd74222   322  48ffc3         REX.W incq rbx
                  ;;; <@60,#46> store-named-field
0x177bccd74225   325  49ba114130fe38160000 REX.W movq r10,0x1638fe304111    ;; object: 0x1638fe304111 <FixedArray[0]>
0x177bccd7422f   335  4c89530f       REX.W movq [rbx+0xf],r10
                  ;;; <@62,#48> store-named-field
0x177bccd74233   339  49bac9d5c0134f1b0000 REX.W movq r10,0x1b4f13c0d5c9    ;; object: 0x1b4f13c0d5c9 <Map(elements=2)>
0x177bccd7423d   349  4c8953ff       REX.W movq [rbx-0x1],r10
                  ;;; <@64,#50> store-named-field
0x177bccd74241   353  49ba114130fe38160000 REX.W movq r10,0x1638fe304111    ;; object: 0x1638fe304111 <FixedArray[0]>
0x177bccd7424b   363  4c895307       REX.W movq [rbx+0x7],r10
                  ;;; <@66,#52> store-named-field
0x177bccd7424f   367  4533d2         xorl r10,r10
0x177bccd74252   370  4c895317       REX.W movq [rbx+0x17],r10
                  ;;; <@68,#56> push-argument
0x177bccd74256   374  49ba49f530fe38160000 REX.W movq r10,0x1638fe30f549    ;; object: 0x1638fe30f549 <String[6]: source>
0x177bccd74260   384  4152           push r10
                  ;;; <@70,#56> push-argument
0x177bccd74262   386  6a00           push 0x0
                  ;;; <@72,#56> push-argument
0x177bccd74264   388  53             push rbx
                  ;;; <@73,#56> gap
0x177bccd74265   389  488b75e0       REX.W movq rsi,[rbp-0x20]
                  ;;; <@74,#57> call-runtime
0x177bccd74269   393  b803000000     movl rax,0x3
0x177bccd7426e   398  498d9db83de2fd REX.W leaq rbx,[r13-0x21dc248]
0x177bccd74275   405  e82624f9ff     call 0x177bccd066a0     ;; code: STUB, CEntryStub, minor: 0
                  ;;; <@76,#58> lazy-bailout
                  ;;; <@78,#62> allocate
0x177bccd7427a   410  498b9d980a0000 REX.W movq rbx,[r13+0xa98]
0x177bccd74281   417  488bc3         REX.W movq rax,rbx
0x177bccd74284   420  4883c020       REX.W addq rax,0x20
0x177bccd74288   424  0f828c0d0000   jc 3898  (0x177bccd7501a)
0x177bccd7428e   430  493b85a00a0000 REX.W cmpq rax,[r13+0xaa0]
0x177bccd74295   437  0f877f0d0000   ja 3898  (0x177bccd7501a)
0x177bccd7429b   443  498985980a0000 REX.W movq [r13+0xa98],rax
0x177bccd742a2   450  48ffc3         REX.W incq rbx
                  ;;; <@80,#64> store-named-field
0x177bccd742a5   453  49ba114130fe38160000 REX.W movq r10,0x1638fe304111    ;; object: 0x1638fe304111 <FixedArray[0]>
0x177bccd742af   463  4c89530f       REX.W movq [rbx+0xf],r10
                  ;;; <@82,#66> store-named-field
0x177bccd742b3   467  49ba59d6c0134f1b0000 REX.W movq r10,0x1b4f13c0d659    ;; object: 0x1b4f13c0d659 <Map(elements=0)>
0x177bccd742bd   477  4c8953ff       REX.W movq [rbx-0x1],r10
                  ;;; <@84,#68> store-named-field
0x177bccd742c1   481  49ba114130fe38160000 REX.W movq r10,0x1638fe304111    ;; object: 0x1638fe304111 <FixedArray[0]>
0x177bccd742cb   491  4c895307       REX.W movq [rbx+0x7],r10
                  ;;; <@86,#70> store-named-field
0x177bccd742cf   495  4533d2         xorl r10,r10
0x177bccd742d2   498  4c895317       REX.W movq [rbx+0x17],r10
                  ;;; <@88,#74> push-argument
0x177bccd742d6   502  49ba21c432fe38160000 REX.W movq r10,0x1638fe32c421    ;; object: 0x1638fe32c421 <String[4]: swap>
0x177bccd742e0   512  4152           push r10
                  ;;; <@90,#74> push-argument
0x177bccd742e2   514  6a00           push 0x0
                  ;;; <@92,#74> push-argument
0x177bccd742e4   516  53             push rbx
                  ;;; <@93,#74> gap
0x177bccd742e5   517  488b75e0       REX.W movq rsi,[rbp-0x20]
                  ;;; <@94,#75> call-runtime
0x177bccd742e9   521  b803000000     movl rax,0x3
0x177bccd742ee   526  498d9db83de2fd REX.W leaq rbx,[r13-0x21dc248]
0x177bccd742f5   533  e8a623f9ff     call 0x177bccd066a0     ;; code: STUB, CEntryStub, minor: 0
                  ;;; <@96,#76> lazy-bailout
                  ;;; <@98,#917> constant-t
0x177bccd742fa   538  33c0           xorl rax,rax
                  ;;; <@100,#78> store-global-cell
0x177bccd742fc   540  49ba28066125ac0f0000 REX.W movq r10,0xfac25610628    ;; property cell
0x177bccd74306   550  498902         REX.W movq [r10],rax
                  ;;; <@102,#101> check-maps
                  ;;; <@104,#116> check-maps
                  ;;; <@108,#85> -------------------- B2 (loop header) --------------------
                  ;;; <@110,#86> load-global-cell
0x177bccd74309   553  48a128066125ac0f0000 REX.W movq rax,(0xfac25610628)    ;; debug: position 1273
                                                             ;; debug: position 1320
                                                             ;; debug: position 1273
                                                             ;; property cell
                  ;;; <@112,#928> tagged-to-i
0x177bccd74313   563  a801           test al,0x1
0x177bccd74315   565  0f85580d0000   jnz 3987  (0x177bccd75073)
0x177bccd7431b   571  48c1e820       REX.W shrq rax,32
                  ;;; <@115,#88> compare-numeric-and-branch
0x177bccd7431f   575  3d50c30000     cmp rax,0xc350
0x177bccd74324   580  0f8d35020000   jge 1151  (0x177bccd7455f)
                  ;;; <@116,#89> -------------------- B3 (unreachable/replaced) --------------------
                  ;;; <@120,#95> -------------------- B4 --------------------
                  ;;; <@122,#97> stack-check
0x177bccd7432a   586  493ba590070000 REX.W cmpq rsp,[r13+0x790]
0x177bccd74331   593  0f826d0d0000   jc 4036  (0x177bccd750a4)
                  ;;; <@124,#98> constant-t
0x177bccd74337   599  48b8d9fac6f5cb0e0000 REX.W movq rax,0xecbf5c6fad9    ;; object: 0xecbf5c6fad9 <JS Array[50000]>
                  ;;; <@126,#99> check-maps
0x177bccd74341   609  49bac9d5c0134f1b0000 REX.W movq r10,0x1b4f13c0d5c9    ;; object: 0x1b4f13c0d5c9 <Map(elements=2)>
0x177bccd7434b   619  4c3950ff       REX.W cmpq [rax-0x1],r10
0x177bccd7434f   623  0f8532120000   jnz 5287  (0x177bccd75587)
                  ;;; <@128,#104> load-global-cell
0x177bccd74355   629  48a188056125ac0f0000 REX.W movq rax,(0xfac25610588)    ;; debug: position 1320
                                                             ;; property cell
                  ;;; <@130,#929> tagged-to-i
0x177bccd7435f   639  a801           test al,0x1
0x177bccd74361   641  0f857e0d0000   jnz 4101  (0x177bccd750e5)
0x177bccd74367   647  48c1e820       REX.W shrq rax,32
                  ;;; <@131,#929> gap
0x177bccd7436b   651  488bd8         REX.W movq rbx,rax
                  ;;; <@132,#107> add-i
0x177bccd7436e   654  83c301         addl rbx,0x1
0x177bccd74371   657  0f8015120000   jo 5292  (0x177bccd7558c)
                  ;;; <@134,#931> smi-tag
0x177bccd74377   663  8bd3           movl rdx,rbx
0x177bccd74379   665  48c1e220       REX.W shlq rdx,32
                  ;;; <@136,#108> store-global-cell
0x177bccd7437d   669  49ba88056125ac0f0000 REX.W movq r10,0xfac25610588    ;; property cell
0x177bccd74387   679  498912         REX.W movq [r10],rdx
                  ;;; <@138,#930> smi-tag
0x177bccd7438a   682  8bd8           movl rbx,rax
0x177bccd7438c   684  48c1e320       REX.W shlq rbx,32
                  ;;; <@140,#110> push-argument
0x177bccd74390   688  49ba3122c6f5cb0e0000 REX.W movq r10,0xecbf5c62231    ;; object: 0xecbf5c62231 <JS Function Entry (SharedFunctionInfo 0xecbf5c61d39)>
0x177bccd7439a   698  4152           push r10
                  ;;; <@142,#110> push-argument
0x177bccd7439c   700  53             push rbx
                  ;;; <@144,#103> constant-t
0x177bccd7439d   701  48bf3122c6f5cb0e0000 REX.W movq rdi,0xecbf5c62231    ;; debug: position 1303
                                                             ;; object: 0xecbf5c62231 <JS Function Entry (SharedFunctionInfo 0xecbf5c61d39)>
                  ;;; <@145,#103> gap
0x177bccd743a7   711  488b75e0       REX.W movq rsi,[rbp-0x20]
                  ;;; <@146,#111> call-new
0x177bccd743ab   715  b801000000     movl rax,0x1            ;; debug: position 1320
0x177bccd743b0   720  498b5da8       REX.W movq rbx,[r13-0x58]
0x177bccd743b4   724  e827b3fbff     call 0x177bccd2f6e0     ;; code: constructor, STUB, CallConstructStub, minor: 0
                  ;;; <@147,#111> gap
0x177bccd743b9   729  488bd8         REX.W movq rbx,rax
                  ;;; <@148,#112> lazy-bailout
                  ;;; <@150,#98> constant-t
0x177bccd743bc   732  48b8d9fac6f5cb0e0000 REX.W movq rax,0xecbf5c6fad9    ;; debug: position 1273
                                                             ;; object: 0xecbf5c6fad9 <JS Array[50000]>
                  ;;; <@152,#117> load-named-field
0x177bccd743c6   742  8b501b         movl rdx,[rax+0x1b]     ;; debug: position 1320
                  ;;; <@154,#98> constant-t
0x177bccd743c9   745  48b8d9fac6f5cb0e0000 REX.W movq rax,0xecbf5c6fad9    ;; debug: position 1273
                                                             ;; object: 0xecbf5c6fad9 <JS Array[50000]>
                  ;;; <@156,#119> load-named-field
0x177bccd743d3   755  488b400f       REX.W movq rax,[rax+0xf]    ;; debug: position 1320
                  ;;; <@158,#120> check-maps
0x177bccd743d7   759  49ba2142c0134f1b0000 REX.W movq r10,0x1b4f13c04221    ;; object: 0x1b4f13c04221 <Map(elements=0)>
0x177bccd743e1   769  4c3950ff       REX.W cmpq [rax-0x1],r10
0x177bccd743e5   773  0f85a6110000   jnz 5297  (0x177bccd75591)
                  ;;; <@162,#183> -------------------- B5 (unreachable/replaced) --------------------
                  ;;; <@170,#123> -------------------- B6 --------------------
                  ;;; <@172,#124> load-named-field
0x177bccd743eb   779  8b480b         movl rcx,[rax+0xb]
                  ;;; <@175,#125> compare-numeric-and-branch
0x177bccd743ee   782  3bd1           cmpl rdx,rcx
0x177bccd743f0   784  0f8d08000000   jge 798  (0x177bccd743fe)
                  ;;; <@176,#176> -------------------- B7 --------------------
                  ;;; <@178,#177> gap
0x177bccd743f6   790  488bc8         REX.W movq rcx,rax
                  ;;; <@179,#177> goto
0x177bccd743f9   793  e9db000000     jmp 1017  (0x177bccd744d9)
                  ;;; <@180,#126> -------------------- B8 --------------------
                  ;;; <@182,#128> add-i
0x177bccd743fe   798  81c100040000   addl rcx,0x400
0x177bccd74404   804  0f808c110000   jo 5302  (0x177bccd75596)
                  ;;; <@184,#129> bounds-check
0x177bccd7440a   810  3bca           cmpl rcx,rdx
0x177bccd7440c   812  0f8689110000   jna 5307  (0x177bccd7559b)
                  ;;; <@185,#129> gap
0x177bccd74412   818  488bca         REX.W movq rcx,rdx
                  ;;; <@186,#130> shift-i
0x177bccd74415   821  d1e9           shrl rcx,1
                  ;;; <@188,#131> add-i
0x177bccd74417   823  03ca           addl rcx,rdx
                  ;;; <@190,#133> add-i
0x177bccd74419   825  83c110         addl rcx,0x10
                  ;;; <@192,#135> bounds-check
0x177bccd7441c   828  81f9def70100   cmpl rcx,0x1f7de
0x177bccd74422   834  0f8378110000   jnc 5312  (0x177bccd755a0)
                  ;;; <@194,#932> smi-tag
0x177bccd74428   840  8bf1           movl rsi,rcx
0x177bccd7442a   842  48c1e620       REX.W shlq rsi,32
                  ;;; <@196,#138> mul-i
0x177bccd7442e   846  c1e103         shll rcx,3
                  ;;; <@198,#140> add-i
0x177bccd74431   849  83c110         addl rcx,0x10
                  ;;; <@200,#141> allocate
0x177bccd74434   852  4d8b85980a0000 REX.W movq r8,[r13+0xa98]
0x177bccd7443b   859  488bf9         REX.W movq rdi,rcx
0x177bccd7443e   862  4903f8         REX.W addq rdi,r8
0x177bccd74441   865  0f82dc0c0000   jc 4163  (0x177bccd75123)
0x177bccd74447   871  493bbda00a0000 REX.W cmpq rdi,[r13+0xaa0]
0x177bccd7444e   878  0f87cf0c0000   ja 4163  (0x177bccd75123)
0x177bccd74454   884  4989bd980a0000 REX.W movq [r13+0xa98],rdi
0x177bccd7445b   891  4983c001       REX.W addq r8,0x1
                  ;;; <@202,#143> store-named-field
0x177bccd7445f   895  49ba2142c0134f1b0000 REX.W movq r10,0x1b4f13c04221    ;; object: 0x1b4f13c04221 <Map(elements=0)>
0x177bccd74469   905  4d8950ff       REX.W movq [r8-0x1],r10
                  ;;; <@204,#144> store-named-field
0x177bccd7446d   909  49897007       REX.W movq [r8+0x7],rsi
                  ;;; <@206,#146> load-named-field
0x177bccd74471   913  418b480b       movl rcx,[r8+0xb]
                  ;;; <@210,#152> -------------------- B9 (loop header) --------------------
                  ;;; <@213,#153> compare-numeric-and-branch
0x177bccd74475   917  3bca           cmpl rcx,rdx
0x177bccd74477   919  0f8e14000000   jle 945  (0x177bccd74491)
                  ;;; <@214,#154> -------------------- B10 --------------------
                  ;;; <@216,#155> sub-i
0x177bccd7447d   925  83e901         subl rcx,0x1
                  ;;; <@218,#156> store-keyed
0x177bccd74480   928  49ba4141c0f5cb0e0000 REX.W movq r10,0xecbf5c04141    ;; object: 0xecbf5c04141 <the hole>
0x177bccd7448a   938  4d8954c80f     REX.W movq [r8+rcx*8+0xf],r10
                  ;;; <@221,#158> goto
0x177bccd7448f   943  ebe4           jmp 917  (0x177bccd74475)
                  ;;; <@222,#164> -------------------- B11 --------------------
                  ;;; <@224,#165> gap
0x177bccd74491   945  488bca         REX.W movq rcx,rdx
                  ;;; <@226,#166> -------------------- B12 (loop header) --------------------
                  ;;; <@229,#167> compare-numeric-and-branch
0x177bccd74494   948  83f900         cmpl rcx,0x0
0x177bccd74497   951  0f8e0f000000   jle 972  (0x177bccd744ac)
                  ;;; <@230,#168> -------------------- B13 --------------------
                  ;;; <@232,#169> sub-i
0x177bccd7449d   957  83e901         subl rcx,0x1
                  ;;; <@234,#170> load-keyed
0x177bccd744a0   960  488b74c80f     REX.W movq rsi,[rax+rcx*8+0xf]
                  ;;; <@236,#171> store-keyed
0x177bccd744a5   965  498974c80f     REX.W movq [r8+rcx*8+0xf],rsi
                  ;;; <@239,#173> goto
0x177bccd744aa   970  ebe8           jmp 948  (0x177bccd74494)
                  ;;; <@240,#174> -------------------- B14 --------------------
                  ;;; <@242,#98> constant-t
0x177bccd744ac   972  48b8d9fac6f5cb0e0000 REX.W movq rax,0xecbf5c6fad9    ;; debug: position 1273
                                                             ;; object: 0xecbf5c6fad9 <JS Array[50000]>
                  ;;; <@243,#98> gap
0x177bccd744b6   982  498bc8         REX.W movq rcx,r8
                  ;;; <@244,#175> store-named-field
0x177bccd744b9   985  4889480f       REX.W movq [rax+0xf],rcx    ;; debug: position 1320
0x177bccd744bd   989  488d700f       REX.W leaq rsi,[rax+0xf]
0x177bccd744c1   993  48c7c10000f0ff REX.W movq rcx,0xfff00000
0x177bccd744c8  1000  4823c8         REX.W andq rcx,rax
0x177bccd744cb  1003  f6410808       testb [rcx+0x8],0x8
0x177bccd744cf  1007  7405           jz 1014  (0x177bccd744d6)
0x177bccd744d1  1009  e82ac8ffff     call 0x177bccd70d00     ;; code: STUB, RecordWriteStub, minor: 9744
                  ;;; <@246,#178> gap
0x177bccd744d6  1014  498bc8         REX.W movq rcx,r8
                  ;;; <@248,#180> -------------------- B15 --------------------
                  ;;; <@250,#181> add-i
0x177bccd744d9  1017  8d4201         leal rax,[rdx+0x1]
                  ;;; <@252,#933> smi-tag
0x177bccd744dc  1020  8bf0           movl rsi,rax
0x177bccd744de  1022  48c1e620       REX.W shlq rsi,32
                  ;;; <@254,#98> constant-t
0x177bccd744e2  1026  48b8d9fac6f5cb0e0000 REX.W movq rax,0xecbf5c6fad9    ;; debug: position 1273
                                                             ;; object: 0xecbf5c6fad9 <JS Array[50000]>
                  ;;; <@256,#182> store-named-field
0x177bccd744ec  1036  48897017       REX.W movq [rax+0x17],rsi    ;; debug: position 1320
                  ;;; <@258,#186> gap
0x177bccd744f0  1040  488bc1         REX.W movq rax,rcx
                  ;;; <@260,#188> -------------------- B16 --------------------
                  ;;; <@262,#189> store-keyed
0x177bccd744f3  1043  48895cd00f     REX.W movq [rax+rdx*8+0xf],rbx
0x177bccd744f8  1048  488d54d00f     REX.W leaq rdx,[rax+rdx*8+0xf]
0x177bccd744fd  1053  f6c301         testb rbx,0x1
0x177bccd74500  1056  0f8422000000   jz 1096  (0x177bccd74528)
0x177bccd74506  1062  4881e30000f0ff REX.W andq rbx,0xfffffffffff00000
0x177bccd7450d  1069  f6430804       testb [rbx+0x8],0x4
0x177bccd74511  1073  7415           jz 1096  (0x177bccd74528)
0x177bccd74513  1075  48c7c30000f0ff REX.W movq rbx,0xfff00000
0x177bccd7451a  1082  4823d8         REX.W andq rbx,rax
0x177bccd7451d  1085  f6430808       testb [rbx+0x8],0x8
0x177bccd74521  1089  7405           jz 1096  (0x177bccd74528)
0x177bccd74523  1091  e838f6feff     call 0x177bccd63b60     ;; code: STUB, RecordWriteStub, minor: 8752
                  ;;; <@264,#191> load-global-cell
0x177bccd74528  1096  48a128066125ac0f0000 REX.W movq rax,(0xfac25610628)    ;; debug: position 1283
                                                             ;; property cell
                  ;;; <@266,#934> tagged-to-i
0x177bccd74532  1106  a801           test al,0x1
0x177bccd74534  1108  0f853c0c0000   jnz 4246  (0x177bccd75176)
0x177bccd7453a  1114  48c1e820       REX.W shrq rax,32
                  ;;; <@268,#192> add-i
0x177bccd7453e  1118  83c001         addl rax,0x1
0x177bccd74541  1121  0f805e100000   jo 5317  (0x177bccd755a5)
                  ;;; <@270,#935> smi-tag
0x177bccd74547  1127  8bd8           movl rbx,rax
0x177bccd74549  1129  48c1e320       REX.W shlq rbx,32
                  ;;; <@272,#193> store-global-cell
0x177bccd7454d  1133  49ba28066125ac0f0000 REX.W movq r10,0xfac25610628    ;; property cell
0x177bccd74557  1143  49891a         REX.W movq [r10],rbx
                  ;;; <@275,#196> goto
0x177bccd7455a  1146  e9aafdffff     jmp 553  (0x177bccd74309)
                  ;;; <@276,#92> -------------------- B17 (unreachable/replaced) --------------------
                  ;;; <@280,#197> -------------------- B18 --------------------
                  ;;; <@282,#917> constant-t
0x177bccd7455f  1151  33c0           xorl rax,rax
                  ;;; <@284,#199> store-global-cell
0x177bccd74561  1153  49ba28066125ac0f0000 REX.W movq r10,0xfac25610628    ;; property cell
0x177bccd7456b  1163  498902         REX.W movq [r10],rax
                  ;;; <@288,#206> -------------------- B19 (loop header) --------------------
                  ;;; <@290,#207> load-global-cell
0x177bccd7456e  1166  48a128066125ac0f0000 REX.W movq rax,(0xfac25610628)    ;; debug: position 1347
                                                             ;; property cell
                  ;;; <@292,#937> tagged-to-i
0x177bccd74578  1176  a801           test al,0x1
0x177bccd7457a  1178  0f85270c0000   jnz 4295  (0x177bccd751a7)
0x177bccd74580  1184  48c1e820       REX.W shrq rax,32
                  ;;; <@295,#209> compare-numeric-and-branch
0x177bccd74584  1188  3de8030000     cmp rax,0x3e8
0x177bccd74589  1193  0f8d11020000   jge 1728  (0x177bccd747a0)
                  ;;; <@296,#210> -------------------- B20 (unreachable/replaced) --------------------
                  ;;; <@300,#216> -------------------- B21 --------------------
                  ;;; <@302,#218> stack-check
0x177bccd7458f  1199  493ba590070000 REX.W cmpq rsp,[r13+0x790]
0x177bccd74596  1206  0f823c0c0000   jc 4344  (0x177bccd751d8)
                  ;;; <@304,#219> load-global-cell
0x177bccd7459c  1212  48a1e8056125ac0f0000 REX.W movq rax,(0xfac256105e8)    ;; property cell
                  ;;; <@305,#219> gap
0x177bccd745a6  1222  488945d8       REX.W movq [rbp-0x28],rax
                  ;;; <@306,#220> check-non-smi
0x177bccd745aa  1226  a801           test al,0x1
0x177bccd745ac  1228  0f84f80f0000   jz 5322  (0x177bccd755aa)
                  ;;; <@308,#221> check-maps
0x177bccd745b2  1234  49bac9d5c0134f1b0000 REX.W movq r10,0x1b4f13c0d5c9    ;; object: 0x1b4f13c0d5c9 <Map(elements=2)>
0x177bccd745bc  1244  4c3950ff       REX.W cmpq [rax-0x1],r10
0x177bccd745c0  1248  0f85e90f0000   jnz 5327  (0x177bccd755af)
                  ;;; <@310,#226> load-global-cell
0x177bccd745c6  1254  48bb88056125ac0f0000 REX.W movq rbx,0xfac25610588    ;; debug: position 1391
                                                             ;; property cell
0x177bccd745d0  1264  488b1b         REX.W movq rbx,[rbx]
                  ;;; <@312,#938> tagged-to-i
0x177bccd745d3  1267  f6c301         testb rbx,0x1
0x177bccd745d6  1270  0f853d0c0000   jnz 4409  (0x177bccd75219)
0x177bccd745dc  1276  48c1eb20       REX.W shrq rbx,32
                  ;;; <@313,#938> gap
0x177bccd745e0  1280  488bd3         REX.W movq rdx,rbx
                  ;;; <@314,#228> add-i
0x177bccd745e3  1283  83c201         addl rdx,0x1
0x177bccd745e6  1286  0f80c80f0000   jo 5332  (0x177bccd755b4)
                  ;;; <@316,#940> smi-tag
0x177bccd745ec  1292  8bca           movl rcx,rdx
0x177bccd745ee  1294  48c1e120       REX.W shlq rcx,32
                  ;;; <@318,#229> store-global-cell
0x177bccd745f2  1298  49ba88056125ac0f0000 REX.W movq r10,0xfac25610588    ;; property cell
0x177bccd745fc  1308  49890a         REX.W movq [r10],rcx
                  ;;; <@320,#939> smi-tag
0x177bccd745ff  1311  8bd3           movl rdx,rbx
0x177bccd74601  1313  48c1e220       REX.W shlq rdx,32
                  ;;; <@322,#231> push-argument
0x177bccd74605  1317  49ba3122c6f5cb0e0000 REX.W movq r10,0xecbf5c62231    ;; object: 0xecbf5c62231 <JS Function Entry (SharedFunctionInfo 0xecbf5c61d39)>
0x177bccd7460f  1327  4152           push r10
                  ;;; <@324,#231> push-argument
0x177bccd74611  1329  52             push rdx
                  ;;; <@326,#103> constant-t
0x177bccd74612  1330  48bf3122c6f5cb0e0000 REX.W movq rdi,0xecbf5c62231    ;; debug: position 1303
                                                             ;; object: 0xecbf5c62231 <JS Function Entry (SharedFunctionInfo 0xecbf5c61d39)>
                  ;;; <@327,#103> gap
0x177bccd7461c  1340  488b75e0       REX.W movq rsi,[rbp-0x20]
                  ;;; <@328,#232> call-new
0x177bccd74620  1344  b801000000     movl rax,0x1            ;; debug: position 1391
0x177bccd74625  1349  498b5da8       REX.W movq rbx,[r13-0x58]
0x177bccd74629  1353  e8b2b0fbff     call 0x177bccd2f6e0     ;; code: constructor, STUB, CallConstructStub, minor: 0
                  ;;; <@330,#233> lazy-bailout
                  ;;; <@331,#233> gap
0x177bccd7462e  1358  488b5dd8       REX.W movq rbx,[rbp-0x28]
                  ;;; <@332,#238> load-named-field
0x177bccd74632  1362  8b531b         movl rdx,[rbx+0x1b]
                  ;;; <@334,#240> load-named-field
0x177bccd74635  1365  488b4b0f       REX.W movq rcx,[rbx+0xf]
                  ;;; <@336,#241> check-maps
0x177bccd74639  1369  49ba2142c0134f1b0000 REX.W movq r10,0x1b4f13c04221    ;; object: 0x1b4f13c04221 <Map(elements=0)>
0x177bccd74643  1379  4c3951ff       REX.W cmpq [rcx-0x1],r10
0x177bccd74647  1383  0f856c0f0000   jnz 5337  (0x177bccd755b9)
                  ;;; <@340,#303> -------------------- B22 (unreachable/replaced) --------------------
                  ;;; <@348,#244> -------------------- B23 --------------------
                  ;;; <@350,#245> load-named-field
0x177bccd7464d  1389  8b710b         movl rsi,[rcx+0xb]
                  ;;; <@353,#246> compare-numeric-and-branch
0x177bccd74650  1392  3bd6           cmpl rdx,rsi
0x177bccd74652  1394  0f8cd1000000   jl 1609  (0x177bccd74729)
                  ;;; <@354,#296> -------------------- B24 (unreachable/replaced) --------------------
                  ;;; <@358,#247> -------------------- B25 --------------------
                  ;;; <@360,#249> add-i
0x177bccd74658  1400  81c600040000   addl rsi,0x400
0x177bccd7465e  1406  0f805a0f0000   jo 5342  (0x177bccd755be)
                  ;;; <@362,#250> bounds-check
0x177bccd74664  1412  3bf2           cmpl rsi,rdx
0x177bccd74666  1414  0f86570f0000   jna 5347  (0x177bccd755c3)
                  ;;; <@363,#250> gap
0x177bccd7466c  1420  488bf2         REX.W movq rsi,rdx
                  ;;; <@364,#251> shift-i
0x177bccd7466f  1423  d1ee           shrl rsi,1
                  ;;; <@366,#252> add-i
0x177bccd74671  1425  03f2           addl rsi,rdx
                  ;;; <@368,#254> add-i
0x177bccd74673  1427  83c610         addl rsi,0x10
                  ;;; <@370,#256> bounds-check
0x177bccd74676  1430  81fedef70100   cmpl rsi,0x1f7de
0x177bccd7467c  1436  0f83460f0000   jnc 5352  (0x177bccd755c8)
                  ;;; <@372,#941> smi-tag
0x177bccd74682  1442  8bfe           movl rdi,rsi
0x177bccd74684  1444  48c1e720       REX.W shlq rdi,32
                  ;;; <@374,#259> mul-i
0x177bccd74688  1448  c1e603         shll rsi,3
                  ;;; <@376,#261> add-i
0x177bccd7468b  1451  83c610         addl rsi,0x10
                  ;;; <@378,#262> allocate
0x177bccd7468e  1454  4d8b8d980a0000 REX.W movq r9,[r13+0xa98]
0x177bccd74695  1461  4c8bc6         REX.W movq r8,rsi
0x177bccd74698  1464  4d03c1         REX.W addq r8,r9
0x177bccd7469b  1467  0f82b60b0000   jc 4471  (0x177bccd75257)
0x177bccd746a1  1473  4d3b85a00a0000 REX.W cmpq r8,[r13+0xaa0]
0x177bccd746a8  1480  0f87a90b0000   ja 4471  (0x177bccd75257)
0x177bccd746ae  1486  4d8985980a0000 REX.W movq [r13+0xa98],r8
0x177bccd746b5  1493  4983c101       REX.W addq r9,0x1
                  ;;; <@380,#264> store-named-field
0x177bccd746b9  1497  49ba2142c0134f1b0000 REX.W movq r10,0x1b4f13c04221    ;; object: 0x1b4f13c04221 <Map(elements=0)>
0x177bccd746c3  1507  4d8951ff       REX.W movq [r9-0x1],r10
                  ;;; <@382,#265> store-named-field
0x177bccd746c7  1511  49897907       REX.W movq [r9+0x7],rdi
                  ;;; <@384,#267> load-named-field
0x177bccd746cb  1515  418b710b       movl rsi,[r9+0xb]
                  ;;; <@388,#273> -------------------- B26 (loop header) --------------------
                  ;;; <@391,#274> compare-numeric-and-branch
0x177bccd746cf  1519  3bf2           cmpl rsi,rdx
0x177bccd746d1  1521  0f8e14000000   jle 1547  (0x177bccd746eb)
                  ;;; <@392,#275> -------------------- B27 --------------------
                  ;;; <@394,#276> sub-i
0x177bccd746d7  1527  83ee01         subl rsi,0x1
                  ;;; <@396,#277> store-keyed
0x177bccd746da  1530  49ba4141c0f5cb0e0000 REX.W movq r10,0xecbf5c04141    ;; object: 0xecbf5c04141 <the hole>
0x177bccd746e4  1540  4d8954f10f     REX.W movq [r9+rsi*8+0xf],r10
                  ;;; <@399,#279> goto
0x177bccd746e9  1545  ebe4           jmp 1519  (0x177bccd746cf)
                  ;;; <@400,#284> -------------------- B28 --------------------
                  ;;; <@402,#285> gap
0x177bccd746eb  1547  488bf2         REX.W movq rsi,rdx
                  ;;; <@404,#286> -------------------- B29 (loop header) --------------------
                  ;;; <@407,#287> compare-numeric-and-branch
0x177bccd746ee  1550  83fe00         cmpl rsi,0x0
0x177bccd746f1  1553  0f8e0f000000   jle 1574  (0x177bccd74706)
                  ;;; <@408,#288> -------------------- B30 --------------------
                  ;;; <@410,#289> sub-i
0x177bccd746f7  1559  83ee01         subl rsi,0x1
                  ;;; <@412,#290> load-keyed
0x177bccd746fa  1562  488b7cf10f     REX.W movq rdi,[rcx+rsi*8+0xf]
                  ;;; <@414,#291> store-keyed
0x177bccd746ff  1567  49897cf10f     REX.W movq [r9+rsi*8+0xf],rdi
                  ;;; <@417,#293> goto
0x177bccd74704  1572  ebe8           jmp 1550  (0x177bccd746ee)
                  ;;; <@418,#294> -------------------- B31 --------------------
                  ;;; <@419,#294> gap
0x177bccd74706  1574  498bc9         REX.W movq rcx,r9
                  ;;; <@420,#295> store-named-field
0x177bccd74709  1577  48894b0f       REX.W movq [rbx+0xf],rcx
0x177bccd7470d  1581  488d730f       REX.W leaq rsi,[rbx+0xf]
0x177bccd74711  1585  48c7c10000f0ff REX.W movq rcx,0xfff00000
0x177bccd74718  1592  4823cb         REX.W andq rcx,rbx
0x177bccd7471b  1595  f6410808       testb [rcx+0x8],0x8
0x177bccd7471f  1599  7405           jz 1606  (0x177bccd74726)
0x177bccd74721  1601  e83ad0ffff     call 0x177bccd71760     ;; code: STUB, RecordWriteStub, minor: 9747
                  ;;; <@422,#298> gap
0x177bccd74726  1606  498bc9         REX.W movq rcx,r9
                  ;;; <@424,#300> -------------------- B32 --------------------
                  ;;; <@426,#301> add-i
0x177bccd74729  1609  8d7201         leal rsi,[rdx+0x1]
                  ;;; <@428,#942> smi-tag
0x177bccd7472c  1612  8bfe           movl rdi,rsi
0x177bccd7472e  1614  48c1e720       REX.W shlq rdi,32
                  ;;; <@430,#302> store-named-field
0x177bccd74732  1618  48897b17       REX.W movq [rbx+0x17],rdi
                  ;;; <@434,#308> -------------------- B33 --------------------
                  ;;; <@436,#309> store-keyed
0x177bccd74736  1622  488944d10f     REX.W movq [rcx+rdx*8+0xf],rax
0x177bccd7473b  1627  488d54d10f     REX.W leaq rdx,[rcx+rdx*8+0xf]
0x177bccd74740  1632  a801           test al,0x1
0x177bccd74742  1634  0f8421000000   jz 1673  (0x177bccd74769)
0x177bccd74748  1640  48250000f0ff   REX.W and rax,0xfffffffffff00000
0x177bccd7474e  1646  f6400804       testb [rax+0x8],0x4
0x177bccd74752  1650  7415           jz 1673  (0x177bccd74769)
0x177bccd74754  1652  48c7c00000f0ff REX.W movq rax,0xfff00000
0x177bccd7475b  1659  4823c1         REX.W andq rax,rcx
0x177bccd7475e  1662  f6400808       testb [rax+0x8],0x8
0x177bccd74762  1666  7405           jz 1673  (0x177bccd74769)
0x177bccd74764  1668  e837daffff     call 0x177bccd721a0     ;; code: STUB, RecordWriteStub, minor: 8705
                  ;;; <@438,#311> load-global-cell
0x177bccd74769  1673  48a128066125ac0f0000 REX.W movq rax,(0xfac25610628)    ;; debug: position 1356
                                                             ;; property cell
                  ;;; <@440,#943> tagged-to-i
0x177bccd74773  1683  a801           test al,0x1
0x177bccd74775  1685  0f852f0b0000   jnz 4554  (0x177bccd752aa)
0x177bccd7477b  1691  48c1e820       REX.W shrq rax,32
                  ;;; <@442,#312> add-i
0x177bccd7477f  1695  83c001         addl rax,0x1
0x177bccd74782  1698  0f80450e0000   jo 5357  (0x177bccd755cd)
                  ;;; <@444,#944> smi-tag
0x177bccd74788  1704  8bd8           movl rbx,rax
0x177bccd7478a  1706  48c1e320       REX.W shlq rbx,32
                  ;;; <@446,#313> store-global-cell
0x177bccd7478e  1710  49ba28066125ac0f0000 REX.W movq r10,0xfac25610628    ;; property cell
0x177bccd74798  1720  49891a         REX.W movq [r10],rbx
                  ;;; <@449,#316> goto
0x177bccd7479b  1723  e9cefdffff     jmp 1166  (0x177bccd7456e)
                  ;;; <@450,#213> -------------------- B34 (unreachable/replaced) --------------------
                  ;;; <@454,#317> -------------------- B35 --------------------
                  ;;; <@456,#324> push-argument
0x177bccd747a0  1728  49ba2103c6f5cb0e0000 REX.W movq r10,0xecbf5c60321    ;; object: 0xecbf5c60321 <JS Global Object>
0x177bccd747aa  1738  4152           push r10
                  ;;; <@458,#324> push-argument
0x177bccd747ac  1740  49ba69c3c0a33f010000 REX.W movq r10,0x13fa3c0c369    ;; object: 0x13fa3c0c369 <JS Array[50000]>
0x177bccd747b6  1750  4152           push r10
                  ;;; <@460,#324> push-argument
0x177bccd747b8  1752  49bad9fac6f5cb0e0000 REX.W movq r10,0xecbf5c6fad9    ;; object: 0xecbf5c6fad9 <JS Array[50000]>
0x177bccd747c2  1762  4152           push r10
                  ;;; <@462,#324> push-argument
0x177bccd747c4  1764  49bae921c6f5cb0e0000 REX.W movq r10,0xecbf5c621e9    ;; object: 0xecbf5c621e9 <JS Function ident (SharedFunctionInfo 0xecbf5c61ca9)>
0x177bccd747ce  1774  4152           push r10
                  ;;; <@464,#318> constant-t
0x177bccd747d0  1776  48bfa121c6f5cb0e0000 REX.W movq rdi,0xecbf5c621a1    ;; object: 0xecbf5c621a1 <JS Function syncMap (SharedFunctionInfo 0xecbf5c61c19)>
                  ;;; <@466,#326> call-js-function
0x177bccd747da  1786  488b772f       REX.W movq rsi,[rdi+0x2f]
0x177bccd747de  1790  ff5717         call [rdi+0x17]
                  ;;; <@467,#326> gap
0x177bccd747e1  1793  488945d8       REX.W movq [rbp-0x28],rax
                  ;;; <@468,#327> lazy-bailout
                  ;;; <@470,#332> allocate
0x177bccd747e5  1797  498b95980a0000 REX.W movq rdx,[r13+0xa98]
0x177bccd747ec  1804  488bda         REX.W movq rbx,rdx
0x177bccd747ef  1807  4883c320       REX.W addq rbx,0x20
0x177bccd747f3  1811  0f82e20a0000   jc 4603  (0x177bccd752db)
0x177bccd747f9  1817  493b9da00a0000 REX.W cmpq rbx,[r13+0xaa0]
0x177bccd74800  1824  0f87d50a0000   ja 4603  (0x177bccd752db)
0x177bccd74806  1830  49899d980a0000 REX.W movq [r13+0xa98],rbx
0x177bccd7480d  1837  48ffc2         REX.W incq rdx
                  ;;; <@472,#334> store-named-field
0x177bccd74810  1840  49ba114130fe38160000 REX.W movq r10,0x1638fe304111    ;; object: 0x1638fe304111 <FixedArray[0]>
0x177bccd7481a  1850  4c89520f       REX.W movq [rdx+0xf],r10
                  ;;; <@474,#336> store-named-field
0x177bccd7481e  1854  49ba59d6c0134f1b0000 REX.W movq r10,0x1b4f13c0d659    ;; object: 0x1b4f13c0d659 <Map(elements=0)>
0x177bccd74828  1864  4c8952ff       REX.W movq [rdx-0x1],r10
                  ;;; <@476,#338> store-named-field
0x177bccd7482c  1868  49ba114130fe38160000 REX.W movq r10,0x1638fe304111    ;; object: 0x1638fe304111 <FixedArray[0]>
0x177bccd74836  1878  4c895207       REX.W movq [rdx+0x7],r10
                  ;;; <@478,#340> store-named-field
0x177bccd7483a  1882  4533d2         xorl r10,r10
0x177bccd7483d  1885  4c895217       REX.W movq [rdx+0x17],r10
                  ;;; <@480,#344> push-argument
0x177bccd74841  1889  49ba81c432fe38160000 REX.W movq r10,0x1638fe32c481    ;; object: 0x1638fe32c481 <String[5]: times>
0x177bccd7484b  1899  4152           push r10
                  ;;; <@482,#344> push-argument
0x177bccd7484d  1901  6a00           push 0x0
                  ;;; <@484,#344> push-argument
0x177bccd7484f  1903  52             push rdx
                  ;;; <@485,#344> gap
0x177bccd74850  1904  488b75e0       REX.W movq rsi,[rbp-0x20]
                  ;;; <@486,#345> call-runtime
0x177bccd74854  1908  b803000000     movl rax,0x3
0x177bccd74859  1913  498d9db83de2fd REX.W leaq rbx,[r13-0x21dc248]
0x177bccd74860  1920  e83b1ef9ff     call 0x177bccd066a0     ;; code: STUB, CEntryStub, minor: 0
                  ;;; <@488,#346> lazy-bailout
                  ;;; <@490,#917> constant-t
0x177bccd74865  1925  33c0           xorl rax,rax
                  ;;; <@492,#348> store-global-cell
0x177bccd74867  1927  49ba68066125ac0f0000 REX.W movq r10,0xfac25610668    ;; property cell
0x177bccd74871  1937  498902         REX.W movq [r10],rax
                  ;;; <@495,#351> goto
0x177bccd74874  1940  e918000000     jmp 1969  (0x177bccd74891)
                  ;;; <@496,#355> -------------------- B36 (OSR entry) --------------------
0x177bccd74879  1945  4883ec38       REX.W subq rsp,0x38
                  ;;; <@506,#361> context
0x177bccd7487d  1949  488b45f8       REX.W movq rax,[rbp-0x8]
                  ;;; <@508,#363> gap
0x177bccd74881  1953  488b5510       REX.W movq rdx,[rbp+0x10]
0x177bccd74885  1957  488bd8         REX.W movq rbx,rax
0x177bccd74888  1960  488b45e8       REX.W movq rax,[rbp-0x18]
                  ;;; <@509,#363> goto
0x177bccd7488c  1964  e90c000000     jmp 1981  (0x177bccd7489d)
                  ;;; <@510,#352> -------------------- B37 --------------------
                  ;;; <@512,#354> gap
0x177bccd74891  1969  488b5510       REX.W movq rdx,[rbp+0x10]
0x177bccd74895  1973  488b5de0       REX.W movq rbx,[rbp-0x20]
0x177bccd74899  1977  488b45d8       REX.W movq rax,[rbp-0x28]
                  ;;; <@514,#370> -------------------- B38 --------------------
0x177bccd7489d  1981  488955d0       REX.W movq [rbp-0x30],rdx
0x177bccd748a1  1985  48895dc0       REX.W movq [rbp-0x40],rbx
                  ;;; <@516,#426> check-maps
                  ;;; <@518,#440> check-maps
                  ;;; <@520,#473> check-maps
                  ;;; <@522,#475> check-maps
                  ;;; <@524,#553> constant-d
0x177bccd748a5  1989  48b9000000000000f041 REX.W movq rcx,0x41f0000000000000    ;; debug: position 1532
                                                             ;; debug: position 2440
                                                             ;; debug: position 2577
0x177bccd748af  1999  66480f6ed1     REX.W movq xmm2,rcx
                  ;;; <@525,#553> gap
0x177bccd748b4  2004  f20f1155b8     movsd [rbp-0x48],xmm2
                  ;;; <@526,#564> constant-d
0x177bccd748b9  2009  48b9000000000000f03d REX.W movq rcx,0x3df0000000000000    ;; debug: position 2582
0x177bccd748c3  2019  66480f6ed9     REX.W movq xmm3,rcx
                  ;;; <@527,#564> gap
0x177bccd748c8  2024  f20f115db0     movsd [rbp-0x50],xmm3
                  ;;; <@528,#583> check-maps
                  ;;; <@532,#373> -------------------- B39 (loop header) --------------------
                  ;;; <@534,#374> load-global-cell
0x177bccd748cd  2029  48b968066125ac0f0000 REX.W movq rcx,0xfac25610668    ;; debug: position 1591
                                                             ;; debug: position 1356
                                                             ;; debug: position 1474
                                                             ;; property cell
0x177bccd748d7  2039  488b09         REX.W movq rcx,[rcx]
                  ;;; <@536,#948> tagged-to-i
0x177bccd748da  2042  f6c101         testb rcx,0x1
0x177bccd748dd  2045  0f85510a0000   jnz 4692  (0x177bccd75334)
0x177bccd748e3  2051  48c1e920       REX.W shrq rcx,32
                  ;;; <@539,#376> compare-numeric-and-branch
0x177bccd748e7  2055  83f964         cmpl rcx,0x64
0x177bccd748ea  2058  0f8d71060000   jge 3713  (0x177bccd74f61)
                  ;;; <@540,#377> -------------------- B40 (unreachable/replaced) --------------------
                  ;;; <@544,#383> -------------------- B41 --------------------
                  ;;; <@546,#387> allocate
0x177bccd748f0  2064  498b8d980a0000 REX.W movq rcx,[r13+0xa98]
0x177bccd748f7  2071  488bc1         REX.W movq rax,rcx
0x177bccd748fa  2074  4883c020       REX.W addq rax,0x20
0x177bccd748fe  2078  0f82610a0000   jc 4741  (0x177bccd75365)
0x177bccd74904  2084  493b85a00a0000 REX.W cmpq rax,[r13+0xaa0]
0x177bccd7490b  2091  0f87540a0000   ja 4741  (0x177bccd75365)
0x177bccd74911  2097  498985980a0000 REX.W movq [r13+0xa98],rax
0x177bccd74918  2104  48ffc1         REX.W incq rcx
                  ;;; <@548,#389> store-named-field
0x177bccd7491b  2107  49ba114130fe38160000 REX.W movq r10,0x1638fe304111    ;; object: 0x1638fe304111 <FixedArray[0]>
0x177bccd74925  2117  4c89510f       REX.W movq [rcx+0xf],r10
                  ;;; <@550,#391> store-named-field
0x177bccd74929  2121  49bac9d5c0134f1b0000 REX.W movq r10,0x1b4f13c0d5c9    ;; object: 0x1b4f13c0d5c9 <Map(elements=2)>
0x177bccd74933  2131  4c8951ff       REX.W movq [rcx-0x1],r10
                  ;;; <@552,#393> store-named-field
0x177bccd74937  2135  49ba114130fe38160000 REX.W movq r10,0x1638fe304111    ;; object: 0x1638fe304111 <FixedArray[0]>
0x177bccd74941  2145  4c895107       REX.W movq [rcx+0x7],r10
                  ;;; <@554,#395> store-named-field
0x177bccd74945  2149  4533d2         xorl r10,r10
0x177bccd74948  2152  4c895117       REX.W movq [rcx+0x17],r10
                  ;;; <@556,#399> store-global-cell
0x177bccd7494c  2156  49ba88066125ac0f0000 REX.W movq r10,0xfac25610688    ;; property cell
0x177bccd74956  2166  49890a         REX.W movq [r10],rcx
                  ;;; <@558,#950> constant-t
0x177bccd74959  2169  33c0           xorl rax,rax
                  ;;; <@560,#402> store-global-cell
0x177bccd7495b  2171  49ba28066125ac0f0000 REX.W movq r10,0xfac25610628    ;; property cell
0x177bccd74965  2181  498902         REX.W movq [r10],rax
                  ;;; <@564,#409> -------------------- B42 (loop header) --------------------
                  ;;; <@566,#410> load-global-cell
0x177bccd74968  2184  48a128066125ac0f0000 REX.W movq rax,(0xfac25610628)    ;; debug: position 1532
                                                             ;; property cell
                  ;;; <@568,#411> load-global-cell
0x177bccd74972  2194  48b9e8056125ac0f0000 REX.W movq rcx,0xfac256105e8    ;; property cell
0x177bccd7497c  2204  488b09         REX.W movq rcx,[rcx]
                  ;;; <@570,#412> check-non-smi
0x177bccd7497f  2207  f6c101         testb rcx,0x1
0x177bccd74982  2210  0f844a0c0000   jz 5362  (0x177bccd755d2)
                  ;;; <@572,#413> check-maps
0x177bccd74988  2216  49bac9d5c0134f1b0000 REX.W movq r10,0x1b4f13c0d5c9    ;; object: 0x1b4f13c0d5c9 <Map(elements=2)>
0x177bccd74992  2226  4c3951ff       REX.W cmpq [rcx-0x1],r10
0x177bccd74996  2230  0f853b0c0000   jnz 5367  (0x177bccd755d7)
                  ;;; <@574,#414> load-named-field
0x177bccd7499c  2236  8b491b         movl rcx,[rcx+0x1b]
                  ;;; <@576,#951> tagged-to-i
0x177bccd7499f  2239  a801           test al,0x1
0x177bccd749a1  2241  0f85160a0000   jnz 4829  (0x177bccd753bd)
0x177bccd749a7  2247  48c1e820       REX.W shrq rax,32
                  ;;; <@579,#415> compare-numeric-and-branch
0x177bccd749ab  2251  3bc1           cmpl rax,rcx
0x177bccd749ad  2253  0f8d13030000   jge 3046  (0x177bccd74cc6)
                  ;;; <@580,#416> -------------------- B43 (unreachable/replaced) --------------------
                  ;;; <@584,#422> -------------------- B44 --------------------
                  ;;; <@586,#424> stack-check
0x177bccd749b3  2259  493ba590070000 REX.W cmpq rsp,[r13+0x790]
0x177bccd749ba  2266  0f822e0a0000   jc 4878  (0x177bccd753ee)
                  ;;; <@588,#438> constant-t
0x177bccd749c0  2272  48b8296bc0a33f010000 REX.W movq rax,0x13fa3c06b29    ;; object: 0x13fa3c06b29 <an Uint32Array with map 0x1b4f13c13719>
                  ;;; <@590,#441> load-named-field
0x177bccd749ca  2282  488b400f       REX.W movq rax,[rax+0xf]
                  ;;; <@592,#442> load-named-field
0x177bccd749ce  2286  8b480b         movl rcx,[rax+0xb]
                  ;;; <@594,#443> load-named-field
0x177bccd749d1  2289  488b400f       REX.W movq rax,[rax+0xf]
                  ;;; <@596,#444> bounds-check
0x177bccd749d5  2293  83f900         cmpl rcx,0x0
0x177bccd749d8  2296  0f86fe0b0000   jna 5372  (0x177bccd755dc)
                  ;;; <@598,#491> bounds-check
0x177bccd749de  2302  83f901         cmpl rcx,0x1            ;; debug: position 2440
0x177bccd749e1  2305  0f86fa0b0000   jna 5377  (0x177bccd755e1)
                  ;;; <@600,#445> load-keyed
0x177bccd749e7  2311  8b08           movl rcx,[rax]          ;; debug: position 1532
                  ;;; <@601,#445> gap
0x177bccd749e9  2313  488bf1         REX.W movq rsi,rcx
                  ;;; <@602,#447> bit-i
0x177bccd749ec  2316  81e6ffff0000   andl rsi,0xffff         ;; debug: position 2412
                  ;;; <@604,#449> mul-i
0x177bccd749f2  2322  69f661470000   imull rsi,rsi,0x4761
                  ;;; <@606,#459> shift-i
0x177bccd749f8  2328  c1e910         shrl rcx,16             ;; debug: position 2433
                  ;;; <@608,#461> add-i
0x177bccd749fb  2331  03ce           addl rcx,rsi            ;; debug: position 2420
                  ;;; <@610,#480> store-keyed
0x177bccd749fd  2333  8908           movl [rax],rcx          ;; debug: position 2440
                  ;;; <@612,#492> load-keyed
0x177bccd749ff  2335  8b7004         movl rsi,[rax+0x4]
                  ;;; <@613,#492> gap
0x177bccd74a02  2338  488bfe         REX.W movq rdi,rsi
                  ;;; <@614,#494> bit-i
0x177bccd74a05  2341  81e7ffff0000   andl rdi,0xffff         ;; debug: position 2492
                  ;;; <@616,#496> mul-i
0x177bccd74a0b  2347  69ff69900000   imull rdi,rdi,0x9069
                  ;;; <@618,#506> shift-i
0x177bccd74a11  2353  c1ee10         shrl rsi,16             ;; debug: position 2513
                  ;;; <@620,#508> add-i
0x177bccd74a14  2356  03f7           addl rsi,rdi            ;; debug: position 2500
                  ;;; <@622,#526> store-keyed
0x177bccd74a16  2358  897004         movl [rax+0x4],rsi      ;; debug: position 2520
                  ;;; <@624,#530> shift-i
0x177bccd74a19  2361  c1e110         shll rcx,16             ;; debug: position 2548
                  ;;; <@626,#534> bit-i
0x177bccd74a1c  2364  81e6ffff0000   andl rsi,0xffff         ;; debug: position 2556
                  ;;; <@628,#536> add-i
0x177bccd74a22  2370  03f1           addl rsi,rcx            ;; debug: position 2553
                  ;;; <@631,#544> compare-numeric-and-branch
0x177bccd74a24  2372  83fe00         cmpl rsi,0x0            ;; debug: position 2577
0x177bccd74a27  2375  0f8c0c000000   jl 2393  (0x177bccd74a39)
                  ;;; <@632,#548> -------------------- B45 (unreachable/replaced) --------------------
                  ;;; <@636,#556> -------------------- B46 --------------------
                  ;;; <@638,#952> int32-to-double
0x177bccd74a2d  2381  0f57c9         xorps xmm1,xmm1         ;; debug: position 2582
0x177bccd74a30  2384  f20f2ace       cvtsi2sd xmm1,rsi
                  ;;; <@641,#561> goto
0x177bccd74a34  2388  e90b000000     jmp 2404  (0x177bccd74a44)
                  ;;; <@642,#545> -------------------- B47 (unreachable/replaced) --------------------
                  ;;; <@646,#551> -------------------- B48 --------------------
                  ;;; <@648,#953> int32-to-double
0x177bccd74a39  2393  0f57c9         xorps xmm1,xmm1         ;; debug: position 2577
                                                             ;; debug: position 2582
0x177bccd74a3c  2396  f20f2ace       cvtsi2sd xmm1,rsi
                  ;;; <@650,#554> add-d
0x177bccd74a40  2400  f20f58ca       addsd xmm1,xmm2
                  ;;; <@654,#563> -------------------- B49 --------------------
                  ;;; <@656,#565> mul-d
0x177bccd74a44  2404  f20f59cb       mulsd xmm1,xmm3         ;; debug: position 2598
                  ;;; <@660,#570> -------------------- B50 --------------------
                  ;;; <@662,#571> constant-t
0x177bccd74a48  2408  48b8d9fac6f5cb0e0000 REX.W movq rax,0xecbf5c6fad9    ;; object: 0xecbf5c6fad9 <JS Array[50000]>
                  ;;; <@664,#572> check-maps
0x177bccd74a52  2418  49bac9d5c0134f1b0000 REX.W movq r10,0x1b4f13c0d5c9    ;; object: 0x1b4f13c0d5c9 <Map(elements=2)>
0x177bccd74a5c  2428  4c3950ff       REX.W cmpq [rax-0x1],r10
0x177bccd74a60  2432  0f85800b0000   jnz 5382  (0x177bccd755e6)
                  ;;; <@666,#571> constant-t
0x177bccd74a66  2438  48b8d9fac6f5cb0e0000 REX.W movq rax,0xecbf5c6fad9    ;; object: 0xecbf5c6fad9 <JS Array[50000]>
                  ;;; <@668,#573> load-named-field
0x177bccd74a70  2448  8b401b         movl rax,[rax+0x1b]
                  ;;; <@670,#954> int32-to-double
0x177bccd74a73  2451  0f57e4         xorps xmm4,xmm4         ;; debug: position 1591
0x177bccd74a76  2454  f20f2ae0       cvtsi2sd xmm4,rax
                  ;;; <@672,#574> mul-d
0x177bccd74a7a  2458  f20f59e1       mulsd xmm4,xmm1
                  ;;; <@674,#576> math-floor
0x177bccd74a7e  2462  66480f7ee0     REX.W movq rax,xmm4
0x177bccd74a83  2467  4883e801       REX.W subq rax,0x1
0x177bccd74a87  2471  0f805e0b0000   jo 5387  (0x177bccd755eb)
0x177bccd74a8d  2477  660f3a0bc409   roundsd xmm0,xmm4,1
0x177bccd74a93  2483  f20f2cc0       cvttsd2sil rax,xmm0
0x177bccd74a97  2487  83f801         cmpl rax,0x1
0x177bccd74a9a  2490  0f804b0b0000   jo 5387  (0x177bccd755eb)
                  ;;; <@676,#955> smi-tag
0x177bccd74aa0  2496  8bc8           movl rcx,rax
0x177bccd74aa2  2498  48c1e120       REX.W shlq rcx,32
                  ;;; <@678,#577> store-global-cell
0x177bccd74aa6  2502  49baa8066125ac0f0000 REX.W movq r10,0xfac256106a8    ;; property cell
0x177bccd74ab0  2512  49890a         REX.W movq [r10],rcx
                  ;;; <@680,#579> load-global-cell
0x177bccd74ab3  2515  48b988066125ac0f0000 REX.W movq rcx,0xfac25610688    ;; property cell
0x177bccd74abd  2525  488b09         REX.W movq rcx,[rcx]
                  ;;; <@681,#579> gap
0x177bccd74ac0  2528  48894dc8       REX.W movq [rbp-0x38],rcx
                  ;;; <@682,#580> check-non-smi
0x177bccd74ac4  2532  f6c101         testb rcx,0x1
0x177bccd74ac7  2535  0f84230b0000   jz 5392  (0x177bccd755f0)
                  ;;; <@684,#581> check-maps
0x177bccd74acd  2541  49bac9d5c0134f1b0000 REX.W movq r10,0x1b4f13c0d5c9    ;; object: 0x1b4f13c0d5c9 <Map(elements=2)>
0x177bccd74ad7  2551  4c3951ff       REX.W cmpq [rcx-0x1],r10
0x177bccd74adb  2555  0f85140b0000   jnz 5397  (0x177bccd755f5)
                  ;;; <@686,#590> load-global-cell
0x177bccd74ae1  2561  48a1a8066125ac0f0000 REX.W movq rax,(0xfac256106a8)    ;; property cell
                  ;;; <@688,#593> push-argument
0x177bccd74aeb  2571  49bad9fac6f5cb0e0000 REX.W movq r10,0xecbf5c6fad9    ;; object: 0xecbf5c6fad9 <JS Array[50000]>
0x177bccd74af5  2581  4152           push r10
                  ;;; <@690,#593> push-argument
0x177bccd74af7  2583  50             push rax
                  ;;; <@692,#593> push-argument
0x177bccd74af8  2584  4154           push r12
                  ;;; <@694,#592> constant-t
0x177bccd74afa  2586  48bf5938c5f5cb0e0000 REX.W movq rdi,0xecbf5c53859    ;; object: 0xecbf5c53859 <JS Function splice (SharedFunctionInfo 0xecbf5c3c249)>
                  ;;; <@696,#594> call-js-function
0x177bccd74b04  2596  b802000000     movl rax,0x2
0x177bccd74b09  2601  488b772f       REX.W movq rsi,[rdi+0x2f]
0x177bccd74b0d  2605  ff5717         call [rdi+0x17]
                  ;;; <@698,#595> lazy-bailout
                  ;;; <@700,#597> check-non-smi
0x177bccd74b10  2608  a801           test al,0x1
0x177bccd74b12  2610  0f84e20a0000   jz 5402  (0x177bccd755fa)
                  ;;; <@702,#598> check-maps
0x177bccd74b18  2616  49bac9d5c0134f1b0000 REX.W movq r10,0x1b4f13c0d5c9    ;; object: 0x1b4f13c0d5c9 <Map(elements=2)>
0x177bccd74b22  2626  4c3950ff       REX.W cmpq [rax-0x1],r10
0x177bccd74b26  2630  0f85d30a0000   jnz 5407  (0x177bccd755ff)
                  ;;; <@704,#599> load-named-field
0x177bccd74b2c  2636  488b580f       REX.W movq rbx,[rax+0xf]
                  ;;; <@706,#600> load-named-field
0x177bccd74b30  2640  8b501b         movl rdx,[rax+0x1b]
                  ;;; <@708,#601> bounds-check
0x177bccd74b33  2643  83fa00         cmpl rdx,0x0
0x177bccd74b36  2646  0f86c80a0000   jna 5412  (0x177bccd75604)
                  ;;; <@710,#602> load-keyed
0x177bccd74b3c  2652  488b5b0f       REX.W movq rbx,[rbx+0xf]
                  ;;; <@711,#602> gap
0x177bccd74b40  2656  488b55c8       REX.W movq rdx,[rbp-0x38]
                  ;;; <@712,#607> load-named-field
0x177bccd74b44  2660  8b4a1b         movl rcx,[rdx+0x1b]
                  ;;; <@714,#609> load-named-field
0x177bccd74b47  2663  488b720f       REX.W movq rsi,[rdx+0xf]
                  ;;; <@716,#610> check-maps
0x177bccd74b4b  2667  49ba2142c0134f1b0000 REX.W movq r10,0x1b4f13c04221    ;; object: 0x1b4f13c04221 <Map(elements=0)>
0x177bccd74b55  2677  4c3956ff       REX.W cmpq [rsi-0x1],r10
0x177bccd74b59  2681  0f85aa0a0000   jnz 5417  (0x177bccd75609)
                  ;;; <@720,#672> -------------------- B51 (unreachable/replaced) --------------------
                  ;;; <@728,#613> -------------------- B52 --------------------
                  ;;; <@730,#614> load-named-field
0x177bccd74b5f  2687  8b7e0b         movl rdi,[rsi+0xb]
                  ;;; <@733,#615> compare-numeric-and-branch
0x177bccd74b62  2690  3bcf           cmpl rcx,rdi
0x177bccd74b64  2692  0f8cd1000000   jl 2907  (0x177bccd74c3b)
                  ;;; <@734,#665> -------------------- B53 (unreachable/replaced) --------------------
                  ;;; <@738,#616> -------------------- B54 --------------------
                  ;;; <@740,#618> add-i
0x177bccd74b6a  2698  81c700040000   addl rdi,0x400
0x177bccd74b70  2704  0f80980a0000   jo 5422  (0x177bccd7560e)
                  ;;; <@742,#619> bounds-check
0x177bccd74b76  2710  3bf9           cmpl rdi,rcx
0x177bccd74b78  2712  0f86950a0000   jna 5427  (0x177bccd75613)
                  ;;; <@743,#619> gap
0x177bccd74b7e  2718  488bf9         REX.W movq rdi,rcx
                  ;;; <@744,#620> shift-i
0x177bccd74b81  2721  d1ef           shrl rdi,1
                  ;;; <@746,#621> add-i
0x177bccd74b83  2723  03f9           addl rdi,rcx
                  ;;; <@748,#623> add-i
0x177bccd74b85  2725  83c710         addl rdi,0x10
                  ;;; <@750,#625> bounds-check
0x177bccd74b88  2728  81ffdef70100   cmpl rdi,0x1f7de
0x177bccd74b8e  2734  0f83840a0000   jnc 5432  (0x177bccd75618)
                  ;;; <@752,#957> smi-tag
0x177bccd74b94  2740  8bc7           movl rax,rdi
0x177bccd74b96  2742  48c1e020       REX.W shlq rax,32
                  ;;; <@754,#628> mul-i
0x177bccd74b9a  2746  c1e703         shll rdi,3
                  ;;; <@756,#630> add-i
0x177bccd74b9d  2749  83c710         addl rdi,0x10
                  ;;; <@758,#631> allocate
0x177bccd74ba0  2752  4d8b8d980a0000 REX.W movq r9,[r13+0xa98]
0x177bccd74ba7  2759  4c8bc7         REX.W movq r8,rdi
0x177bccd74baa  2762  4d03c1         REX.W addq r8,r9
0x177bccd74bad  2765  0f827c080000   jc 4943  (0x177bccd7542f)
0x177bccd74bb3  2771  4d3b85a00a0000 REX.W cmpq r8,[r13+0xaa0]
0x177bccd74bba  2778  0f876f080000   ja 4943  (0x177bccd7542f)
0x177bccd74bc0  2784  4d8985980a0000 REX.W movq [r13+0xa98],r8
0x177bccd74bc7  2791  4983c101       REX.W addq r9,0x1
                  ;;; <@760,#633> store-named-field
0x177bccd74bcb  2795  49ba2142c0134f1b0000 REX.W movq r10,0x1b4f13c04221    ;; object: 0x1b4f13c04221 <Map(elements=0)>
0x177bccd74bd5  2805  4d8951ff       REX.W movq [r9-0x1],r10
                  ;;; <@762,#634> store-named-field
0x177bccd74bd9  2809  49894107       REX.W movq [r9+0x7],rax
                  ;;; <@764,#636> load-named-field
0x177bccd74bdd  2813  418b410b       movl rax,[r9+0xb]
                  ;;; <@768,#642> -------------------- B55 (loop header) --------------------
                  ;;; <@771,#643> compare-numeric-and-branch
0x177bccd74be1  2817  3bc1           cmpl rax,rcx
0x177bccd74be3  2819  0f8e14000000   jle 2845  (0x177bccd74bfd)
                  ;;; <@772,#644> -------------------- B56 --------------------
                  ;;; <@774,#645> sub-i
0x177bccd74be9  2825  83e801         subl rax,0x1
                  ;;; <@776,#646> store-keyed
0x177bccd74bec  2828  49ba4141c0f5cb0e0000 REX.W movq r10,0xecbf5c04141    ;; object: 0xecbf5c04141 <the hole>
0x177bccd74bf6  2838  4d8954c10f     REX.W movq [r9+rax*8+0xf],r10
                  ;;; <@779,#648> goto
0x177bccd74bfb  2843  ebe4           jmp 2817  (0x177bccd74be1)
                  ;;; <@780,#653> -------------------- B57 --------------------
                  ;;; <@782,#654> gap
0x177bccd74bfd  2845  488bc1         REX.W movq rax,rcx
                  ;;; <@784,#655> -------------------- B58 (loop header) --------------------
                  ;;; <@787,#656> compare-numeric-and-branch
0x177bccd74c00  2848  83f800         cmpl rax,0x0
0x177bccd74c03  2851  0f8e0f000000   jle 2872  (0x177bccd74c18)
                  ;;; <@788,#657> -------------------- B59 --------------------
                  ;;; <@790,#658> sub-i
0x177bccd74c09  2857  83e801         subl rax,0x1
                  ;;; <@792,#659> load-keyed
0x177bccd74c0c  2860  488b7cc60f     REX.W movq rdi,[rsi+rax*8+0xf]
                  ;;; <@794,#660> store-keyed
0x177bccd74c11  2865  49897cc10f     REX.W movq [r9+rax*8+0xf],rdi
                  ;;; <@797,#662> goto
0x177bccd74c16  2870  ebe8           jmp 2848  (0x177bccd74c00)
                  ;;; <@798,#663> -------------------- B60 --------------------
                  ;;; <@799,#663> gap
0x177bccd74c18  2872  498bc1         REX.W movq rax,r9
                  ;;; <@800,#664> store-named-field
0x177bccd74c1b  2875  4889420f       REX.W movq [rdx+0xf],rax
0x177bccd74c1f  2879  488d720f       REX.W leaq rsi,[rdx+0xf]
0x177bccd74c23  2883  48c7c00000f0ff REX.W movq rax,0xfff00000
0x177bccd74c2a  2890  4823c2         REX.W andq rax,rdx
0x177bccd74c2d  2893  f6400808       testb [rax+0x8],0x8
0x177bccd74c31  2897  7405           jz 2904  (0x177bccd74c38)
0x177bccd74c33  2899  e8e8dfffff     call 0x177bccd72c20     ;; code: STUB, RecordWriteStub, minor: 9730
                  ;;; <@802,#667> gap
0x177bccd74c38  2904  498bf1         REX.W movq rsi,r9
                  ;;; <@804,#669> -------------------- B61 --------------------
                  ;;; <@806,#670> add-i
0x177bccd74c3b  2907  8d4101         leal rax,[rcx+0x1]
                  ;;; <@808,#958> smi-tag
0x177bccd74c3e  2910  8bf8           movl rdi,rax
0x177bccd74c40  2912  48c1e720       REX.W shlq rdi,32
                  ;;; <@810,#671> store-named-field
0x177bccd74c44  2916  48897a17       REX.W movq [rdx+0x17],rdi
                  ;;; <@814,#677> -------------------- B62 --------------------
                  ;;; <@816,#678> store-keyed
0x177bccd74c48  2920  48895cce0f     REX.W movq [rsi+rcx*8+0xf],rbx
0x177bccd74c4d  2925  488d4cce0f     REX.W leaq rcx,[rsi+rcx*8+0xf]
0x177bccd74c52  2930  f6c301         testb rbx,0x1
0x177bccd74c55  2933  0f8422000000   jz 2973  (0x177bccd74c7d)
0x177bccd74c5b  2939  4881e30000f0ff REX.W andq rbx,0xfffffffffff00000
0x177bccd74c62  2946  f6430804       testb [rbx+0x8],0x4
0x177bccd74c66  2950  7415           jz 2973  (0x177bccd74c7d)
0x177bccd74c68  2952  48c7c30000f0ff REX.W movq rbx,0xfff00000
0x177bccd74c6f  2959  4823de         REX.W andq rbx,rsi
0x177bccd74c72  2962  f6430808       testb [rbx+0x8],0x8
0x177bccd74c76  2966  7405           jz 2973  (0x177bccd74c7d)
0x177bccd74c78  2968  e8e3e9ffff     call 0x177bccd73660     ;; code: STUB, RecordWriteStub, minor: 8502
                  ;;; <@818,#680> load-global-cell
0x177bccd74c7d  2973  48a128066125ac0f0000 REX.W movq rax,(0xfac25610628)    ;; debug: position 1548
                                                             ;; property cell
                  ;;; <@820,#959> tagged-to-i
0x177bccd74c87  2983  a801           test al,0x1
0x177bccd74c89  2985  0f85f3070000   jnz 5026  (0x177bccd75482)
0x177bccd74c8f  2991  48c1e820       REX.W shrq rax,32
                  ;;; <@822,#681> add-i
0x177bccd74c93  2995  83c001         addl rax,0x1
0x177bccd74c96  2998  0f8081090000   jo 5437  (0x177bccd7561d)
                  ;;; <@824,#960> smi-tag
0x177bccd74c9c  3004  8bd8           movl rbx,rax
0x177bccd74c9e  3006  48c1e320       REX.W shlq rbx,32
                  ;;; <@826,#682> store-global-cell
0x177bccd74ca2  3010  49ba28066125ac0f0000 REX.W movq r10,0xfac25610628    ;; property cell
0x177bccd74cac  3020  49891a         REX.W movq [r10],rbx
                  ;;; <@828,#685> gap
0x177bccd74caf  3023  488b55d0       REX.W movq rdx,[rbp-0x30]
0x177bccd74cb3  3027  488b5dc0       REX.W movq rbx,[rbp-0x40]
0x177bccd74cb7  3031  f20f1055b8     movsd xmm2,[rbp-0x48]
0x177bccd74cbc  3036  f20f105db0     movsd xmm3,[rbp-0x50]
                  ;;; <@829,#685> goto
0x177bccd74cc1  3041  e9a2fcffff     jmp 2184  (0x177bccd74968)
                  ;;; <@830,#419> -------------------- B63 (unreachable/replaced) --------------------
                  ;;; <@834,#686> -------------------- B64 --------------------
                  ;;; <@836,#950> constant-t
0x177bccd74cc6  3046  33c0           xorl rax,rax            ;; debug: position 1474
                  ;;; <@838,#688> store-global-cell
0x177bccd74cc8  3048  49ba28066125ac0f0000 REX.W movq r10,0xfac25610628    ;; debug: position 1548
                                                             ;; property cell
0x177bccd74cd2  3058  498902         REX.W movq [r10],rax
                  ;;; <@840,#694> gap
0x177bccd74cd5  3061  f20f1055b8     movsd xmm2,[rbp-0x48]
0x177bccd74cda  3066  f20f105db0     movsd xmm3,[rbp-0x50]
                  ;;; <@842,#695> -------------------- B65 (loop header) --------------------
                  ;;; <@844,#696> load-global-cell
0x177bccd74cdf  3071  48a128066125ac0f0000 REX.W movq rax,(0xfac25610628)    ;; debug: position 1676
                                                             ;; property cell
                  ;;; <@846,#697> load-global-cell
0x177bccd74ce9  3081  48bbe8056125ac0f0000 REX.W movq rbx,0xfac256105e8    ;; property cell
0x177bccd74cf3  3091  488b1b         REX.W movq rbx,[rbx]
                  ;;; <@848,#698> check-non-smi
0x177bccd74cf6  3094  f6c301         testb rbx,0x1
0x177bccd74cf9  3097  0f8423090000   jz 5442  (0x177bccd75622)
                  ;;; <@850,#699> check-maps
0x177bccd74cff  3103  49bac9d5c0134f1b0000 REX.W movq r10,0x1b4f13c0d5c9    ;; object: 0x1b4f13c0d5c9 <Map(elements=2)>
0x177bccd74d09  3113  4c3953ff       REX.W cmpq [rbx-0x1],r10
0x177bccd74d0d  3117  0f8514090000   jnz 5447  (0x177bccd75627)
                  ;;; <@852,#700> load-named-field
0x177bccd74d13  3123  8b531b         movl rdx,[rbx+0x1b]
                  ;;; <@853,#700> gap
0x177bccd74d16  3126  488bc8         REX.W movq rcx,rax
                  ;;; <@854,#962> tagged-to-i
0x177bccd74d19  3129  f6c101         testb rcx,0x1
0x177bccd74d1c  3132  0f8591070000   jnz 5075  (0x177bccd754b3)
0x177bccd74d22  3138  48c1e920       REX.W shrq rcx,32
                  ;;; <@857,#701> compare-numeric-and-branch
0x177bccd74d26  3142  3bca           cmpl rcx,rdx
0x177bccd74d28  3144  0f8d8e010000   jge 3548  (0x177bccd74ebc)
                  ;;; <@858,#702> -------------------- B66 (unreachable/replaced) --------------------
                  ;;; <@862,#708> -------------------- B67 --------------------
                  ;;; <@864,#710> stack-check
0x177bccd74d2e  3150  493ba590070000 REX.W cmpq rsp,[r13+0x790]
0x177bccd74d35  3157  0f82a9070000   jc 5124  (0x177bccd754e4)
                  ;;; <@866,#438> constant-t
0x177bccd74d3b  3163  48b8296bc0a33f010000 REX.W movq rax,0x13fa3c06b29    ;; debug: position 1532
                                                             ;; object: 0x13fa3c06b29 <an Uint32Array with map 0x1b4f13c13719>
                  ;;; <@868,#727> load-named-field
0x177bccd74d45  3173  488b400f       REX.W movq rax,[rax+0xf]    ;; debug: position 1676
                  ;;; <@870,#728> load-named-field
0x177bccd74d49  3177  8b700b         movl rsi,[rax+0xb]
                  ;;; <@872,#729> load-named-field
0x177bccd74d4c  3180  488b400f       REX.W movq rax,[rax+0xf]
                  ;;; <@874,#730> bounds-check
0x177bccd74d50  3184  83fe00         cmpl rsi,0x0
0x177bccd74d53  3187  0f86d3080000   jna 5452  (0x177bccd7562c)
                  ;;; <@876,#776> bounds-check
0x177bccd74d59  3193  83fe01         cmpl rsi,0x1            ;; debug: position 2440
0x177bccd74d5c  3196  0f86cf080000   jna 5457  (0x177bccd75631)
                  ;;; <@878,#731> load-keyed
0x177bccd74d62  3202  8b30           movl rsi,[rax]          ;; debug: position 1676
                  ;;; <@879,#731> gap
0x177bccd74d64  3204  488bfe         REX.W movq rdi,rsi
                  ;;; <@880,#733> bit-i
0x177bccd74d67  3207  81e7ffff0000   andl rdi,0xffff         ;; debug: position 2412
                  ;;; <@882,#735> mul-i
0x177bccd74d6d  3213  69ff61470000   imull rdi,rdi,0x4761
                  ;;; <@884,#745> shift-i
0x177bccd74d73  3219  c1ee10         shrl rsi,16             ;; debug: position 2433
                  ;;; <@886,#747> add-i
0x177bccd74d76  3222  03f7           addl rsi,rdi            ;; debug: position 2420
                  ;;; <@888,#765> store-keyed
0x177bccd74d78  3224  8930           movl [rax],rsi          ;; debug: position 2440
                  ;;; <@890,#777> load-keyed
0x177bccd74d7a  3226  8b7804         movl rdi,[rax+0x4]
                  ;;; <@891,#777> gap
0x177bccd74d7d  3229  4c8bc7         REX.W movq r8,rdi
                  ;;; <@892,#779> bit-i
0x177bccd74d80  3232  4181e0ffff0000 andl r8,0xffff          ;; debug: position 2492
                  ;;; <@894,#781> mul-i
0x177bccd74d87  3239  4569c069900000 imull r8,r8,0x9069
                  ;;; <@896,#791> shift-i
0x177bccd74d8e  3246  c1ef10         shrl rdi,16             ;; debug: position 2513
                  ;;; <@898,#793> add-i
0x177bccd74d91  3249  4103f8         addl rdi,r8             ;; debug: position 2500
                  ;;; <@900,#811> store-keyed
0x177bccd74d94  3252  897804         movl [rax+0x4],rdi      ;; debug: position 2520
                  ;;; <@902,#815> shift-i
0x177bccd74d97  3255  c1e610         shll rsi,16             ;; debug: position 2548
                  ;;; <@904,#819> bit-i
0x177bccd74d9a  3258  81e7ffff0000   andl rdi,0xffff         ;; debug: position 2556
                  ;;; <@906,#821> add-i
0x177bccd74da0  3264  03fe           addl rdi,rsi            ;; debug: position 2553
                  ;;; <@909,#829> compare-numeric-and-branch
0x177bccd74da2  3266  83ff00         cmpl rdi,0x0            ;; debug: position 2577
0x177bccd74da5  3269  0f8c0c000000   jl 3287  (0x177bccd74db7)
                  ;;; <@910,#833> -------------------- B68 (unreachable/replaced) --------------------
                  ;;; <@914,#841> -------------------- B69 --------------------
                  ;;; <@916,#963> int32-to-double
0x177bccd74dab  3275  0f57c9         xorps xmm1,xmm1         ;; debug: position 2582
0x177bccd74dae  3278  f20f2acf       cvtsi2sd xmm1,rdi
                  ;;; <@919,#846> goto
0x177bccd74db2  3282  e90b000000     jmp 3298  (0x177bccd74dc2)
                  ;;; <@920,#830> -------------------- B70 (unreachable/replaced) --------------------
                  ;;; <@924,#836> -------------------- B71 --------------------
                  ;;; <@926,#964> int32-to-double
0x177bccd74db7  3287  0f57c9         xorps xmm1,xmm1         ;; debug: position 2577
                                                             ;; debug: position 2582
0x177bccd74dba  3290  f20f2acf       cvtsi2sd xmm1,rdi
                  ;;; <@928,#839> add-d
0x177bccd74dbe  3294  f20f58ca       addsd xmm1,xmm2
                  ;;; <@932,#848> -------------------- B72 --------------------
                  ;;; <@934,#850> mul-d
0x177bccd74dc2  3298  f20f59cb       mulsd xmm1,xmm3         ;; debug: position 2598
                  ;;; <@938,#855> -------------------- B73 --------------------
                  ;;; <@940,#571> constant-t
0x177bccd74dc6  3302  48b8d9fac6f5cb0e0000 REX.W movq rax,0xecbf5c6fad9    ;; object: 0xecbf5c6fad9 <JS Array[50000]>
                  ;;; <@942,#857> check-maps
0x177bccd74dd0  3312  49bac9d5c0134f1b0000 REX.W movq r10,0x1b4f13c0d5c9    ;; object: 0x1b4f13c0d5c9 <Map(elements=2)>
0x177bccd74dda  3322  4c3950ff       REX.W cmpq [rax-0x1],r10
0x177bccd74dde  3326  0f8552080000   jnz 5462  (0x177bccd75636)
                  ;;; <@944,#571> constant-t
0x177bccd74de4  3332  48b8d9fac6f5cb0e0000 REX.W movq rax,0xecbf5c6fad9    ;; object: 0xecbf5c6fad9 <JS Array[50000]>
                  ;;; <@946,#858> load-named-field
0x177bccd74dee  3342  8b401b         movl rax,[rax+0x1b]
                  ;;; <@948,#860> add-i
0x177bccd74df1  3345  83c001         addl rax,0x1            ;; debug: position 1751
0x177bccd74df4  3348  0f8041080000   jo 5467  (0x177bccd7563b)
                  ;;; <@950,#965> int32-to-double
0x177bccd74dfa  3354  0f57e4         xorps xmm4,xmm4         ;; debug: position 1735
0x177bccd74dfd  3357  f20f2ae0       cvtsi2sd xmm4,rax
                  ;;; <@952,#862> mul-d
0x177bccd74e01  3361  f20f59e1       mulsd xmm4,xmm1
                  ;;; <@954,#864> math-floor
0x177bccd74e05  3365  66480f7ee6     REX.W movq rsi,xmm4
0x177bccd74e0a  3370  4883ee01       REX.W subq rsi,0x1
0x177bccd74e0e  3374  0f802c080000   jo 5472  (0x177bccd75640)
0x177bccd74e14  3380  660f3a0bc409   roundsd xmm0,xmm4,1
0x177bccd74e1a  3386  f20f2cf0       cvttsd2sil rsi,xmm0
0x177bccd74e1e  3390  83fe01         cmpl rsi,0x1
0x177bccd74e21  3393  0f8019080000   jo 5472  (0x177bccd75640)
                  ;;; <@956,#966> smi-tag
0x177bccd74e27  3399  8bc6           movl rax,rsi
0x177bccd74e29  3401  48c1e020       REX.W shlq rax,32
                  ;;; <@958,#865> store-global-cell
0x177bccd74e2d  3405  49baa8066125ac0f0000 REX.W movq r10,0xfac256106a8    ;; property cell
0x177bccd74e37  3415  498902         REX.W movq [r10],rax
                  ;;; <@960,#872> load-global-cell
0x177bccd74e3a  3418  48a1a8066125ac0f0000 REX.W movq rax,(0xfac256106a8)    ;; property cell
                  ;;; <@962,#878> load-named-field
0x177bccd74e44  3428  488b5b0f       REX.W movq rbx,[rbx+0xf]
                  ;;; <@964,#880> bounds-check
0x177bccd74e48  3432  3bd1           cmpl rdx,rcx
0x177bccd74e4a  3434  0f86f5070000   jna 5477  (0x177bccd75645)
                  ;;; <@966,#881> load-keyed
0x177bccd74e50  3440  488b5ccb0f     REX.W movq rbx,[rbx+rcx*8+0xf]
                  ;;; <@968,#883> push-argument
0x177bccd74e55  3445  49bad9fac6f5cb0e0000 REX.W movq r10,0xecbf5c6fad9    ;; object: 0xecbf5c6fad9 <JS Array[50000]>
0x177bccd74e5f  3455  4152           push r10
                  ;;; <@970,#883> push-argument
0x177bccd74e61  3457  50             push rax
                  ;;; <@972,#883> push-argument
0x177bccd74e62  3458  6a00           push 0x0
                  ;;; <@974,#883> push-argument
0x177bccd74e64  3460  53             push rbx
                  ;;; <@976,#592> constant-t
0x177bccd74e65  3461  48bf5938c5f5cb0e0000 REX.W movq rdi,0xecbf5c53859    ;; debug: position 1591
                                                             ;; object: 0xecbf5c53859 <JS Function splice (SharedFunctionInfo 0xecbf5c3c249)>
                  ;;; <@978,#884> call-js-function
0x177bccd74e6f  3471  b803000000     movl rax,0x3            ;; debug: position 1735
0x177bccd74e74  3476  488b772f       REX.W movq rsi,[rdi+0x2f]
0x177bccd74e78  3480  ff5717         call [rdi+0x17]
                  ;;; <@980,#885> lazy-bailout
                  ;;; <@982,#886> load-global-cell
0x177bccd74e7b  3483  48a128066125ac0f0000 REX.W movq rax,(0xfac25610628)    ;; debug: position 1692
                                                             ;; property cell
                  ;;; <@984,#969> tagged-to-i
0x177bccd74e85  3493  a801           test al,0x1
0x177bccd74e87  3495  0f8598060000   jnz 5189  (0x177bccd75525)
0x177bccd74e8d  3501  48c1e820       REX.W shrq rax,32
                  ;;; <@986,#887> add-i
0x177bccd74e91  3505  83c001         addl rax,0x1
0x177bccd74e94  3508  0f80b0070000   jo 5482  (0x177bccd7564a)
                  ;;; <@988,#970> smi-tag
0x177bccd74e9a  3514  8bd8           movl rbx,rax
0x177bccd74e9c  3516  48c1e320       REX.W shlq rbx,32
                  ;;; <@990,#888> store-global-cell
0x177bccd74ea0  3520  49ba28066125ac0f0000 REX.W movq r10,0xfac25610628    ;; property cell
0x177bccd74eaa  3530  49891a         REX.W movq [r10],rbx
                  ;;; <@992,#891> gap
0x177bccd74ead  3533  f20f1055b8     movsd xmm2,[rbp-0x48]
0x177bccd74eb2  3538  f20f105db0     movsd xmm3,[rbp-0x50]
                  ;;; <@993,#891> goto
0x177bccd74eb7  3543  e923feffff     jmp 3071  (0x177bccd74cdf)
                  ;;; <@994,#705> -------------------- B74 (unreachable/replaced) --------------------
                  ;;; <@998,#892> -------------------- B75 --------------------
                  ;;; <@1000,#893> load-global-cell
0x177bccd74ebc  3548  48a188066125ac0f0000 REX.W movq rax,(0xfac25610688)    ;; property cell
                  ;;; <@1002,#894> store-global-cell
0x177bccd74ec6  3558  49bae8056125ac0f0000 REX.W movq r10,0xfac256105e8    ;; property cell
0x177bccd74ed0  3568  498902         REX.W movq [r10],rax
                  ;;; <@1004,#902> push-argument
0x177bccd74ed3  3571  49ba2103c6f5cb0e0000 REX.W movq r10,0xecbf5c60321    ;; object: 0xecbf5c60321 <JS Global Object>
0x177bccd74edd  3581  4152           push r10
                  ;;; <@1006,#902> push-argument
0x177bccd74edf  3583  49ba69c3c0a33f010000 REX.W movq r10,0x13fa3c0c369    ;; object: 0x13fa3c0c369 <JS Array[50000]>
0x177bccd74ee9  3593  4152           push r10
                  ;;; <@1008,#902> push-argument
0x177bccd74eeb  3595  49bad9fac6f5cb0e0000 REX.W movq r10,0xecbf5c6fad9    ;; object: 0xecbf5c6fad9 <JS Array[50000]>
0x177bccd74ef5  3605  4152           push r10
                  ;;; <@1010,#902> push-argument
0x177bccd74ef7  3607  49bae921c6f5cb0e0000 REX.W movq r10,0xecbf5c621e9    ;; object: 0xecbf5c621e9 <JS Function ident (SharedFunctionInfo 0xecbf5c61ca9)>
0x177bccd74f01  3617  4152           push r10
                  ;;; <@1012,#896> constant-t
0x177bccd74f03  3619  48bfa121c6f5cb0e0000 REX.W movq rdi,0xecbf5c621a1    ;; object: 0xecbf5c621a1 <JS Function syncMap (SharedFunctionInfo 0xecbf5c61c19)>
                  ;;; <@1014,#904> call-js-function
0x177bccd74f0d  3629  488b772f       REX.W movq rsi,[rdi+0x2f]
0x177bccd74f11  3633  ff5717         call [rdi+0x17]
                  ;;; <@1016,#905> lazy-bailout
                  ;;; <@1018,#907> load-global-cell
0x177bccd74f14  3636  48bb68066125ac0f0000 REX.W movq rbx,0xfac25610668    ;; debug: position 1485
                                                             ;; property cell
0x177bccd74f1e  3646  488b1b         REX.W movq rbx,[rbx]
                  ;;; <@1020,#971> tagged-to-i
0x177bccd74f21  3649  f6c301         testb rbx,0x1
0x177bccd74f24  3652  0f852c060000   jnz 5238  (0x177bccd75556)
0x177bccd74f2a  3658  48c1eb20       REX.W shrq rbx,32
                  ;;; <@1022,#908> add-i
0x177bccd74f2e  3662  83c301         addl rbx,0x1
0x177bccd74f31  3665  0f8018070000   jo 5487  (0x177bccd7564f)
                  ;;; <@1024,#972> smi-tag
0x177bccd74f37  3671  8bd3           movl rdx,rbx
0x177bccd74f39  3673  48c1e220       REX.W shlq rdx,32
                  ;;; <@1026,#909> store-global-cell
0x177bccd74f3d  3677  49ba68066125ac0f0000 REX.W movq r10,0xfac25610668    ;; property cell
0x177bccd74f47  3687  498912         REX.W movq [r10],rdx
                  ;;; <@1028,#912> gap
0x177bccd74f4a  3690  488b55d0       REX.W movq rdx,[rbp-0x30]
0x177bccd74f4e  3694  488b5dc0       REX.W movq rbx,[rbp-0x40]
0x177bccd74f52  3698  f20f1055b8     movsd xmm2,[rbp-0x48]
0x177bccd74f57  3703  f20f105db0     movsd xmm3,[rbp-0x50]
                  ;;; <@1029,#912> goto
0x177bccd74f5c  3708  e96cf9ffff     jmp 2029  (0x177bccd748cd)
                  ;;; <@1030,#380> -------------------- B76 (unreachable/replaced) --------------------
                  ;;; <@1034,#913> -------------------- B77 --------------------
                  ;;; <@1036,#916> return
0x177bccd74f61  3713  488be5         REX.W movq rsp,rbp
0x177bccd74f64  3716  5d             pop rbp
0x177bccd74f65  3717  c20800         ret 0x8
                  ;;; <@38,#26> -------------------- Deferred allocate --------------------
0x177bccd74f68  3720  33db           xorl rbx,rbx
0x177bccd74f6a  3722  50             push rax
0x177bccd74f6b  3723  51             push rcx
0x177bccd74f6c  3724  52             push rdx
0x177bccd74f6d  3725  53             push rbx
0x177bccd74f6e  3726  56             push rsi
0x177bccd74f6f  3727  57             push rdi
0x177bccd74f70  3728  4150           push r8
0x177bccd74f72  3730  4151           push r9
0x177bccd74f74  3732  4153           push r11
0x177bccd74f76  3734  4156           push r14
0x177bccd74f78  3736  4157           push r15
0x177bccd74f7a  3738  488d6424d8     REX.W leaq rsp,[rsp-0x28]
0x177bccd74f7f  3743  49ba0000000020000000 REX.W movq r10,0x2000000000
0x177bccd74f89  3753  4152           push r10
0x177bccd74f8b  3755  6a00           push 0x0
0x177bccd74f8d  3757  488b75e0       REX.W movq rsi,[rbp-0x20]
0x177bccd74f91  3761  b802000000     movl rax,0x2
0x177bccd74f96  3766  498d9d78e4e4fd REX.W leaq rbx,[r13-0x21b1b88]
0x177bccd74f9d  3773  e8fe12f9ff     call 0x177bccd062a0     ;; code: STUB, CEntryStub, minor: 1
0x177bccd74fa2  3778  4889442460     REX.W movq [rsp+0x60],rax
0x177bccd74fa7  3783  488d642428     REX.W leaq rsp,[rsp+0x28]
0x177bccd74fac  3788  415f           pop r15
0x177bccd74fae  3790  415e           pop r14
0x177bccd74fb0  3792  415b           pop r11
0x177bccd74fb2  3794  4159           pop r9
0x177bccd74fb4  3796  4158           pop r8
0x177bccd74fb6  3798  5f             pop rdi
0x177bccd74fb7  3799  5e             pop rsi
0x177bccd74fb8  3800  5b             pop rbx
0x177bccd74fb9  3801  5a             pop rdx
0x177bccd74fba  3802  59             pop rcx
0x177bccd74fbb  3803  58             pop rax
0x177bccd74fbc  3804  e9e4f1ffff     jmp 197  (0x177bccd741a5)
                  ;;; <@58,#44> -------------------- Deferred allocate --------------------
0x177bccd74fc1  3809  33db           xorl rbx,rbx
0x177bccd74fc3  3811  50             push rax
0x177bccd74fc4  3812  51             push rcx
0x177bccd74fc5  3813  52             push rdx
0x177bccd74fc6  3814  53             push rbx
0x177bccd74fc7  3815  56             push rsi
0x177bccd74fc8  3816  57             push rdi
0x177bccd74fc9  3817  4150           push r8
0x177bccd74fcb  3819  4151           push r9
0x177bccd74fcd  3821  4153           push r11
0x177bccd74fcf  3823  4156           push r14
0x177bccd74fd1  3825  4157           push r15
0x177bccd74fd3  3827  488d6424d8     REX.W leaq rsp,[rsp-0x28]
0x177bccd74fd8  3832  49ba0000000020000000 REX.W movq r10,0x2000000000
0x177bccd74fe2  3842  4152           push r10
0x177bccd74fe4  3844  6a00           push 0x0
0x177bccd74fe6  3846  488b75e0       REX.W movq rsi,[rbp-0x20]
0x177bccd74fea  3850  b802000000     movl rax,0x2
0x177bccd74fef  3855  498d9d78e4e4fd REX.W leaq rbx,[r13-0x21b1b88]
0x177bccd74ff6  3862  e8a512f9ff     call 0x177bccd062a0     ;; code: STUB, CEntryStub, minor: 1
0x177bccd74ffb  3867  4889442460     REX.W movq [rsp+0x60],rax
0x177bccd75000  3872  488d642428     REX.W leaq rsp,[rsp+0x28]
0x177bccd75005  3877  415f           pop r15
0x177bccd75007  3879  415e           pop r14
0x177bccd75009  3881  415b           pop r11
0x177bccd7500b  3883  4159           pop r9
0x177bccd7500d  3885  4158           pop r8
0x177bccd7500f  3887  5f             pop rdi
0x177bccd75010  3888  5e             pop rsi
0x177bccd75011  3889  5b             pop rbx
0x177bccd75012  3890  5a             pop rdx
0x177bccd75013  3891  59             pop rcx
0x177bccd75014  3892  58             pop rax
0x177bccd75015  3893  e90bf2ffff     jmp 325  (0x177bccd74225)
                  ;;; <@78,#62> -------------------- Deferred allocate --------------------
0x177bccd7501a  3898  33db           xorl rbx,rbx
0x177bccd7501c  3900  50             push rax
0x177bccd7501d  3901  51             push rcx
0x177bccd7501e  3902  52             push rdx
0x177bccd7501f  3903  53             push rbx
0x177bccd75020  3904  56             push rsi
0x177bccd75021  3905  57             push rdi
0x177bccd75022  3906  4150           push r8
0x177bccd75024  3908  4151           push r9
0x177bccd75026  3910  4153           push r11
0x177bccd75028  3912  4156           push r14
0x177bccd7502a  3914  4157           push r15
0x177bccd7502c  3916  488d6424d8     REX.W leaq rsp,[rsp-0x28]
0x177bccd75031  3921  49ba0000000020000000 REX.W movq r10,0x2000000000
0x177bccd7503b  3931  4152           push r10
0x177bccd7503d  3933  6a00           push 0x0
0x177bccd7503f  3935  488b75e0       REX.W movq rsi,[rbp-0x20]
0x177bccd75043  3939  b802000000     movl rax,0x2
0x177bccd75048  3944  498d9d78e4e4fd REX.W leaq rbx,[r13-0x21b1b88]
0x177bccd7504f  3951  e84c12f9ff     call 0x177bccd062a0     ;; code: STUB, CEntryStub, minor: 1
0x177bccd75054  3956  4889442460     REX.W movq [rsp+0x60],rax
0x177bccd75059  3961  488d642428     REX.W leaq rsp,[rsp+0x28]
0x177bccd7505e  3966  415f           pop r15
0x177bccd75060  3968  415e           pop r14
0x177bccd75062  3970  415b           pop r11
0x177bccd75064  3972  4159           pop r9
0x177bccd75066  3974  4158           pop r8
0x177bccd75068  3976  5f             pop rdi
0x177bccd75069  3977  5e             pop rsi
0x177bccd7506a  3978  5b             pop rbx
0x177bccd7506b  3979  5a             pop rdx
0x177bccd7506c  3980  59             pop rcx
0x177bccd7506d  3981  58             pop rax
0x177bccd7506e  3982  e932f2ffff     jmp 453  (0x177bccd742a5)
                  ;;; <@112,#928> -------------------- Deferred tagged-to-i --------------------
0x177bccd75073  3987  4d8b5500       REX.W movq r10,[r13+0x0]    ;; debug: position 1273
0x177bccd75077  3991  4c3950ff       REX.W cmpq [rax-0x1],r10
0x177bccd7507b  3995  751d           jnz 4026  (0x177bccd7509a)
0x177bccd7507d  3997  f20f104007     movsd xmm0,[rax+0x7]
0x177bccd75082  4002  f20f2cc0       cvttsd2sil rax,xmm0
0x177bccd75086  4006  0f57c9         xorps xmm1,xmm1
0x177bccd75089  4009  f20f2ac8       cvtsi2sd xmm1,rax
0x177bccd7508d  4013  660f2ec1       ucomisd xmm0,xmm1
                  Deferred TaggedToI: lost precision
0x177bccd75091  4017  7507           jnz 4026  (0x177bccd7509a)
                  Deferred TaggedToI: NaN
0x177bccd75093  4019  7a05           jpe 4026  (0x177bccd7509a)
0x177bccd75095  4021  e985f2ffff     jmp 575  (0x177bccd7431f)
0x177bccd7509a  4026  e8b911c9ff     call 0x177bcca06258     ;; deoptimization bailout 60
0x177bccd7509f  4031  e97bf2ffff     jmp 575  (0x177bccd7431f)
                  ;;; <@122,#97> -------------------- Deferred stack-check --------------------
0x177bccd750a4  4036  50             push rax
0x177bccd750a5  4037  51             push rcx
0x177bccd750a6  4038  52             push rdx
0x177bccd750a7  4039  53             push rbx
0x177bccd750a8  4040  56             push rsi
0x177bccd750a9  4041  57             push rdi
0x177bccd750aa  4042  4150           push r8
0x177bccd750ac  4044  4151           push r9
0x177bccd750ae  4046  4153           push r11
0x177bccd750b0  4048  4156           push r14
0x177bccd750b2  4050  4157           push r15
0x177bccd750b4  4052  488d6424d8     REX.W leaq rsp,[rsp-0x28]
0x177bccd750b9  4057  488b75f8       REX.W movq rsi,[rbp-0x8]
0x177bccd750bd  4061  33c0           xorl rax,rax
0x177bccd750bf  4063  498d9d58bce4fd REX.W leaq rbx,[r13-0x21b43a8]
0x177bccd750c6  4070  e8d511f9ff     call 0x177bccd062a0     ;; code: STUB, CEntryStub, minor: 1
0x177bccd750cb  4075  488d642428     REX.W leaq rsp,[rsp+0x28]
0x177bccd750d0  4080  415f           pop r15
0x177bccd750d2  4082  415e           pop r14
0x177bccd750d4  4084  415b           pop r11
0x177bccd750d6  4086  4159           pop r9
0x177bccd750d8  4088  4158           pop r8
0x177bccd750da  4090  5f             pop rdi
0x177bccd750db  4091  5e             pop rsi
0x177bccd750dc  4092  5b             pop rbx
0x177bccd750dd  4093  5a             pop rdx
0x177bccd750de  4094  59             pop rcx
0x177bccd750df  4095  58             pop rax
0x177bccd750e0  4096  e952f2ffff     jmp 599  (0x177bccd74337)
                  ;;; <@130,#929> -------------------- Deferred tagged-to-i --------------------
0x177bccd750e5  4101  4d8b5500       REX.W movq r10,[r13+0x0]    ;; debug: position 1320
0x177bccd750e9  4105  4c3950ff       REX.W cmpq [rax-0x1],r10
0x177bccd750ed  4109  752a           jnz 4153  (0x177bccd75119)
0x177bccd750ef  4111  f20f104007     movsd xmm0,[rax+0x7]
0x177bccd750f4  4116  f20f2cc0       cvttsd2sil rax,xmm0
0x177bccd750f8  4120  0f57c9         xorps xmm1,xmm1
0x177bccd750fb  4123  f20f2ac8       cvtsi2sd xmm1,rax
0x177bccd750ff  4127  660f2ec1       ucomisd xmm0,xmm1
                  Deferred TaggedToI: lost precision
0x177bccd75103  4131  7514           jnz 4153  (0x177bccd75119)
                  Deferred TaggedToI: NaN
0x177bccd75105  4133  7a12           jpe 4153  (0x177bccd75119)
0x177bccd75107  4135  85c0           testl rax,rax
0x177bccd75109  4137  7509           jnz 4148  (0x177bccd75114)
0x177bccd7510b  4139  660f50c0       movmskpd rax,xmm0
0x177bccd7510f  4143  83e001         andl rax,0x1
0x177bccd75112  4146  7505           jnz 4153  (0x177bccd75119)
0x177bccd75114  4148  e952f2ffff     jmp 651  (0x177bccd7436b)
0x177bccd75119  4153  e84411c9ff     call 0x177bcca06262     ;; deoptimization bailout 61
0x177bccd7511e  4158  e948f2ffff     jmp 651  (0x177bccd7436b)
                  ;;; <@200,#141> -------------------- Deferred allocate --------------------
0x177bccd75123  4163  4533c0         xorl r8,r8
0x177bccd75126  4166  50             push rax
0x177bccd75127  4167  51             push rcx
0x177bccd75128  4168  52             push rdx
0x177bccd75129  4169  53             push rbx
0x177bccd7512a  4170  56             push rsi
0x177bccd7512b  4171  57             push rdi
0x177bccd7512c  4172  4150           push r8
0x177bccd7512e  4174  4151           push r9
0x177bccd75130  4176  4153           push r11
0x177bccd75132  4178  4156           push r14
0x177bccd75134  4180  4157           push r15
0x177bccd75136  4182  488d6424d8     REX.W leaq rsp,[rsp-0x28]
0x177bccd7513b  4187  48c1e120       REX.W shlq rcx,32
0x177bccd7513f  4191  51             push rcx
0x177bccd75140  4192  6a00           push 0x0
0x177bccd75142  4194  488b75e0       REX.W movq rsi,[rbp-0x20]
0x177bccd75146  4198  b802000000     movl rax,0x2
0x177bccd7514b  4203  498d9d78e4e4fd REX.W leaq rbx,[r13-0x21b1b88]
0x177bccd75152  4210  e84911f9ff     call 0x177bccd062a0     ;; code: STUB, CEntryStub, minor: 1
0x177bccd75157  4215  4889442448     REX.W movq [rsp+0x48],rax
0x177bccd7515c  4220  488d642428     REX.W leaq rsp,[rsp+0x28]
0x177bccd75161  4225  415f           pop r15
0x177bccd75163  4227  415e           pop r14
0x177bccd75165  4229  415b           pop r11
0x177bccd75167  4231  4159           pop r9
0x177bccd75169  4233  4158           pop r8
0x177bccd7516b  4235  5f             pop rdi
0x177bccd7516c  4236  5e             pop rsi
0x177bccd7516d  4237  5b             pop rbx
0x177bccd7516e  4238  5a             pop rdx
0x177bccd7516f  4239  59             pop rcx
0x177bccd75170  4240  58             pop rax
0x177bccd75171  4241  e9e9f2ffff     jmp 895  (0x177bccd7445f)
                  ;;; <@266,#934> -------------------- Deferred tagged-to-i --------------------
0x177bccd75176  4246  4d8b5500       REX.W movq r10,[r13+0x0]    ;; debug: position 1283
0x177bccd7517a  4250  4c3950ff       REX.W cmpq [rax-0x1],r10
0x177bccd7517e  4254  751d           jnz 4285  (0x177bccd7519d)
0x177bccd75180  4256  f20f104007     movsd xmm0,[rax+0x7]
0x177bccd75185  4261  f20f2cc0       cvttsd2sil rax,xmm0
0x177bccd75189  4265  0f57c9         xorps xmm1,xmm1
0x177bccd7518c  4268  f20f2ac8       cvtsi2sd xmm1,rax
0x177bccd75190  4272  660f2ec1       ucomisd xmm0,xmm1
                  Deferred TaggedToI: lost precision
0x177bccd75194  4276  7507           jnz 4285  (0x177bccd7519d)
                  Deferred TaggedToI: NaN
0x177bccd75196  4278  7a05           jpe 4285  (0x177bccd7519d)
0x177bccd75198  4280  e9a1f3ffff     jmp 1118  (0x177bccd7453e)
0x177bccd7519d  4285  e8ca10c9ff     call 0x177bcca0626c     ;; deoptimization bailout 62
0x177bccd751a2  4290  e997f3ffff     jmp 1118  (0x177bccd7453e)
                  ;;; <@292,#937> -------------------- Deferred tagged-to-i --------------------
0x177bccd751a7  4295  4d8b5500       REX.W movq r10,[r13+0x0]    ;; debug: position 1347
0x177bccd751ab  4299  4c3950ff       REX.W cmpq [rax-0x1],r10
0x177bccd751af  4303  751d           jnz 4334  (0x177bccd751ce)
0x177bccd751b1  4305  f20f104007     movsd xmm0,[rax+0x7]
0x177bccd751b6  4310  f20f2cc0       cvttsd2sil rax,xmm0
0x177bccd751ba  4314  0f57c9         xorps xmm1,xmm1
0x177bccd751bd  4317  f20f2ac8       cvtsi2sd xmm1,rax
0x177bccd751c1  4321  660f2ec1       ucomisd xmm0,xmm1
                  Deferred TaggedToI: lost precision
0x177bccd751c5  4325  7507           jnz 4334  (0x177bccd751ce)
                  Deferred TaggedToI: NaN
0x177bccd751c7  4327  7a05           jpe 4334  (0x177bccd751ce)
0x177bccd751c9  4329  e9b6f3ffff     jmp 1188  (0x177bccd74584)
0x177bccd751ce  4334  e8a310c9ff     call 0x177bcca06276     ;; deoptimization bailout 63
0x177bccd751d3  4339  e9acf3ffff     jmp 1188  (0x177bccd74584)
                  ;;; <@302,#218> -------------------- Deferred stack-check --------------------
0x177bccd751d8  4344  50             push rax
0x177bccd751d9  4345  51             push rcx
0x177bccd751da  4346  52             push rdx
0x177bccd751db  4347  53             push rbx
0x177bccd751dc  4348  56             push rsi
0x177bccd751dd  4349  57             push rdi
0x177bccd751de  4350  4150           push r8
0x177bccd751e0  4352  4151           push r9
0x177bccd751e2  4354  4153           push r11
0x177bccd751e4  4356  4156           push r14
0x177bccd751e6  4358  4157           push r15
0x177bccd751e8  4360  488d6424d8     REX.W leaq rsp,[rsp-0x28]
0x177bccd751ed  4365  488b75f8       REX.W movq rsi,[rbp-0x8]
0x177bccd751f1  4369  33c0           xorl rax,rax
0x177bccd751f3  4371  498d9d58bce4fd REX.W leaq rbx,[r13-0x21b43a8]
0x177bccd751fa  4378  e8a110f9ff     call 0x177bccd062a0     ;; code: STUB, CEntryStub, minor: 1
0x177bccd751ff  4383  488d642428     REX.W leaq rsp,[rsp+0x28]
0x177bccd75204  4388  415f           pop r15
0x177bccd75206  4390  415e           pop r14
0x177bccd75208  4392  415b           pop r11
0x177bccd7520a  4394  4159           pop r9
0x177bccd7520c  4396  4158           pop r8
0x177bccd7520e  4398  5f             pop rdi
0x177bccd7520f  4399  5e             pop rsi
0x177bccd75210  4400  5b             pop rbx
0x177bccd75211  4401  5a             pop rdx
0x177bccd75212  4402  59             pop rcx
0x177bccd75213  4403  58             pop rax
0x177bccd75214  4404  e983f3ffff     jmp 1212  (0x177bccd7459c)
                  ;;; <@312,#938> -------------------- Deferred tagged-to-i --------------------
0x177bccd75219  4409  4d8b5500       REX.W movq r10,[r13+0x0]    ;; debug: position 1391
0x177bccd7521d  4413  4c3953ff       REX.W cmpq [rbx-0x1],r10
0x177bccd75221  4417  752a           jnz 4461  (0x177bccd7524d)
0x177bccd75223  4419  f20f104307     movsd xmm0,[rbx+0x7]
0x177bccd75228  4424  f20f2cd8       cvttsd2sil rbx,xmm0
0x177bccd7522c  4428  0f57c9         xorps xmm1,xmm1
0x177bccd7522f  4431  f20f2acb       cvtsi2sd xmm1,rbx
0x177bccd75233  4435  660f2ec1       ucomisd xmm0,xmm1
                  Deferred TaggedToI: lost precision
0x177bccd75237  4439  7514           jnz 4461  (0x177bccd7524d)
                  Deferred TaggedToI: NaN
0x177bccd75239  4441  7a12           jpe 4461  (0x177bccd7524d)
0x177bccd7523b  4443  85db           testl rbx,rbx
0x177bccd7523d  4445  7509           jnz 4456  (0x177bccd75248)
0x177bccd7523f  4447  660f50d8       movmskpd rbx,xmm0
0x177bccd75243  4451  83e301         andl rbx,0x1
0x177bccd75246  4454  7505           jnz 4461  (0x177bccd7524d)
0x177bccd75248  4456  e993f3ffff     jmp 1280  (0x177bccd745e0)
0x177bccd7524d  4461  e82e10c9ff     call 0x177bcca06280     ;; deoptimization bailout 64
0x177bccd75252  4466  e989f3ffff     jmp 1280  (0x177bccd745e0)
                  ;;; <@378,#262> -------------------- Deferred allocate --------------------
0x177bccd75257  4471  4533c9         xorl r9,r9
0x177bccd7525a  4474  50             push rax
0x177bccd7525b  4475  51             push rcx
0x177bccd7525c  4476  52             push rdx
0x177bccd7525d  4477  53             push rbx
0x177bccd7525e  4478  56             push rsi
0x177bccd7525f  4479  57             push rdi
0x177bccd75260  4480  4150           push r8
0x177bccd75262  4482  4151           push r9
0x177bccd75264  4484  4153           push r11
0x177bccd75266  4486  4156           push r14
0x177bccd75268  4488  4157           push r15
0x177bccd7526a  4490  488d6424d8     REX.W leaq rsp,[rsp-0x28]
0x177bccd7526f  4495  48c1e620       REX.W shlq rsi,32
0x177bccd75273  4499  56             push rsi
0x177bccd75274  4500  6a00           push 0x0
0x177bccd75276  4502  488b75e0       REX.W movq rsi,[rbp-0x20]
0x177bccd7527a  4506  b802000000     movl rax,0x2
0x177bccd7527f  4511  498d9d78e4e4fd REX.W leaq rbx,[r13-0x21b1b88]
0x177bccd75286  4518  e81510f9ff     call 0x177bccd062a0     ;; code: STUB, CEntryStub, minor: 1
0x177bccd7528b  4523  4889442440     REX.W movq [rsp+0x40],rax
0x177bccd75290  4528  488d642428     REX.W leaq rsp,[rsp+0x28]
0x177bccd75295  4533  415f           pop r15
0x177bccd75297  4535  415e           pop r14
0x177bccd75299  4537  415b           pop r11
0x177bccd7529b  4539  4159           pop r9
0x177bccd7529d  4541  4158           pop r8
0x177bccd7529f  4543  5f             pop rdi
0x177bccd752a0  4544  5e             pop rsi
0x177bccd752a1  4545  5b             pop rbx
0x177bccd752a2  4546  5a             pop rdx
0x177bccd752a3  4547  59             pop rcx
0x177bccd752a4  4548  58             pop rax
0x177bccd752a5  4549  e90ff4ffff     jmp 1497  (0x177bccd746b9)
                  ;;; <@440,#943> -------------------- Deferred tagged-to-i --------------------
0x177bccd752aa  4554  4d8b5500       REX.W movq r10,[r13+0x0]    ;; debug: position 1356
0x177bccd752ae  4558  4c3950ff       REX.W cmpq [rax-0x1],r10
0x177bccd752b2  4562  751d           jnz 4593  (0x177bccd752d1)
0x177bccd752b4  4564  f20f104007     movsd xmm0,[rax+0x7]
0x177bccd752b9  4569  f20f2cc0       cvttsd2sil rax,xmm0
0x177bccd752bd  4573  0f57c9         xorps xmm1,xmm1
0x177bccd752c0  4576  f20f2ac8       cvtsi2sd xmm1,rax
0x177bccd752c4  4580  660f2ec1       ucomisd xmm0,xmm1
                  Deferred TaggedToI: lost precision
0x177bccd752c8  4584  7507           jnz 4593  (0x177bccd752d1)
                  Deferred TaggedToI: NaN
0x177bccd752ca  4586  7a05           jpe 4593  (0x177bccd752d1)
0x177bccd752cc  4588  e9aef4ffff     jmp 1695  (0x177bccd7477f)
0x177bccd752d1  4593  e8b40fc9ff     call 0x177bcca0628a     ;; deoptimization bailout 65
0x177bccd752d6  4598  e9a4f4ffff     jmp 1695  (0x177bccd7477f)
                  ;;; <@470,#332> -------------------- Deferred allocate --------------------
0x177bccd752db  4603  33d2           xorl rdx,rdx
0x177bccd752dd  4605  50             push rax
0x177bccd752de  4606  51             push rcx
0x177bccd752df  4607  52             push rdx
0x177bccd752e0  4608  53             push rbx
0x177bccd752e1  4609  56             push rsi
0x177bccd752e2  4610  57             push rdi
0x177bccd752e3  4611  4150           push r8
0x177bccd752e5  4613  4151           push r9
0x177bccd752e7  4615  4153           push r11
0x177bccd752e9  4617  4156           push r14
0x177bccd752eb  4619  4157           push r15
0x177bccd752ed  4621  488d6424d8     REX.W leaq rsp,[rsp-0x28]
0x177bccd752f2  4626  49ba0000000020000000 REX.W movq r10,0x2000000000
0x177bccd752fc  4636  4152           push r10
0x177bccd752fe  4638  6a00           push 0x0
0x177bccd75300  4640  488b75e0       REX.W movq rsi,[rbp-0x20]
0x177bccd75304  4644  b802000000     movl rax,0x2
0x177bccd75309  4649  498d9d78e4e4fd REX.W leaq rbx,[r13-0x21b1b88]
0x177bccd75310  4656  e88b0ff9ff     call 0x177bccd062a0     ;; code: STUB, CEntryStub, minor: 1
0x177bccd75315  4661  4889442468     REX.W movq [rsp+0x68],rax
0x177bccd7531a  4666  488d642428     REX.W leaq rsp,[rsp+0x28]
0x177bccd7531f  4671  415f           pop r15
0x177bccd75321  4673  415e           pop r14
0x177bccd75323  4675  415b           pop r11
0x177bccd75325  4677  4159           pop r9
0x177bccd75327  4679  4158           pop r8
0x177bccd75329  4681  5f             pop rdi
0x177bccd7532a  4682  5e             pop rsi
0x177bccd7532b  4683  5b             pop rbx
0x177bccd7532c  4684  5a             pop rdx
0x177bccd7532d  4685  59             pop rcx
0x177bccd7532e  4686  58             pop rax
0x177bccd7532f  4687  e9dcf4ffff     jmp 1840  (0x177bccd74810)
                  ;;; <@536,#948> -------------------- Deferred tagged-to-i --------------------
0x177bccd75334  4692  4d8b5500       REX.W movq r10,[r13+0x0]    ;; debug: position 1474
0x177bccd75338  4696  4c3951ff       REX.W cmpq [rcx-0x1],r10
0x177bccd7533c  4700  751d           jnz 4731  (0x177bccd7535b)
0x177bccd7533e  4702  f20f104107     movsd xmm0,[rcx+0x7]
0x177bccd75343  4707  f20f2cc8       cvttsd2sil rcx,xmm0
0x177bccd75347  4711  0f57c9         xorps xmm1,xmm1
0x177bccd7534a  4714  f20f2ac9       cvtsi2sd xmm1,rcx
0x177bccd7534e  4718  660f2ec1       ucomisd xmm0,xmm1
                  Deferred TaggedToI: lost precision
0x177bccd75352  4722  7507           jnz 4731  (0x177bccd7535b)
                  Deferred TaggedToI: NaN
0x177bccd75354  4724  7a05           jpe 4731  (0x177bccd7535b)
0x177bccd75356  4726  e98cf5ffff     jmp 2055  (0x177bccd748e7)
0x177bccd7535b  4731  e8340fc9ff     call 0x177bcca06294     ;; deoptimization bailout 66
0x177bccd75360  4736  e982f5ffff     jmp 2055  (0x177bccd748e7)
                  ;;; <@546,#387> -------------------- Deferred allocate --------------------
0x177bccd75365  4741  33c9           xorl rcx,rcx
0x177bccd75367  4743  50             push rax
0x177bccd75368  4744  51             push rcx
0x177bccd75369  4745  52             push rdx
0x177bccd7536a  4746  53             push rbx
0x177bccd7536b  4747  56             push rsi
0x177bccd7536c  4748  57             push rdi
0x177bccd7536d  4749  4150           push r8
0x177bccd7536f  4751  4151           push r9
0x177bccd75371  4753  4153           push r11
0x177bccd75373  4755  4156           push r14
0x177bccd75375  4757  4157           push r15
0x177bccd75377  4759  488d6424d8     REX.W leaq rsp,[rsp-0x28]
0x177bccd7537c  4764  49ba0000000020000000 REX.W movq r10,0x2000000000
0x177bccd75386  4774  4152           push r10
0x177bccd75388  4776  6a00           push 0x0
0x177bccd7538a  4778  488bf3         REX.W movq rsi,rbx
0x177bccd7538d  4781  b802000000     movl rax,0x2
0x177bccd75392  4786  498d9d78e4e4fd REX.W leaq rbx,[r13-0x21b1b88]
0x177bccd75399  4793  e8020ff9ff     call 0x177bccd062a0     ;; code: STUB, CEntryStub, minor: 1
0x177bccd7539e  4798  4889442470     REX.W movq [rsp+0x70],rax
0x177bccd753a3  4803  488d642428     REX.W leaq rsp,[rsp+0x28]
0x177bccd753a8  4808  415f           pop r15
0x177bccd753aa  4810  415e           pop r14
0x177bccd753ac  4812  415b           pop r11
0x177bccd753ae  4814  4159           pop r9
0x177bccd753b0  4816  4158           pop r8
0x177bccd753b2  4818  5f             pop rdi
0x177bccd753b3  4819  5e             pop rsi
0x177bccd753b4  4820  5b             pop rbx
0x177bccd753b5  4821  5a             pop rdx
0x177bccd753b6  4822  59             pop rcx
0x177bccd753b7  4823  58             pop rax
0x177bccd753b8  4824  e95ef5ffff     jmp 2107  (0x177bccd7491b)
                  ;;; <@576,#951> -------------------- Deferred tagged-to-i --------------------
0x177bccd753bd  4829  4d8b5500       REX.W movq r10,[r13+0x0]    ;; debug: position 1532
0x177bccd753c1  4833  4c3950ff       REX.W cmpq [rax-0x1],r10
0x177bccd753c5  4837  751d           jnz 4868  (0x177bccd753e4)
0x177bccd753c7  4839  f20f104007     movsd xmm0,[rax+0x7]
0x177bccd753cc  4844  f20f2cc0       cvttsd2sil rax,xmm0
0x177bccd753d0  4848  0f57c9         xorps xmm1,xmm1
0x177bccd753d3  4851  f20f2ac8       cvtsi2sd xmm1,rax
0x177bccd753d7  4855  660f2ec1       ucomisd xmm0,xmm1
                  Deferred TaggedToI: lost precision
0x177bccd753db  4859  7507           jnz 4868  (0x177bccd753e4)
                  Deferred TaggedToI: NaN
0x177bccd753dd  4861  7a05           jpe 4868  (0x177bccd753e4)
0x177bccd753df  4863  e9c7f5ffff     jmp 2251  (0x177bccd749ab)
0x177bccd753e4  4868  e8b50ec9ff     call 0x177bcca0629e     ;; deoptimization bailout 67
0x177bccd753e9  4873  e9bdf5ffff     jmp 2251  (0x177bccd749ab)
                  ;;; <@586,#424> -------------------- Deferred stack-check --------------------
0x177bccd753ee  4878  50             push rax
0x177bccd753ef  4879  51             push rcx
0x177bccd753f0  4880  52             push rdx
0x177bccd753f1  4881  53             push rbx
0x177bccd753f2  4882  56             push rsi
0x177bccd753f3  4883  57             push rdi
0x177bccd753f4  4884  4150           push r8
0x177bccd753f6  4886  4151           push r9
0x177bccd753f8  4888  4153           push r11
0x177bccd753fa  4890  4156           push r14
0x177bccd753fc  4892  4157           push r15
0x177bccd753fe  4894  488d6424d8     REX.W leaq rsp,[rsp-0x28]
0x177bccd75403  4899  488b75f8       REX.W movq rsi,[rbp-0x8]
0x177bccd75407  4903  33c0           xorl rax,rax
0x177bccd75409  4905  498d9d58bce4fd REX.W leaq rbx,[r13-0x21b43a8]
0x177bccd75410  4912  e88b0ef9ff     call 0x177bccd062a0     ;; code: STUB, CEntryStub, minor: 1
0x177bccd75415  4917  488d642428     REX.W leaq rsp,[rsp+0x28]
0x177bccd7541a  4922  415f           pop r15
0x177bccd7541c  4924  415e           pop r14
0x177bccd7541e  4926  415b           pop r11
0x177bccd75420  4928  4159           pop r9
0x177bccd75422  4930  4158           pop r8
0x177bccd75424  4932  5f             pop rdi
0x177bccd75425  4933  5e             pop rsi
0x177bccd75426  4934  5b             pop rbx
0x177bccd75427  4935  5a             pop rdx
0x177bccd75428  4936  59             pop rcx
0x177bccd75429  4937  58             pop rax
0x177bccd7542a  4938  e991f5ffff     jmp 2272  (0x177bccd749c0)
                  ;;; <@758,#631> -------------------- Deferred allocate --------------------
0x177bccd7542f  4943  4533c9         xorl r9,r9              ;; debug: position 1591
0x177bccd75432  4946  50             push rax
0x177bccd75433  4947  51             push rcx
0x177bccd75434  4948  52             push rdx
0x177bccd75435  4949  53             push rbx
0x177bccd75436  4950  56             push rsi
0x177bccd75437  4951  57             push rdi
0x177bccd75438  4952  4150           push r8
0x177bccd7543a  4954  4151           push r9
0x177bccd7543c  4956  4153           push r11
0x177bccd7543e  4958  4156           push r14
0x177bccd75440  4960  4157           push r15
0x177bccd75442  4962  488d6424d8     REX.W leaq rsp,[rsp-0x28]
0x177bccd75447  4967  48c1e720       REX.W shlq rdi,32
0x177bccd7544b  4971  57             push rdi
0x177bccd7544c  4972  6a00           push 0x0
0x177bccd7544e  4974  488b75c0       REX.W movq rsi,[rbp-0x40]
0x177bccd75452  4978  b802000000     movl rax,0x2
0x177bccd75457  4983  498d9d78e4e4fd REX.W leaq rbx,[r13-0x21b1b88]
0x177bccd7545e  4990  e83d0ef9ff     call 0x177bccd062a0     ;; code: STUB, CEntryStub, minor: 1
0x177bccd75463  4995  4889442440     REX.W movq [rsp+0x40],rax
0x177bccd75468  5000  488d642428     REX.W leaq rsp,[rsp+0x28]
0x177bccd7546d  5005  415f           pop r15
0x177bccd7546f  5007  415e           pop r14
0x177bccd75471  5009  415b           pop r11
0x177bccd75473  5011  4159           pop r9
0x177bccd75475  5013  4158           pop r8
0x177bccd75477  5015  5f             pop rdi
0x177bccd75478  5016  5e             pop rsi
0x177bccd75479  5017  5b             pop rbx
0x177bccd7547a  5018  5a             pop rdx
0x177bccd7547b  5019  59             pop rcx
0x177bccd7547c  5020  58             pop rax
0x177bccd7547d  5021  e949f7ffff     jmp 2795  (0x177bccd74bcb)
                  ;;; <@820,#959> -------------------- Deferred tagged-to-i --------------------
0x177bccd75482  5026  4d8b5500       REX.W movq r10,[r13+0x0]    ;; debug: position 1548
0x177bccd75486  5030  4c3950ff       REX.W cmpq [rax-0x1],r10
0x177bccd7548a  5034  751d           jnz 5065  (0x177bccd754a9)
0x177bccd7548c  5036  f20f104007     movsd xmm0,[rax+0x7]
0x177bccd75491  5041  f20f2cc0       cvttsd2sil rax,xmm0
0x177bccd75495  5045  0f57c9         xorps xmm1,xmm1
0x177bccd75498  5048  f20f2ac8       cvtsi2sd xmm1,rax
0x177bccd7549c  5052  660f2ec1       ucomisd xmm0,xmm1
                  Deferred TaggedToI: lost precision
0x177bccd754a0  5056  7507           jnz 5065  (0x177bccd754a9)
                  Deferred TaggedToI: NaN
0x177bccd754a2  5058  7a05           jpe 5065  (0x177bccd754a9)
0x177bccd754a4  5060  e9eaf7ffff     jmp 2995  (0x177bccd74c93)
0x177bccd754a9  5065  e8fa0dc9ff     call 0x177bcca062a8     ;; deoptimization bailout 68
0x177bccd754ae  5070  e9e0f7ffff     jmp 2995  (0x177bccd74c93)
                  ;;; <@854,#962> -------------------- Deferred tagged-to-i --------------------
0x177bccd754b3  5075  4d8b5500       REX.W movq r10,[r13+0x0]    ;; debug: position 1676
0x177bccd754b7  5079  4c3951ff       REX.W cmpq [rcx-0x1],r10
0x177bccd754bb  5083  751d           jnz 5114  (0x177bccd754da)
0x177bccd754bd  5085  f20f104107     movsd xmm0,[rcx+0x7]
0x177bccd754c2  5090  f20f2cc8       cvttsd2sil rcx,xmm0
0x177bccd754c6  5094  0f57c9         xorps xmm1,xmm1
0x177bccd754c9  5097  f20f2ac9       cvtsi2sd xmm1,rcx
0x177bccd754cd  5101  660f2ec1       ucomisd xmm0,xmm1
                  Deferred TaggedToI: lost precision
0x177bccd754d1  5105  7507           jnz 5114  (0x177bccd754da)
                  Deferred TaggedToI: NaN
0x177bccd754d3  5107  7a05           jpe 5114  (0x177bccd754da)
0x177bccd754d5  5109  e94cf8ffff     jmp 3142  (0x177bccd74d26)
0x177bccd754da  5114  e8d30dc9ff     call 0x177bcca062b2     ;; deoptimization bailout 69
0x177bccd754df  5119  e942f8ffff     jmp 3142  (0x177bccd74d26)
                  ;;; <@864,#710> -------------------- Deferred stack-check --------------------
0x177bccd754e4  5124  50             push rax
0x177bccd754e5  5125  51             push rcx
0x177bccd754e6  5126  52             push rdx
0x177bccd754e7  5127  53             push rbx
0x177bccd754e8  5128  56             push rsi
0x177bccd754e9  5129  57             push rdi
0x177bccd754ea  5130  4150           push r8
0x177bccd754ec  5132  4151           push r9
0x177bccd754ee  5134  4153           push r11
0x177bccd754f0  5136  4156           push r14
0x177bccd754f2  5138  4157           push r15
0x177bccd754f4  5140  488d6424d8     REX.W leaq rsp,[rsp-0x28]
0x177bccd754f9  5145  488b75f8       REX.W movq rsi,[rbp-0x8]
0x177bccd754fd  5149  33c0           xorl rax,rax
0x177bccd754ff  5151  498d9d58bce4fd REX.W leaq rbx,[r13-0x21b43a8]
0x177bccd75506  5158  e8950df9ff     call 0x177bccd062a0     ;; code: STUB, CEntryStub, minor: 1
0x177bccd7550b  5163  488d642428     REX.W leaq rsp,[rsp+0x28]
0x177bccd75510  5168  415f           pop r15
0x177bccd75512  5170  415e           pop r14
0x177bccd75514  5172  415b           pop r11
0x177bccd75516  5174  4159           pop r9
0x177bccd75518  5176  4158           pop r8
0x177bccd7551a  5178  5f             pop rdi
0x177bccd7551b  5179  5e             pop rsi
0x177bccd7551c  5180  5b             pop rbx
0x177bccd7551d  5181  5a             pop rdx
0x177bccd7551e  5182  59             pop rcx
0x177bccd7551f  5183  58             pop rax
0x177bccd75520  5184  e916f8ffff     jmp 3163  (0x177bccd74d3b)
                  ;;; <@984,#969> -------------------- Deferred tagged-to-i --------------------
0x177bccd75525  5189  4d8b5500       REX.W movq r10,[r13+0x0]    ;; debug: position 1692
0x177bccd75529  5193  4c3950ff       REX.W cmpq [rax-0x1],r10
0x177bccd7552d  5197  751d           jnz 5228  (0x177bccd7554c)
0x177bccd7552f  5199  f20f104007     movsd xmm0,[rax+0x7]
0x177bccd75534  5204  f20f2cc0       cvttsd2sil rax,xmm0
0x177bccd75538  5208  0f57c9         xorps xmm1,xmm1
0x177bccd7553b  5211  f20f2ac8       cvtsi2sd xmm1,rax
0x177bccd7553f  5215  660f2ec1       ucomisd xmm0,xmm1
                  Deferred TaggedToI: lost precision
0x177bccd75543  5219  7507           jnz 5228  (0x177bccd7554c)
                  Deferred TaggedToI: NaN
0x177bccd75545  5221  7a05           jpe 5228  (0x177bccd7554c)
0x177bccd75547  5223  e945f9ffff     jmp 3505  (0x177bccd74e91)
0x177bccd7554c  5228  e86b0dc9ff     call 0x177bcca062bc     ;; deoptimization bailout 70
0x177bccd75551  5233  e93bf9ffff     jmp 3505  (0x177bccd74e91)
                  ;;; <@1020,#971> -------------------- Deferred tagged-to-i --------------------
0x177bccd75556  5238  4d8b5500       REX.W movq r10,[r13+0x0]    ;; debug: position 1485
0x177bccd7555a  5242  4c3953ff       REX.W cmpq [rbx-0x1],r10
0x177bccd7555e  5246  751d           jnz 5277  (0x177bccd7557d)
0x177bccd75560  5248  f20f104307     movsd xmm0,[rbx+0x7]
0x177bccd75565  5253  f20f2cd8       cvttsd2sil rbx,xmm0
0x177bccd75569  5257  0f57c9         xorps xmm1,xmm1
0x177bccd7556c  5260  f20f2acb       cvtsi2sd xmm1,rbx
0x177bccd75570  5264  660f2ec1       ucomisd xmm0,xmm1
                  Deferred TaggedToI: lost precision
0x177bccd75574  5268  7507           jnz 5277  (0x177bccd7557d)
                  Deferred TaggedToI: NaN
0x177bccd75576  5270  7a05           jpe 5277  (0x177bccd7557d)
0x177bccd75578  5272  e9b1f9ffff     jmp 3662  (0x177bccd74f2e)
0x177bccd7557d  5277  e8440dc9ff     call 0x177bcca062c6     ;; deoptimization bailout 71
0x177bccd75582  5282  e9a7f9ffff     jmp 3662  (0x177bccd74f2e)
                  ;;; -------------------- Jump table --------------------
                  ;;; jump table entry 0: deoptimization bailout 8.
0x177bccd75587  5287  e8c40ac9ff     call 0x177bcca06050     ;; deoptimization bailout 8
                  ;;; jump table entry 1: deoptimization bailout 9.
0x177bccd7558c  5292  e8c90ac9ff     call 0x177bcca0605a     ;; deoptimization bailout 9
                  ;;; jump table entry 2: deoptimization bailout 11.
0x177bccd75591  5297  e8d80ac9ff     call 0x177bcca0606e     ;; deoptimization bailout 11
                  ;;; jump table entry 3: deoptimization bailout 12.
0x177bccd75596  5302  e8dd0ac9ff     call 0x177bcca06078     ;; deoptimization bailout 12
                  ;;; jump table entry 4: deoptimization bailout 13.
0x177bccd7559b  5307  e8e20ac9ff     call 0x177bcca06082     ;; deoptimization bailout 13
                  ;;; jump table entry 5: deoptimization bailout 14.
0x177bccd755a0  5312  e8e70ac9ff     call 0x177bcca0608c     ;; deoptimization bailout 14
                  ;;; jump table entry 6: deoptimization bailout 15.
0x177bccd755a5  5317  e8ec0ac9ff     call 0x177bcca06096     ;; deoptimization bailout 15
                  ;;; jump table entry 7: deoptimization bailout 17.
0x177bccd755aa  5322  e8fb0ac9ff     call 0x177bcca060aa     ;; deoptimization bailout 17
                  ;;; jump table entry 8: deoptimization bailout 18.
0x177bccd755af  5327  e8000bc9ff     call 0x177bcca060b4     ;; deoptimization bailout 18
                  ;;; jump table entry 9: deoptimization bailout 19.
0x177bccd755b4  5332  e8050bc9ff     call 0x177bcca060be     ;; deoptimization bailout 19
                  ;;; jump table entry 10: deoptimization bailout 21.
0x177bccd755b9  5337  e8140bc9ff     call 0x177bcca060d2     ;; deoptimization bailout 21
                  ;;; jump table entry 11: deoptimization bailout 22.
0x177bccd755be  5342  e8190bc9ff     call 0x177bcca060dc     ;; deoptimization bailout 22
                  ;;; jump table entry 12: deoptimization bailout 23.
0x177bccd755c3  5347  e81e0bc9ff     call 0x177bcca060e6     ;; deoptimization bailout 23
                  ;;; jump table entry 13: deoptimization bailout 24.
0x177bccd755c8  5352  e8230bc9ff     call 0x177bcca060f0     ;; deoptimization bailout 24
                  ;;; jump table entry 14: deoptimization bailout 25.
0x177bccd755cd  5357  e8280bc9ff     call 0x177bcca060fa     ;; deoptimization bailout 25
                  ;;; jump table entry 15: deoptimization bailout 29.
0x177bccd755d2  5362  e84b0bc9ff     call 0x177bcca06122     ;; deoptimization bailout 29
                  ;;; jump table entry 16: deoptimization bailout 30.
0x177bccd755d7  5367  e8500bc9ff     call 0x177bcca0612c     ;; deoptimization bailout 30
                  ;;; jump table entry 17: deoptimization bailout 32.
0x177bccd755dc  5372  e85f0bc9ff     call 0x177bcca06140     ;; deoptimization bailout 32
                  ;;; jump table entry 18: deoptimization bailout 33.
0x177bccd755e1  5377  e8640bc9ff     call 0x177bcca0614a     ;; deoptimization bailout 33
                  ;;; jump table entry 19: deoptimization bailout 34.
0x177bccd755e6  5382  e8690bc9ff     call 0x177bcca06154     ;; deoptimization bailout 34
                  ;;; jump table entry 20: deoptimization bailout 35.
0x177bccd755eb  5387  e86e0bc9ff     call 0x177bcca0615e     ;; deoptimization bailout 35
                  ;;; jump table entry 21: deoptimization bailout 36.
0x177bccd755f0  5392  e8730bc9ff     call 0x177bcca06168     ;; deoptimization bailout 36
                  ;;; jump table entry 22: deoptimization bailout 37.
0x177bccd755f5  5397  e8780bc9ff     call 0x177bcca06172     ;; deoptimization bailout 37
                  ;;; jump table entry 23: deoptimization bailout 39.
0x177bccd755fa  5402  e8870bc9ff     call 0x177bcca06186     ;; deoptimization bailout 39
                  ;;; jump table entry 24: deoptimization bailout 40.
0x177bccd755ff  5407  e88c0bc9ff     call 0x177bcca06190     ;; deoptimization bailout 40
                  ;;; jump table entry 25: deoptimization bailout 41.
0x177bccd75604  5412  e8910bc9ff     call 0x177bcca0619a     ;; deoptimization bailout 41
                  ;;; jump table entry 26: deoptimization bailout 42.
0x177bccd75609  5417  e8960bc9ff     call 0x177bcca061a4     ;; deoptimization bailout 42
                  ;;; jump table entry 27: deoptimization bailout 43.
0x177bccd7560e  5422  e89b0bc9ff     call 0x177bcca061ae     ;; deoptimization bailout 43
                  ;;; jump table entry 28: deoptimization bailout 44.
0x177bccd75613  5427  e8a00bc9ff     call 0x177bcca061b8     ;; deoptimization bailout 44
                  ;;; jump table entry 29: deoptimization bailout 45.
0x177bccd75618  5432  e8a50bc9ff     call 0x177bcca061c2     ;; deoptimization bailout 45
                  ;;; jump table entry 30: deoptimization bailout 46.
0x177bccd7561d  5437  e8aa0bc9ff     call 0x177bcca061cc     ;; deoptimization bailout 46
                  ;;; jump table entry 31: deoptimization bailout 47.
0x177bccd75622  5442  e8af0bc9ff     call 0x177bcca061d6     ;; deoptimization bailout 47
                  ;;; jump table entry 32: deoptimization bailout 48.
0x177bccd75627  5447  e8b40bc9ff     call 0x177bcca061e0     ;; deoptimization bailout 48
                  ;;; jump table entry 33: deoptimization bailout 50.
0x177bccd7562c  5452  e8c30bc9ff     call 0x177bcca061f4     ;; deoptimization bailout 50
                  ;;; jump table entry 34: deoptimization bailout 51.
0x177bccd75631  5457  e8c80bc9ff     call 0x177bcca061fe     ;; deoptimization bailout 51
                  ;;; jump table entry 35: deoptimization bailout 52.
0x177bccd75636  5462  e8cd0bc9ff     call 0x177bcca06208     ;; deoptimization bailout 52
                  ;;; jump table entry 36: deoptimization bailout 53.
0x177bccd7563b  5467  e8d20bc9ff     call 0x177bcca06212     ;; deoptimization bailout 53
                  ;;; jump table entry 37: deoptimization bailout 54.
0x177bccd75640  5472  e8d70bc9ff     call 0x177bcca0621c     ;; deoptimization bailout 54
                  ;;; jump table entry 38: deoptimization bailout 55.
0x177bccd75645  5477  e8dc0bc9ff     call 0x177bcca06226     ;; deoptimization bailout 55
                  ;;; jump table entry 39: deoptimization bailout 57.
0x177bccd7564a  5482  e8eb0bc9ff     call 0x177bcca0623a     ;; deoptimization bailout 57
                  ;;; jump table entry 40: deoptimization bailout 59.
0x177bccd7564f  5487  e8fa0bc9ff     call 0x177bcca0624e     ;; deoptimization bailout 59
                  ;;; Safepoint table.

Deoptimization Input Data (deopt points = 72)
 index  ast id    argc     pc
     0       3       0     53
     1       3       0     80
     2      15       0    117
     3      44       0    154
     4      57       0    282
     5      70       0    410
     6      83       0    538
     7     105       0    599
     8     105       0     -1
     9     105       0     -1
    10     136       0    732
    11     136       0     -1
    12     136       0     -1
    13     136       0     -1
    14     136       0     -1
    15     139       0     -1
    16     158       0   1212
    17     158       0     -1
    18     158       0     -1
    19     158       0     -1
    20     189       0   1358
    21     189       0     -1
    22     189       0     -1
    23     189       0     -1
    24     189       0     -1
    25     192       0     -1
    26     203       0   1797
    27     217       0   1925
    28     233       0     -1
    29     275       0     -1
    30     275       0     -1
    31     279       0   2272
    32       2       0     -1
    33       2       0     -1
    34     319       0     -1
    35     329       0     -1
    36     339       0     -1
    37     339       0     -1
    38     358       0   2608
    39     358       0     -1
    40     358       0     -1
    41     358       0     -1
    42     358       0     -1
    43     358       0     -1
    44     358       0     -1
    45     358       0     -1
    46     366       0     -1
    47     381       0     -1
    48     381       0     -1
    49     385       0   3163
    50       2       0     -1
    51       2       0     -1
    52     425       0     -1
    53     425       0     -1
    54     437       0     -1
    55     450       0     -1
    56     469       0   3483
    57     469       0     -1
    58     487       0   3636
    59     487       0     -1
    60     101       0     -1
    61     105       0     -1
    62     139       0     -1
    63     154       0     -1
    64     158       0     -1
    65     192       0     -1
    66     231       0     -1
    67     275       0     -1
    68     366       0     -1
    69     381       0     -1
    70     469       0     -1
    71     487       0     -1

Safepoints (size = 294)
0x177bccd74115    53  00000010 (sp -> fp)       0
0x177bccd74130    80  00000010 (sp -> fp)       1
0x177bccd74155   117  00000010 (sp -> fp)       2
0x177bccd7417a   154  00000010 (sp -> fp)       3
0x177bccd741fa   282  00000010 (sp -> fp)       4
0x177bccd7427a   410  00000010 (sp -> fp)       5
0x177bccd742fa   538  00000010 (sp -> fp)       6
0x177bccd743b9   729  00000010 (sp -> fp)      10
0x177bccd7462e  1358  00000110 (sp -> fp)      20
0x177bccd747e1  1793  00000010 (sp -> fp)      26
0x177bccd74865  1925  00000110 (sp -> fp)      27
0x177bccd74b10  2608  00111000 (sp -> fp)      38
0x177bccd74e7b  3483  00101000 (sp -> fp)      56
0x177bccd74f14  3636  00101000 (sp -> fp)      58
0x177bccd74fa2  3778  00000010 | rbx (sp -> fp)  <none> argc: 2
0x177bccd74ffb  3867  00000010 | rbx (sp -> fp)  <none> argc: 2
0x177bccd75054  3956  00000010 | rbx (sp -> fp)  <none> argc: 2
0x177bccd750cb  4075  00000010 (sp -> fp)       7
0x177bccd75157  4215  00000010 | rax | rbx | r8 (sp -> fp)  <none> argc: 2
0x177bccd751ff  4383  00000010 (sp -> fp)      16
0x177bccd7528b  4523  00000110 | rax | rcx | rbx | r9 (sp -> fp)  <none> argc: 2
0x177bccd75315  4661  00000110 | rax | rdx (sp -> fp)  <none> argc: 2
0x177bccd7539e  4798  00101000 | rcx | rdx | rbx (sp -> fp)  <none> argc: 2
0x177bccd75415  4917  00101000 | rdx | rbx (sp -> fp)      31
0x177bccd75463  4995  00111000 | rdx | rbx | rsi | r9 (sp -> fp)  <none> argc: 2
0x177bccd7550b  5163  00101000 | rbx (sp -> fp)      49

RelocInfo (size = 7339)
0x177bccd740ea  comment  (;;; <@0,#0> -------------------- B0 --------------------)
0x177bccd740ea  comment  (;;; <@2,#1> context)
0x177bccd740ee  comment  (;;; <@3,#1> gap)
0x177bccd740f2  comment  (;;; <@8,#7> -------------------- B1 --------------------)
0x177bccd740f2  comment  (;;; <@9,#7> gap)
0x177bccd740f5  comment  (;;; <@10,#8> declare-globals)
0x177bccd740f8  embedded object  (0x168a4b998e81 <FixedArray[38]>)
0x177bccd74111  code target (STUB)  (0x177bccd066a0)
0x177bccd74115  comment  (;;; <@12,#9> lazy-bailout)
0x177bccd74115  comment  (;;; <@13,#9> gap)
0x177bccd74119  comment  (;;; <@14,#10> stack-check)
0x177bccd7412c  code target (BUILTIN)  (0x177bccd31140)
0x177bccd74130  comment  (;;; <@16,#10> lazy-bailout)
0x177bccd74130  comment  (;;; <@18,#14> push-argument)
0x177bccd74132  embedded object  (0x1638fe32c2b1 <String[6]: __guid>)
0x177bccd7413c  comment  (;;; <@20,#14> push-argument)
0x177bccd7413e  comment  (;;; <@22,#14> push-argument)
0x177bccd74140  comment  (;;; <@23,#14> gap)
0x177bccd74144  comment  (;;; <@24,#15> call-runtime)
0x177bccd74151  code target (STUB)  (0x177bccd066a0)
0x177bccd74155  comment  (;;; <@26,#16> lazy-bailout)
0x177bccd74155  comment  (;;; <@28,#20> push-argument)
0x177bccd74157  embedded object  (0x1638fe32c401 <String[7]: counter>)
0x177bccd74161  comment  (;;; <@30,#20> push-argument)
0x177bccd74163  comment  (;;; <@32,#20> push-argument)
0x177bccd74165  comment  (;;; <@33,#20> gap)
0x177bccd74169  comment  (;;; <@34,#21> call-runtime)
0x177bccd74176  code target (STUB)  (0x177bccd066a0)
0x177bccd7417a  comment  (;;; <@36,#22> lazy-bailout)
0x177bccd7417a  comment  (;;; <@38,#26> allocate)
0x177bccd741a5  comment  (;;; <@40,#28> store-named-field)
0x177bccd741a7  embedded object  (0x1638fe304111 <FixedArray[0]>)
0x177bccd741b3  comment  (;;; <@42,#30> store-named-field)
0x177bccd741b5  embedded object  (0x1b4f13c0d659 <Map(elements=0)>)
0x177bccd741c1  comment  (;;; <@44,#32> store-named-field)
0x177bccd741c3  embedded object  (0x1638fe304111 <FixedArray[0]>)
0x177bccd741cf  comment  (;;; <@46,#34> store-named-field)
0x177bccd741d6  comment  (;;; <@48,#38> push-argument)
0x177bccd741d8  embedded object  (0x1638fe32c381 <String[6]: mapped>)
0x177bccd741e2  comment  (;;; <@50,#38> push-argument)
0x177bccd741e4  comment  (;;; <@52,#38> push-argument)
0x177bccd741e5  comment  (;;; <@53,#38> gap)
0x177bccd741e9  comment  (;;; <@54,#39> call-runtime)
0x177bccd741f6  code target (STUB)  (0x177bccd066a0)
0x177bccd741fa  comment  (;;; <@56,#40> lazy-bailout)
0x177bccd741fa  comment  (;;; <@58,#44> allocate)
0x177bccd74225  comment  (;;; <@60,#46> store-named-field)
0x177bccd74227  embedded object  (0x1638fe304111 <FixedArray[0]>)
0x177bccd74233  comment  (;;; <@62,#48> store-named-field)
0x177bccd74235  embedded object  (0x1b4f13c0d5c9 <Map(elements=2)>)
0x177bccd74241  comment  (;;; <@64,#50> store-named-field)
0x177bccd74243  embedded object  (0x1638fe304111 <FixedArray[0]>)
0x177bccd7424f  comment  (;;; <@66,#52> store-named-field)
0x177bccd74256  comment  (;;; <@68,#56> push-argument)
0x177bccd74258  embedded object  (0x1638fe30f549 <String[6]: source>)
0x177bccd74262  comment  (;;; <@70,#56> push-argument)
0x177bccd74264  comment  (;;; <@72,#56> push-argument)
0x177bccd74265  comment  (;;; <@73,#56> gap)
0x177bccd74269  comment  (;;; <@74,#57> call-runtime)
0x177bccd74276  code target (STUB)  (0x177bccd066a0)
0x177bccd7427a  comment  (;;; <@76,#58> lazy-bailout)
0x177bccd7427a  comment  (;;; <@78,#62> allocate)
0x177bccd742a5  comment  (;;; <@80,#64> store-named-field)
0x177bccd742a7  embedded object  (0x1638fe304111 <FixedArray[0]>)
0x177bccd742b3  comment  (;;; <@82,#66> store-named-field)
0x177bccd742b5  embedded object  (0x1b4f13c0d659 <Map(elements=0)>)
0x177bccd742c1  comment  (;;; <@84,#68> store-named-field)
0x177bccd742c3  embedded object  (0x1638fe304111 <FixedArray[0]>)
0x177bccd742cf  comment  (;;; <@86,#70> store-named-field)
0x177bccd742d6  comment  (;;; <@88,#74> push-argument)
0x177bccd742d8  embedded object  (0x1638fe32c421 <String[4]: swap>)
0x177bccd742e2  comment  (;;; <@90,#74> push-argument)
0x177bccd742e4  comment  (;;; <@92,#74> push-argument)
0x177bccd742e5  comment  (;;; <@93,#74> gap)
0x177bccd742e9  comment  (;;; <@94,#75> call-runtime)
0x177bccd742f6  code target (STUB)  (0x177bccd066a0)
0x177bccd742fa  comment  (;;; <@96,#76> lazy-bailout)
0x177bccd742fa  comment  (;;; <@98,#917> constant-t)
0x177bccd742fc  comment  (;;; <@100,#78> store-global-cell)
0x177bccd742fe  property cell
0x177bccd74309  comment  (;;; <@102,#101> check-maps)
0x177bccd74309  position  (1273)
0x177bccd74309  comment  (;;; <@104,#116> check-maps)
0x177bccd74309  position  (1320)
0x177bccd74309  position  (1273)
0x177bccd74309  comment  (;;; <@108,#85> -------------------- B2 (loop header) --------------------)
0x177bccd74309  comment  (;;; <@110,#86> load-global-cell)
0x177bccd7430b  property cell
0x177bccd74313  comment  (;;; <@112,#928> tagged-to-i)
0x177bccd7431f  comment  (;;; <@115,#88> compare-numeric-and-branch)
0x177bccd7432a  comment  (;;; <@116,#89> -------------------- B3 (unreachable/replaced) --------------------)
0x177bccd7432a  comment  (;;; <@120,#95> -------------------- B4 --------------------)
0x177bccd7432a  comment  (;;; <@122,#97> stack-check)
0x177bccd74337  comment  (;;; <@124,#98> constant-t)
0x177bccd74339  embedded object  (0xecbf5c6fad9 <JS Array[50000]>)
0x177bccd74341  comment  (;;; <@126,#99> check-maps)
0x177bccd74343  embedded object  (0x1b4f13c0d5c9 <Map(elements=2)>)
0x177bccd74355  comment  (;;; <@128,#104> load-global-cell)
0x177bccd74355  position  (1320)
0x177bccd74357  property cell
0x177bccd7435f  comment  (;;; <@130,#929> tagged-to-i)
0x177bccd7436b  comment  (;;; <@131,#929> gap)
0x177bccd7436e  comment  (;;; <@132,#107> add-i)
0x177bccd74377  comment  (;;; <@134,#931> smi-tag)
0x177bccd7437d  comment  (;;; <@136,#108> store-global-cell)
0x177bccd7437f  property cell
0x177bccd7438a  comment  (;;; <@138,#930> smi-tag)
0x177bccd74390  comment  (;;; <@140,#110> push-argument)
0x177bccd74392  embedded object  (0xecbf5c62231 <JS Function Entry (SharedFunctionInfo 0xecbf5c61d39)>)
0x177bccd7439c  comment  (;;; <@142,#110> push-argument)
0x177bccd7439d  comment  (;;; <@144,#103> constant-t)
0x177bccd7439d  position  (1303)
0x177bccd7439f  embedded object  (0xecbf5c62231 <JS Function Entry (SharedFunctionInfo 0xecbf5c61d39)>)
0x177bccd743a7  comment  (;;; <@145,#103> gap)
0x177bccd743ab  comment  (;;; <@146,#111> call-new)
0x177bccd743ab  position  (1320)
0x177bccd743b5  code target (js construct call) (STUB)  (0x177bccd2f6e0)
0x177bccd743b9  comment  (;;; <@147,#111> gap)
0x177bccd743bc  comment  (;;; <@148,#112> lazy-bailout)
0x177bccd743bc  comment  (;;; <@150,#98> constant-t)
0x177bccd743bc  position  (1273)
0x177bccd743be  embedded object  (0xecbf5c6fad9 <JS Array[50000]>)
0x177bccd743c6  comment  (;;; <@152,#117> load-named-field)
0x177bccd743c6  position  (1320)
0x177bccd743c9  comment  (;;; <@154,#98> constant-t)
0x177bccd743c9  position  (1273)
0x177bccd743cb  embedded object  (0xecbf5c6fad9 <JS Array[50000]>)
0x177bccd743d3  comment  (;;; <@156,#119> load-named-field)
0x177bccd743d3  position  (1320)
0x177bccd743d7  comment  (;;; <@158,#120> check-maps)
0x177bccd743d9  embedded object  (0x1b4f13c04221 <Map(elements=0)>)
0x177bccd743eb  comment  (;;; <@162,#183> -------------------- B5 (unreachable/replaced) --------------------)
0x177bccd743eb  comment  (;;; <@170,#123> -------------------- B6 --------------------)
0x177bccd743eb  comment  (;;; <@172,#124> load-named-field)
0x177bccd743ee  comment  (;;; <@175,#125> compare-numeric-and-branch)
0x177bccd743f6  comment  (;;; <@176,#176> -------------------- B7 --------------------)
0x177bccd743f6  comment  (;;; <@178,#177> gap)
0x177bccd743f9  comment  (;;; <@179,#177> goto)
0x177bccd743fe  comment  (;;; <@180,#126> -------------------- B8 --------------------)
0x177bccd743fe  comment  (;;; <@182,#128> add-i)
0x177bccd7440a  comment  (;;; <@184,#129> bounds-check)
0x177bccd74412  comment  (;;; <@185,#129> gap)
0x177bccd74415  comment  (;;; <@186,#130> shift-i)
0x177bccd74417  comment  (;;; <@188,#131> add-i)
0x177bccd74419  comment  (;;; <@190,#133> add-i)
0x177bccd7441c  comment  (;;; <@192,#135> bounds-check)
0x177bccd74428  comment  (;;; <@194,#932> smi-tag)
0x177bccd7442e  comment  (;;; <@196,#138> mul-i)
0x177bccd74431  comment  (;;; <@198,#140> add-i)
0x177bccd74434  comment  (;;; <@200,#141> allocate)
0x177bccd7445f  comment  (;;; <@202,#143> store-named-field)
0x177bccd74461  embedded object  (0x1b4f13c04221 <Map(elements=0)>)
0x177bccd7446d  comment  (;;; <@204,#144> store-named-field)
0x177bccd74471  comment  (;;; <@206,#146> load-named-field)
0x177bccd74475  comment  (;;; <@210,#152> -------------------- B9 (loop header) --------------------)
0x177bccd74475  comment  (;;; <@213,#153> compare-numeric-and-branch)
0x177bccd7447d  comment  (;;; <@214,#154> -------------------- B10 --------------------)
0x177bccd7447d  comment  (;;; <@216,#155> sub-i)
0x177bccd74480  comment  (;;; <@218,#156> store-keyed)
0x177bccd74482  embedded object  (0xecbf5c04141 <the hole>)
0x177bccd7448f  comment  (;;; <@221,#158> goto)
0x177bccd74491  comment  (;;; <@222,#164> -------------------- B11 --------------------)
0x177bccd74491  comment  (;;; <@224,#165> gap)
0x177bccd74494  comment  (;;; <@226,#166> -------------------- B12 (loop header) --------------------)
0x177bccd74494  comment  (;;; <@229,#167> compare-numeric-and-branch)
0x177bccd7449d  comment  (;;; <@230,#168> -------------------- B13 --------------------)
0x177bccd7449d  comment  (;;; <@232,#169> sub-i)
0x177bccd744a0  comment  (;;; <@234,#170> load-keyed)
0x177bccd744a5  comment  (;;; <@236,#171> store-keyed)
0x177bccd744aa  comment  (;;; <@239,#173> goto)
0x177bccd744ac  comment  (;;; <@240,#174> -------------------- B14 --------------------)
0x177bccd744ac  comment  (;;; <@242,#98> constant-t)
0x177bccd744ac  position  (1273)
0x177bccd744ae  embedded object  (0xecbf5c6fad9 <JS Array[50000]>)
0x177bccd744b6  comment  (;;; <@243,#98> gap)
0x177bccd744b9  comment  (;;; <@244,#175> store-named-field)
0x177bccd744b9  position  (1320)
0x177bccd744d2  code target (STUB)  (0x177bccd70d00)
0x177bccd744d6  comment  (;;; <@246,#178> gap)
0x177bccd744d9  comment  (;;; <@248,#180> -------------------- B15 --------------------)
0x177bccd744d9  comment  (;;; <@250,#181> add-i)
0x177bccd744dc  comment  (;;; <@252,#933> smi-tag)
0x177bccd744e2  comment  (;;; <@254,#98> constant-t)
0x177bccd744e2  position  (1273)
0x177bccd744e4  embedded object  (0xecbf5c6fad9 <JS Array[50000]>)
0x177bccd744ec  comment  (;;; <@256,#182> store-named-field)
0x177bccd744ec  position  (1320)
0x177bccd744f0  comment  (;;; <@258,#186> gap)
0x177bccd744f3  comment  (;;; <@260,#188> -------------------- B16 --------------------)
0x177bccd744f3  comment  (;;; <@262,#189> store-keyed)
0x177bccd74524  code target (STUB)  (0x177bccd63b60)
0x177bccd74528  comment  (;;; <@264,#191> load-global-cell)
0x177bccd74528  position  (1283)
0x177bccd7452a  property cell
0x177bccd74532  comment  (;;; <@266,#934> tagged-to-i)
0x177bccd7453e  comment  (;;; <@268,#192> add-i)
0x177bccd74547  comment  (;;; <@270,#935> smi-tag)
0x177bccd7454d  comment  (;;; <@272,#193> store-global-cell)
0x177bccd7454f  property cell
0x177bccd7455a  comment  (;;; <@275,#196> goto)
0x177bccd7455f  comment  (;;; <@276,#92> -------------------- B17 (unreachable/replaced) --------------------)
0x177bccd7455f  comment  (;;; <@280,#197> -------------------- B18 --------------------)
0x177bccd7455f  comment  (;;; <@282,#917> constant-t)
0x177bccd74561  comment  (;;; <@284,#199> store-global-cell)
0x177bccd74563  property cell
0x177bccd7456e  position  (1347)
0x177bccd7456e  comment  (;;; <@288,#206> -------------------- B19 (loop header) --------------------)
0x177bccd7456e  comment  (;;; <@290,#207> load-global-cell)
0x177bccd74570  property cell
0x177bccd74578  comment  (;;; <@292,#937> tagged-to-i)
0x177bccd74584  comment  (;;; <@295,#209> compare-numeric-and-branch)
0x177bccd7458f  comment  (;;; <@296,#210> -------------------- B20 (unreachable/replaced) --------------------)
0x177bccd7458f  comment  (;;; <@300,#216> -------------------- B21 --------------------)
0x177bccd7458f  comment  (;;; <@302,#218> stack-check)
0x177bccd7459c  comment  (;;; <@304,#219> load-global-cell)
0x177bccd7459e  property cell
0x177bccd745a6  comment  (;;; <@305,#219> gap)
0x177bccd745aa  comment  (;;; <@306,#220> check-non-smi)
0x177bccd745b2  comment  (;;; <@308,#221> check-maps)
0x177bccd745b4  embedded object  (0x1b4f13c0d5c9 <Map(elements=2)>)
0x177bccd745c6  comment  (;;; <@310,#226> load-global-cell)
0x177bccd745c6  position  (1391)
0x177bccd745c8  property cell
0x177bccd745d3  comment  (;;; <@312,#938> tagged-to-i)
0x177bccd745e0  comment  (;;; <@313,#938> gap)
0x177bccd745e3  comment  (;;; <@314,#228> add-i)
0x177bccd745ec  comment  (;;; <@316,#940> smi-tag)
0x177bccd745f2  comment  (;;; <@318,#229> store-global-cell)
0x177bccd745f4  property cell
0x177bccd745ff  comment  (;;; <@320,#939> smi-tag)
0x177bccd74605  comment  (;;; <@322,#231> push-argument)
0x177bccd74607  embedded object  (0xecbf5c62231 <JS Function Entry (SharedFunctionInfo 0xecbf5c61d39)>)
0x177bccd74611  comment  (;;; <@324,#231> push-argument)
0x177bccd74612  comment  (;;; <@326,#103> constant-t)
0x177bccd74612  position  (1303)
0x177bccd74614  embedded object  (0xecbf5c62231 <JS Function Entry (SharedFunctionInfo 0xecbf5c61d39)>)
0x177bccd7461c  comment  (;;; <@327,#103> gap)
0x177bccd74620  comment  (;;; <@328,#232> call-new)
0x177bccd74620  position  (1391)
0x177bccd7462a  code target (js construct call) (STUB)  (0x177bccd2f6e0)
0x177bccd7462e  comment  (;;; <@330,#233> lazy-bailout)
0x177bccd7462e  comment  (;;; <@331,#233> gap)
0x177bccd74632  comment  (;;; <@332,#238> load-named-field)
0x177bccd74635  comment  (;;; <@334,#240> load-named-field)
0x177bccd74639  comment  (;;; <@336,#241> check-maps)
0x177bccd7463b  embedded object  (0x1b4f13c04221 <Map(elements=0)>)
0x177bccd7464d  comment  (;;; <@340,#303> -------------------- B22 (unreachable/replaced) --------------------)
0x177bccd7464d  comment  (;;; <@348,#244> -------------------- B23 --------------------)
0x177bccd7464d  comment  (;;; <@350,#245> load-named-field)
0x177bccd74650  comment  (;;; <@353,#246> compare-numeric-and-branch)
0x177bccd74658  comment  (;;; <@354,#296> -------------------- B24 (unreachable/replaced) --------------------)
0x177bccd74658  comment  (;;; <@358,#247> -------------------- B25 --------------------)
0x177bccd74658  comment  (;;; <@360,#249> add-i)
0x177bccd74664  comment  (;;; <@362,#250> bounds-check)
0x177bccd7466c  comment  (;;; <@363,#250> gap)
0x177bccd7466f  comment  (;;; <@364,#251> shift-i)
0x177bccd74671  comment  (;;; <@366,#252> add-i)
0x177bccd74673  comment  (;;; <@368,#254> add-i)
0x177bccd74676  comment  (;;; <@370,#256> bounds-check)
0x177bccd74682  comment  (;;; <@372,#941> smi-tag)
0x177bccd74688  comment  (;;; <@374,#259> mul-i)
0x177bccd7468b  comment  (;;; <@376,#261> add-i)
0x177bccd7468e  comment  (;;; <@378,#262> allocate)
0x177bccd746b9  comment  (;;; <@380,#264> store-named-field)
0x177bccd746bb  embedded object  (0x1b4f13c04221 <Map(elements=0)>)
0x177bccd746c7  comment  (;;; <@382,#265> store-named-field)
0x177bccd746cb  comment  (;;; <@384,#267> load-named-field)
0x177bccd746cf  comment  (;;; <@388,#273> -------------------- B26 (loop header) --------------------)
0x177bccd746cf  comment  (;;; <@391,#274> compare-numeric-and-branch)
0x177bccd746d7  comment  (;;; <@392,#275> -------------------- B27 --------------------)
0x177bccd746d7  comment  (;;; <@394,#276> sub-i)
0x177bccd746da  comment  (;;; <@396,#277> store-keyed)
0x177bccd746dc  embedded object  (0xecbf5c04141 <the hole>)
0x177bccd746e9  comment  (;;; <@399,#279> goto)
0x177bccd746eb  comment  (;;; <@400,#284> -------------------- B28 --------------------)
0x177bccd746eb  comment  (;;; <@402,#285> gap)
0x177bccd746ee  comment  (;;; <@404,#286> -------------------- B29 (loop header) --------------------)
0x177bccd746ee  comment  (;;; <@407,#287> compare-numeric-and-branch)
0x177bccd746f7  comment  (;;; <@408,#288> -------------------- B30 --------------------)
0x177bccd746f7  comment  (;;; <@410,#289> sub-i)
0x177bccd746fa  comment  (;;; <@412,#290> load-keyed)
0x177bccd746ff  comment  (;;; <@414,#291> store-keyed)
0x177bccd74704  comment  (;;; <@417,#293> goto)
0x177bccd74706  comment  (;;; <@418,#294> -------------------- B31 --------------------)
0x177bccd74706  comment  (;;; <@419,#294> gap)
0x177bccd74709  comment  (;;; <@420,#295> store-named-field)
0x177bccd74722  code target (STUB)  (0x177bccd71760)
0x177bccd74726  comment  (;;; <@422,#298> gap)
0x177bccd74729  comment  (;;; <@424,#300> -------------------- B32 --------------------)
0x177bccd74729  comment  (;;; <@426,#301> add-i)
0x177bccd7472c  comment  (;;; <@428,#942> smi-tag)
0x177bccd74732  comment  (;;; <@430,#302> store-named-field)
0x177bccd74736  comment  (;;; <@434,#308> -------------------- B33 --------------------)
0x177bccd74736  comment  (;;; <@436,#309> store-keyed)
0x177bccd74765  code target (STUB)  (0x177bccd721a0)
0x177bccd74769  comment  (;;; <@438,#311> load-global-cell)
0x177bccd74769  position  (1356)
0x177bccd7476b  property cell
0x177bccd74773  comment  (;;; <@440,#943> tagged-to-i)
0x177bccd7477f  comment  (;;; <@442,#312> add-i)
0x177bccd74788  comment  (;;; <@444,#944> smi-tag)
0x177bccd7478e  comment  (;;; <@446,#313> store-global-cell)
0x177bccd74790  property cell
0x177bccd7479b  comment  (;;; <@449,#316> goto)
0x177bccd747a0  comment  (;;; <@450,#213> -------------------- B34 (unreachable/replaced) --------------------)
0x177bccd747a0  comment  (;;; <@454,#317> -------------------- B35 --------------------)
0x177bccd747a0  comment  (;;; <@456,#324> push-argument)
0x177bccd747a2  embedded object  (0xecbf5c60321 <JS Global Object>)
0x177bccd747ac  comment  (;;; <@458,#324> push-argument)
0x177bccd747ae  embedded object  (0x13fa3c0c369 <JS Array[50000]>)
0x177bccd747b8  comment  (;;; <@460,#324> push-argument)
0x177bccd747ba  embedded object  (0xecbf5c6fad9 <JS Array[50000]>)
0x177bccd747c4  comment  (;;; <@462,#324> push-argument)
0x177bccd747c6  embedded object  (0xecbf5c621e9 <JS Function ident (SharedFunctionInfo 0xecbf5c61ca9)>)
0x177bccd747d0  comment  (;;; <@464,#318> constant-t)
0x177bccd747d2  embedded object  (0xecbf5c621a1 <JS Function syncMap (SharedFunctionInfo 0xecbf5c61c19)>)
0x177bccd747da  comment  (;;; <@466,#326> call-js-function)
0x177bccd747e1  comment  (;;; <@467,#326> gap)
0x177bccd747e5  comment  (;;; <@468,#327> lazy-bailout)
0x177bccd747e5  comment  (;;; <@470,#332> allocate)
0x177bccd74810  comment  (;;; <@472,#334> store-named-field)
0x177bccd74812  embedded object  (0x1638fe304111 <FixedArray[0]>)
0x177bccd7481e  comment  (;;; <@474,#336> store-named-field)
0x177bccd74820  embedded object  (0x1b4f13c0d659 <Map(elements=0)>)
0x177bccd7482c  comment  (;;; <@476,#338> store-named-field)
0x177bccd7482e  embedded object  (0x1638fe304111 <FixedArray[0]>)
0x177bccd7483a  comment  (;;; <@478,#340> store-named-field)
0x177bccd74841  comment  (;;; <@480,#344> push-argument)
0x177bccd74843  embedded object  (0x1638fe32c481 <String[5]: times>)
0x177bccd7484d  comment  (;;; <@482,#344> push-argument)
0x177bccd7484f  comment  (;;; <@484,#344> push-argument)
0x177bccd74850  comment  (;;; <@485,#344> gap)
0x177bccd74854  comment  (;;; <@486,#345> call-runtime)
0x177bccd74861  code target (STUB)  (0x177bccd066a0)
0x177bccd74865  comment  (;;; <@488,#346> lazy-bailout)
0x177bccd74865  comment  (;;; <@490,#917> constant-t)
0x177bccd74867  comment  (;;; <@492,#348> store-global-cell)
0x177bccd74869  property cell
0x177bccd74874  comment  (;;; <@495,#351> goto)
0x177bccd74879  comment  (;;; <@496,#355> -------------------- B36 (OSR entry) --------------------)
0x177bccd7487d  comment  (;;; <@506,#361> context)
0x177bccd74881  comment  (;;; <@508,#363> gap)
0x177bccd7488c  comment  (;;; <@509,#363> goto)
0x177bccd74891  comment  (;;; <@510,#352> -------------------- B37 --------------------)
0x177bccd74891  comment  (;;; <@512,#354> gap)
0x177bccd7489d  comment  (;;; <@514,#370> -------------------- B38 --------------------)
0x177bccd748a5  comment  (;;; <@516,#426> check-maps)
0x177bccd748a5  position  (1532)
0x177bccd748a5  comment  (;;; <@518,#440> check-maps)
0x177bccd748a5  comment  (;;; <@520,#473> check-maps)
0x177bccd748a5  position  (2440)
0x177bccd748a5  comment  (;;; <@522,#475> check-maps)
0x177bccd748a5  comment  (;;; <@524,#553> constant-d)
0x177bccd748a5  position  (2577)
0x177bccd748b4  comment  (;;; <@525,#553> gap)
0x177bccd748b9  comment  (;;; <@526,#564> constant-d)
0x177bccd748b9  position  (2582)
0x177bccd748c8  comment  (;;; <@527,#564> gap)
0x177bccd748cd  comment  (;;; <@528,#583> check-maps)
0x177bccd748cd  position  (1591)
0x177bccd748cd  position  (1356)
0x177bccd748cd  position  (1474)
0x177bccd748cd  comment  (;;; <@532,#373> -------------------- B39 (loop header) --------------------)
0x177bccd748cd  comment  (;;; <@534,#374> load-global-cell)
0x177bccd748cf  property cell
0x177bccd748da  comment  (;;; <@536,#948> tagged-to-i)
0x177bccd748e7  comment  (;;; <@539,#376> compare-numeric-and-branch)
0x177bccd748f0  comment  (;;; <@540,#377> -------------------- B40 (unreachable/replaced) --------------------)
0x177bccd748f0  comment  (;;; <@544,#383> -------------------- B41 --------------------)
0x177bccd748f0  comment  (;;; <@546,#387> allocate)
0x177bccd7491b  comment  (;;; <@548,#389> store-named-field)
0x177bccd7491d  embedded object  (0x1638fe304111 <FixedArray[0]>)
0x177bccd74929  comment  (;;; <@550,#391> store-named-field)
0x177bccd7492b  embedded object  (0x1b4f13c0d5c9 <Map(elements=2)>)
0x177bccd74937  comment  (;;; <@552,#393> store-named-field)
0x177bccd74939  embedded object  (0x1638fe304111 <FixedArray[0]>)
0x177bccd74945  comment  (;;; <@554,#395> store-named-field)
0x177bccd7494c  comment  (;;; <@556,#399> store-global-cell)
0x177bccd7494e  property cell
0x177bccd74959  comment  (;;; <@558,#950> constant-t)
0x177bccd7495b  comment  (;;; <@560,#402> store-global-cell)
0x177bccd7495d  property cell
0x177bccd74968  position  (1532)
0x177bccd74968  comment  (;;; <@564,#409> -------------------- B42 (loop header) --------------------)
0x177bccd74968  comment  (;;; <@566,#410> load-global-cell)
0x177bccd7496a  property cell
0x177bccd74972  comment  (;;; <@568,#411> load-global-cell)
0x177bccd74974  property cell
0x177bccd7497f  comment  (;;; <@570,#412> check-non-smi)
0x177bccd74988  comment  (;;; <@572,#413> check-maps)
0x177bccd7498a  embedded object  (0x1b4f13c0d5c9 <Map(elements=2)>)
0x177bccd7499c  comment  (;;; <@574,#414> load-named-field)
0x177bccd7499f  comment  (;;; <@576,#951> tagged-to-i)
0x177bccd749ab  comment  (;;; <@579,#415> compare-numeric-and-branch)
0x177bccd749b3  comment  (;;; <@580,#416> -------------------- B43 (unreachable/replaced) --------------------)
0x177bccd749b3  comment  (;;; <@584,#422> -------------------- B44 --------------------)
0x177bccd749b3  comment  (;;; <@586,#424> stack-check)
0x177bccd749c0  comment  (;;; <@588,#438> constant-t)
0x177bccd749c2  embedded object  (0x13fa3c06b29 <an Uint32Array with map 0x1b4f13c13719>)
0x177bccd749ca  comment  (;;; <@590,#441> load-named-field)
0x177bccd749ce  comment  (;;; <@592,#442> load-named-field)
0x177bccd749d1  comment  (;;; <@594,#443> load-named-field)
0x177bccd749d5  comment  (;;; <@596,#444> bounds-check)
0x177bccd749de  comment  (;;; <@598,#491> bounds-check)
0x177bccd749de  position  (2440)
0x177bccd749e7  comment  (;;; <@600,#445> load-keyed)
0x177bccd749e7  position  (1532)
0x177bccd749e9  comment  (;;; <@601,#445> gap)
0x177bccd749ec  comment  (;;; <@602,#447> bit-i)
0x177bccd749ec  position  (2412)
0x177bccd749f2  comment  (;;; <@604,#449> mul-i)
0x177bccd749f8  comment  (;;; <@606,#459> shift-i)
0x177bccd749f8  position  (2433)
0x177bccd749fb  comment  (;;; <@608,#461> add-i)
0x177bccd749fb  position  (2420)
0x177bccd749fd  comment  (;;; <@610,#480> store-keyed)
0x177bccd749fd  position  (2440)
0x177bccd749ff  comment  (;;; <@612,#492> load-keyed)
0x177bccd74a02  comment  (;;; <@613,#492> gap)
0x177bccd74a05  comment  (;;; <@614,#494> bit-i)
0x177bccd74a05  position  (2492)
0x177bccd74a0b  comment  (;;; <@616,#496> mul-i)
0x177bccd74a11  comment  (;;; <@618,#506> shift-i)
0x177bccd74a11  position  (2513)
0x177bccd74a14  comment  (;;; <@620,#508> add-i)
0x177bccd74a14  position  (2500)
0x177bccd74a16  comment  (;;; <@622,#526> store-keyed)
0x177bccd74a16  position  (2520)
0x177bccd74a19  comment  (;;; <@624,#530> shift-i)
0x177bccd74a19  position  (2548)
0x177bccd74a1c  comment  (;;; <@626,#534> bit-i)
0x177bccd74a1c  position  (2556)
0x177bccd74a22  comment  (;;; <@628,#536> add-i)
0x177bccd74a22  position  (2553)
0x177bccd74a24  position  (2577)
0x177bccd74a24  comment  (;;; <@631,#544> compare-numeric-and-branch)
0x177bccd74a2d  comment  (;;; <@632,#548> -------------------- B45 (unreachable/replaced) --------------------)
0x177bccd74a2d  position  (2582)
0x177bccd74a2d  comment  (;;; <@636,#556> -------------------- B46 --------------------)
0x177bccd74a2d  comment  (;;; <@638,#952> int32-to-double)
0x177bccd74a34  comment  (;;; <@641,#561> goto)
0x177bccd74a39  comment  (;;; <@642,#545> -------------------- B47 (unreachable/replaced) --------------------)
0x177bccd74a39  position  (2577)
0x177bccd74a39  comment  (;;; <@646,#551> -------------------- B48 --------------------)
0x177bccd74a39  comment  (;;; <@648,#953> int32-to-double)
0x177bccd74a39  position  (2582)
0x177bccd74a40  comment  (;;; <@650,#554> add-d)
0x177bccd74a44  comment  (;;; <@654,#563> -------------------- B49 --------------------)
0x177bccd74a44  comment  (;;; <@656,#565> mul-d)
0x177bccd74a44  position  (2598)
0x177bccd74a48  comment  (;;; <@660,#570> -------------------- B50 --------------------)
0x177bccd74a48  comment  (;;; <@662,#571> constant-t)
0x177bccd74a4a  embedded object  (0xecbf5c6fad9 <JS Array[50000]>)
0x177bccd74a52  comment  (;;; <@664,#572> check-maps)
0x177bccd74a54  embedded object  (0x1b4f13c0d5c9 <Map(elements=2)>)
0x177bccd74a66  comment  (;;; <@666,#571> constant-t)
0x177bccd74a68  embedded object  (0xecbf5c6fad9 <JS Array[50000]>)
0x177bccd74a70  comment  (;;; <@668,#573> load-named-field)
0x177bccd74a73  comment  (;;; <@670,#954> int32-to-double)
0x177bccd74a73  position  (1591)
0x177bccd74a7a  comment  (;;; <@672,#574> mul-d)
0x177bccd74a7e  comment  (;;; <@674,#576> math-floor)
0x177bccd74aa0  comment  (;;; <@676,#955> smi-tag)
0x177bccd74aa6  comment  (;;; <@678,#577> store-global-cell)
0x177bccd74aa8  property cell
0x177bccd74ab3  comment  (;;; <@680,#579> load-global-cell)
0x177bccd74ab5  property cell
0x177bccd74ac0  comment  (;;; <@681,#579> gap)
0x177bccd74ac4  comment  (;;; <@682,#580> check-non-smi)
0x177bccd74acd  comment  (;;; <@684,#581> check-maps)
0x177bccd74acf  embedded object  (0x1b4f13c0d5c9 <Map(elements=2)>)
0x177bccd74ae1  comment  (;;; <@686,#590> load-global-cell)
0x177bccd74ae3  property cell
0x177bccd74aeb  comment  (;;; <@688,#593> push-argument)
0x177bccd74aed  embedded object  (0xecbf5c6fad9 <JS Array[50000]>)
0x177bccd74af7  comment  (;;; <@690,#593> push-argument)
0x177bccd74af8  comment  (;;; <@692,#593> push-argument)
0x177bccd74afa  comment  (;;; <@694,#592> constant-t)
0x177bccd74afc  embedded object  (0xecbf5c53859 <JS Function splice (SharedFunctionInfo 0xecbf5c3c249)>)
0x177bccd74b04  comment  (;;; <@696,#594> call-js-function)
0x177bccd74b10  comment  (;;; <@698,#595> lazy-bailout)
0x177bccd74b10  comment  (;;; <@700,#597> check-non-smi)
0x177bccd74b18  comment  (;;; <@702,#598> check-maps)
0x177bccd74b1a  embedded object  (0x1b4f13c0d5c9 <Map(elements=2)>)
0x177bccd74b2c  comment  (;;; <@704,#599> load-named-field)
0x177bccd74b30  comment  (;;; <@706,#600> load-named-field)
0x177bccd74b33  comment  (;;; <@708,#601> bounds-check)
0x177bccd74b3c  comment  (;;; <@710,#602> load-keyed)
0x177bccd74b40  comment  (;;; <@711,#602> gap)
0x177bccd74b44  comment  (;;; <@712,#607> load-named-field)
0x177bccd74b47  comment  (;;; <@714,#609> load-named-field)
0x177bccd74b4b  comment  (;;; <@716,#610> check-maps)
0x177bccd74b4d  embedded object  (0x1b4f13c04221 <Map(elements=0)>)
0x177bccd74b5f  comment  (;;; <@720,#672> -------------------- B51 (unreachable/replaced) --------------------)
0x177bccd74b5f  comment  (;;; <@728,#613> -------------------- B52 --------------------)
0x177bccd74b5f  comment  (;;; <@730,#614> load-named-field)
0x177bccd74b62  comment  (;;; <@733,#615> compare-numeric-and-branch)
0x177bccd74b6a  comment  (;;; <@734,#665> -------------------- B53 (unreachable/replaced) --------------------)
0x177bccd74b6a  comment  (;;; <@738,#616> -------------------- B54 --------------------)
0x177bccd74b6a  comment  (;;; <@740,#618> add-i)
0x177bccd74b76  comment  (;;; <@742,#619> bounds-check)
0x177bccd74b7e  comment  (;;; <@743,#619> gap)
0x177bccd74b81  comment  (;;; <@744,#620> shift-i)
0x177bccd74b83  comment  (;;; <@746,#621> add-i)
0x177bccd74b85  comment  (;;; <@748,#623> add-i)
0x177bccd74b88  comment  (;;; <@750,#625> bounds-check)
0x177bccd74b94  comment  (;;; <@752,#957> smi-tag)
0x177bccd74b9a  comment  (;;; <@754,#628> mul-i)
0x177bccd74b9d  comment  (;;; <@756,#630> add-i)
0x177bccd74ba0  comment  (;;; <@758,#631> allocate)
0x177bccd74bcb  comment  (;;; <@760,#633> store-named-field)
0x177bccd74bcd  embedded object  (0x1b4f13c04221 <Map(elements=0)>)
0x177bccd74bd9  comment  (;;; <@762,#634> store-named-field)
0x177bccd74bdd  comment  (;;; <@764,#636> load-named-field)
0x177bccd74be1  comment  (;;; <@768,#642> -------------------- B55 (loop header) --------------------)
0x177bccd74be1  comment  (;;; <@771,#643> compare-numeric-and-branch)
0x177bccd74be9  comment  (;;; <@772,#644> -------------------- B56 --------------------)
0x177bccd74be9  comment  (;;; <@774,#645> sub-i)
0x177bccd74bec  comment  (;;; <@776,#646> store-keyed)
0x177bccd74bee  embedded object  (0xecbf5c04141 <the hole>)
0x177bccd74bfb  comment  (;;; <@779,#648> goto)
0x177bccd74bfd  comment  (;;; <@780,#653> -------------------- B57 --------------------)
0x177bccd74bfd  comment  (;;; <@782,#654> gap)
0x177bccd74c00  comment  (;;; <@784,#655> -------------------- B58 (loop header) --------------------)
0x177bccd74c00  comment  (;;; <@787,#656> compare-numeric-and-branch)
0x177bccd74c09  comment  (;;; <@788,#657> -------------------- B59 --------------------)
0x177bccd74c09  comment  (;;; <@790,#658> sub-i)
0x177bccd74c0c  comment  (;;; <@792,#659> load-keyed)
0x177bccd74c11  comment  (;;; <@794,#660> store-keyed)
0x177bccd74c16  comment  (;;; <@797,#662> goto)
0x177bccd74c18  comment  (;;; <@798,#663> -------------------- B60 --------------------)
0x177bccd74c18  comment  (;;; <@799,#663> gap)
0x177bccd74c1b  comment  (;;; <@800,#664> store-named-field)
0x177bccd74c34  code target (STUB)  (0x177bccd72c20)
0x177bccd74c38  comment  (;;; <@802,#667> gap)
0x177bccd74c3b  comment  (;;; <@804,#669> -------------------- B61 --------------------)
0x177bccd74c3b  comment  (;;; <@806,#670> add-i)
0x177bccd74c3e  comment  (;;; <@808,#958> smi-tag)
0x177bccd74c44  comment  (;;; <@810,#671> store-named-field)
0x177bccd74c48  comment  (;;; <@814,#677> -------------------- B62 --------------------)
0x177bccd74c48  comment  (;;; <@816,#678> store-keyed)
0x177bccd74c79  code target (STUB)  (0x177bccd73660)
0x177bccd74c7d  comment  (;;; <@818,#680> load-global-cell)
0x177bccd74c7d  position  (1548)
0x177bccd74c7f  property cell
0x177bccd74c87  comment  (;;; <@820,#959> tagged-to-i)
0x177bccd74c93  comment  (;;; <@822,#681> add-i)
0x177bccd74c9c  comment  (;;; <@824,#960> smi-tag)
0x177bccd74ca2  comment  (;;; <@826,#682> store-global-cell)
0x177bccd74ca4  property cell
0x177bccd74caf  comment  (;;; <@828,#685> gap)
0x177bccd74cc1  comment  (;;; <@829,#685> goto)
0x177bccd74cc6  comment  (;;; <@830,#419> -------------------- B63 (unreachable/replaced) --------------------)
0x177bccd74cc6  comment  (;;; <@834,#686> -------------------- B64 --------------------)
0x177bccd74cc6  comment  (;;; <@836,#950> constant-t)
0x177bccd74cc6  position  (1474)
0x177bccd74cc8  comment  (;;; <@838,#688> store-global-cell)
0x177bccd74cc8  position  (1548)
0x177bccd74cca  property cell
0x177bccd74cd5  comment  (;;; <@840,#694> gap)
0x177bccd74cdf  position  (1676)
0x177bccd74cdf  comment  (;;; <@842,#695> -------------------- B65 (loop header) --------------------)
0x177bccd74cdf  comment  (;;; <@844,#696> load-global-cell)
0x177bccd74ce1  property cell
0x177bccd74ce9  comment  (;;; <@846,#697> load-global-cell)
0x177bccd74ceb  property cell
0x177bccd74cf6  comment  (;;; <@848,#698> check-non-smi)
0x177bccd74cff  comment  (;;; <@850,#699> check-maps)
0x177bccd74d01  embedded object  (0x1b4f13c0d5c9 <Map(elements=2)>)
0x177bccd74d13  comment  (;;; <@852,#700> load-named-field)
0x177bccd74d16  comment  (;;; <@853,#700> gap)
0x177bccd74d19  comment  (;;; <@854,#962> tagged-to-i)
0x177bccd74d26  comment  (;;; <@857,#701> compare-numeric-and-branch)
0x177bccd74d2e  comment  (;;; <@858,#702> -------------------- B66 (unreachable/replaced) --------------------)
0x177bccd74d2e  comment  (;;; <@862,#708> -------------------- B67 --------------------)
0x177bccd74d2e  comment  (;;; <@864,#710> stack-check)
0x177bccd74d3b  comment  (;;; <@866,#438> constant-t)
0x177bccd74d3b  position  (1532)
0x177bccd74d3d  embedded object  (0x13fa3c06b29 <an Uint32Array with map 0x1b4f13c13719>)
0x177bccd74d45  comment  (;;; <@868,#727> load-named-field)
0x177bccd74d45  position  (1676)
0x177bccd74d49  comment  (;;; <@870,#728> load-named-field)
0x177bccd74d4c  comment  (;;; <@872,#729> load-named-field)
0x177bccd74d50  comment  (;;; <@874,#730> bounds-check)
0x177bccd74d59  comment  (;;; <@876,#776> bounds-check)
0x177bccd74d59  position  (2440)
0x177bccd74d62  comment  (;;; <@878,#731> load-keyed)
0x177bccd74d62  position  (1676)
0x177bccd74d64  comment  (;;; <@879,#731> gap)
0x177bccd74d67  comment  (;;; <@880,#733> bit-i)
0x177bccd74d67  position  (2412)
0x177bccd74d6d  comment  (;;; <@882,#735> mul-i)
0x177bccd74d73  comment  (;;; <@884,#745> shift-i)
0x177bccd74d73  position  (2433)
0x177bccd74d76  comment  (;;; <@886,#747> add-i)
0x177bccd74d76  position  (2420)
0x177bccd74d78  comment  (;;; <@888,#765> store-keyed)
0x177bccd74d78  position  (2440)
0x177bccd74d7a  comment  (;;; <@890,#777> load-keyed)
0x177bccd74d7d  comment  (;;; <@891,#777> gap)
0x177bccd74d80  comment  (;;; <@892,#779> bit-i)
0x177bccd74d80  position  (2492)
0x177bccd74d87  comment  (;;; <@894,#781> mul-i)
0x177bccd74d8e  comment  (;;; <@896,#791> shift-i)
0x177bccd74d8e  position  (2513)
0x177bccd74d91  comment  (;;; <@898,#793> add-i)
0x177bccd74d91  position  (2500)
0x177bccd74d94  comment  (;;; <@900,#811> store-keyed)
0x177bccd74d94  position  (2520)
0x177bccd74d97  comment  (;;; <@902,#815> shift-i)
0x177bccd74d97  position  (2548)
0x177bccd74d9a  comment  (;;; <@904,#819> bit-i)
0x177bccd74d9a  position  (2556)
0x177bccd74da0  comment  (;;; <@906,#821> add-i)
0x177bccd74da0  position  (2553)
0x177bccd74da2  position  (2577)
0x177bccd74da2  comment  (;;; <@909,#829> compare-numeric-and-branch)
0x177bccd74dab  comment  (;;; <@910,#833> -------------------- B68 (unreachable/replaced) --------------------)
0x177bccd74dab  position  (2582)
0x177bccd74dab  comment  (;;; <@914,#841> -------------------- B69 --------------------)
0x177bccd74dab  comment  (;;; <@916,#963> int32-to-double)
0x177bccd74db2  comment  (;;; <@919,#846> goto)
0x177bccd74db7  comment  (;;; <@920,#830> -------------------- B70 (unreachable/replaced) --------------------)
0x177bccd74db7  position  (2577)
0x177bccd74db7  comment  (;;; <@924,#836> -------------------- B71 --------------------)
0x177bccd74db7  comment  (;;; <@926,#964> int32-to-double)
0x177bccd74db7  position  (2582)
0x177bccd74dbe  comment  (;;; <@928,#839> add-d)
0x177bccd74dc2  comment  (;;; <@932,#848> -------------------- B72 --------------------)
0x177bccd74dc2  comment  (;;; <@934,#850> mul-d)
0x177bccd74dc2  position  (2598)
0x177bccd74dc6  comment  (;;; <@938,#855> -------------------- B73 --------------------)
0x177bccd74dc6  comment  (;;; <@940,#571> constant-t)
0x177bccd74dc8  embedded object  (0xecbf5c6fad9 <JS Array[50000]>)
0x177bccd74dd0  comment  (;;; <@942,#857> check-maps)
0x177bccd74dd2  embedded object  (0x1b4f13c0d5c9 <Map(elements=2)>)
0x177bccd74de4  comment  (;;; <@944,#571> constant-t)
0x177bccd74de6  embedded object  (0xecbf5c6fad9 <JS Array[50000]>)
0x177bccd74dee  comment  (;;; <@946,#858> load-named-field)
0x177bccd74df1  comment  (;;; <@948,#860> add-i)
0x177bccd74df1  position  (1751)
0x177bccd74dfa  comment  (;;; <@950,#965> int32-to-double)
0x177bccd74dfa  position  (1735)
0x177bccd74e01  comment  (;;; <@952,#862> mul-d)
0x177bccd74e05  comment  (;;; <@954,#864> math-floor)
0x177bccd74e27  comment  (;;; <@956,#966> smi-tag)
0x177bccd74e2d  comment  (;;; <@958,#865> store-global-cell)
0x177bccd74e2f  property cell
0x177bccd74e3a  comment  (;;; <@960,#872> load-global-cell)
0x177bccd74e3c  property cell
0x177bccd74e44  comment  (;;; <@962,#878> load-named-field)
0x177bccd74e48  comment  (;;; <@964,#880> bounds-check)
0x177bccd74e50  comment  (;;; <@966,#881> load-keyed)
0x177bccd74e55  comment  (;;; <@968,#883> push-argument)
0x177bccd74e57  embedded object  (0xecbf5c6fad9 <JS Array[50000]>)
0x177bccd74e61  comment  (;;; <@970,#883> push-argument)
0x177bccd74e62  comment  (;;; <@972,#883> push-argument)
0x177bccd74e64  comment  (;;; <@974,#883> push-argument)
0x177bccd74e65  comment  (;;; <@976,#592> constant-t)
0x177bccd74e65  position  (1591)
0x177bccd74e67  embedded object  (0xecbf5c53859 <JS Function splice (SharedFunctionInfo 0xecbf5c3c249)>)
0x177bccd74e6f  comment  (;;; <@978,#884> call-js-function)
0x177bccd74e6f  position  (1735)
0x177bccd74e7b  comment  (;;; <@980,#885> lazy-bailout)
0x177bccd74e7b  comment  (;;; <@982,#886> load-global-cell)
0x177bccd74e7b  position  (1692)
0x177bccd74e7d  property cell
0x177bccd74e85  comment  (;;; <@984,#969> tagged-to-i)
0x177bccd74e91  comment  (;;; <@986,#887> add-i)
0x177bccd74e9a  comment  (;;; <@988,#970> smi-tag)
0x177bccd74ea0  comment  (;;; <@990,#888> store-global-cell)
0x177bccd74ea2  property cell
0x177bccd74ead  comment  (;;; <@992,#891> gap)
0x177bccd74eb7  comment  (;;; <@993,#891> goto)
0x177bccd74ebc  comment  (;;; <@994,#705> -------------------- B74 (unreachable/replaced) --------------------)
0x177bccd74ebc  comment  (;;; <@998,#892> -------------------- B75 --------------------)
0x177bccd74ebc  comment  (;;; <@1000,#893> load-global-cell)
0x177bccd74ebe  property cell
0x177bccd74ec6  comment  (;;; <@1002,#894> store-global-cell)
0x177bccd74ec8  property cell
0x177bccd74ed3  comment  (;;; <@1004,#902> push-argument)
0x177bccd74ed5  embedded object  (0xecbf5c60321 <JS Global Object>)
0x177bccd74edf  comment  (;;; <@1006,#902> push-argument)
0x177bccd74ee1  embedded object  (0x13fa3c0c369 <JS Array[50000]>)
0x177bccd74eeb  comment  (;;; <@1008,#902> push-argument)
0x177bccd74eed  embedded object  (0xecbf5c6fad9 <JS Array[50000]>)
0x177bccd74ef7  comment  (;;; <@1010,#902> push-argument)
0x177bccd74ef9  embedded object  (0xecbf5c621e9 <JS Function ident (SharedFunctionInfo 0xecbf5c61ca9)>)
0x177bccd74f03  comment  (;;; <@1012,#896> constant-t)
0x177bccd74f05  embedded object  (0xecbf5c621a1 <JS Function syncMap (SharedFunctionInfo 0xecbf5c61c19)>)
0x177bccd74f0d  comment  (;;; <@1014,#904> call-js-function)
0x177bccd74f14  comment  (;;; <@1016,#905> lazy-bailout)
0x177bccd74f14  comment  (;;; <@1018,#907> load-global-cell)
0x177bccd74f14  position  (1485)
0x177bccd74f16  property cell
0x177bccd74f21  comment  (;;; <@1020,#971> tagged-to-i)
0x177bccd74f2e  comment  (;;; <@1022,#908> add-i)
0x177bccd74f37  comment  (;;; <@1024,#972> smi-tag)
0x177bccd74f3d  comment  (;;; <@1026,#909> store-global-cell)
0x177bccd74f3f  property cell
0x177bccd74f4a  comment  (;;; <@1028,#912> gap)
0x177bccd74f5c  comment  (;;; <@1029,#912> goto)
0x177bccd74f61  comment  (;;; <@1030,#380> -------------------- B76 (unreachable/replaced) --------------------)
0x177bccd74f61  comment  (;;; <@1034,#913> -------------------- B77 --------------------)
0x177bccd74f61  comment  (;;; <@1036,#916> return)
0x177bccd74f68  comment  (;;; <@38,#26> -------------------- Deferred allocate --------------------)
0x177bccd74f9e  code target (STUB)  (0x177bccd062a0)
0x177bccd74fc1  comment  (;;; <@58,#44> -------------------- Deferred allocate --------------------)
0x177bccd74ff7  code target (STUB)  (0x177bccd062a0)
0x177bccd7501a  comment  (;;; <@78,#62> -------------------- Deferred allocate --------------------)
0x177bccd75050  code target (STUB)  (0x177bccd062a0)
0x177bccd75073  position  (1273)
0x177bccd75073  comment  (;;; <@112,#928> -------------------- Deferred tagged-to-i --------------------)
0x177bccd75091  comment  (Deferred TaggedToI: lost precision)
0x177bccd75093  comment  (Deferred TaggedToI: NaN)
0x177bccd7509b  runtime entry  (deoptimization bailout 60)
0x177bccd750a4  comment  (;;; <@122,#97> -------------------- Deferred stack-check --------------------)
0x177bccd750c7  code target (STUB)  (0x177bccd062a0)
0x177bccd750e5  position  (1320)
0x177bccd750e5  comment  (;;; <@130,#929> -------------------- Deferred tagged-to-i --------------------)
0x177bccd75103  comment  (Deferred TaggedToI: lost precision)
0x177bccd75105  comment  (Deferred TaggedToI: NaN)
0x177bccd7511a  runtime entry  (deoptimization bailout 61)
0x177bccd75123  comment  (;;; <@200,#141> -------------------- Deferred allocate --------------------)
0x177bccd75153  code target (STUB)  (0x177bccd062a0)
0x177bccd75176  position  (1283)
0x177bccd75176  comment  (;;; <@266,#934> -------------------- Deferred tagged-to-i --------------------)
0x177bccd75194  comment  (Deferred TaggedToI: lost precision)
0x177bccd75196  comment  (Deferred TaggedToI: NaN)
0x177bccd7519e  runtime entry  (deoptimization bailout 62)
0x177bccd751a7  position  (1347)
0x177bccd751a7  comment  (;;; <@292,#937> -------------------- Deferred tagged-to-i --------------------)
0x177bccd751c5  comment  (Deferred TaggedToI: lost precision)
0x177bccd751c7  comment  (Deferred TaggedToI: NaN)
0x177bccd751cf  runtime entry  (deoptimization bailout 63)
0x177bccd751d8  comment  (;;; <@302,#218> -------------------- Deferred stack-check --------------------)
0x177bccd751fb  code target (STUB)  (0x177bccd062a0)
0x177bccd75219  position  (1391)
0x177bccd75219  comment  (;;; <@312,#938> -------------------- Deferred tagged-to-i --------------------)
0x177bccd75237  comment  (Deferred TaggedToI: lost precision)
0x177bccd75239  comment  (Deferred TaggedToI: NaN)
0x177bccd7524e  runtime entry  (deoptimization bailout 64)
0x177bccd75257  comment  (;;; <@378,#262> -------------------- Deferred allocate --------------------)
0x177bccd75287  code target (STUB)  (0x177bccd062a0)
0x177bccd752aa  position  (1356)
0x177bccd752aa  comment  (;;; <@440,#943> -------------------- Deferred tagged-to-i --------------------)
0x177bccd752c8  comment  (Deferred TaggedToI: lost precision)
0x177bccd752ca  comment  (Deferred TaggedToI: NaN)
0x177bccd752d2  runtime entry  (deoptimization bailout 65)
0x177bccd752db  comment  (;;; <@470,#332> -------------------- Deferred allocate --------------------)
0x177bccd75311  code target (STUB)  (0x177bccd062a0)
0x177bccd75334  position  (1474)
0x177bccd75334  comment  (;;; <@536,#948> -------------------- Deferred tagged-to-i --------------------)
0x177bccd75352  comment  (Deferred TaggedToI: lost precision)
0x177bccd75354  comment  (Deferred TaggedToI: NaN)
0x177bccd7535c  runtime entry  (deoptimization bailout 66)
0x177bccd75365  comment  (;;; <@546,#387> -------------------- Deferred allocate --------------------)
0x177bccd7539a  code target (STUB)  (0x177bccd062a0)
0x177bccd753bd  position  (1532)
0x177bccd753bd  comment  (;;; <@576,#951> -------------------- Deferred tagged-to-i --------------------)
0x177bccd753db  comment  (Deferred TaggedToI: lost precision)
0x177bccd753dd  comment  (Deferred TaggedToI: NaN)
0x177bccd753e5  runtime entry  (deoptimization bailout 67)
0x177bccd753ee  comment  (;;; <@586,#424> -------------------- Deferred stack-check --------------------)
0x177bccd75411  code target (STUB)  (0x177bccd062a0)
0x177bccd7542f  position  (1591)
0x177bccd7542f  comment  (;;; <@758,#631> -------------------- Deferred allocate --------------------)
0x177bccd7545f  code target (STUB)  (0x177bccd062a0)
0x177bccd75482  position  (1548)
0x177bccd75482  comment  (;;; <@820,#959> -------------------- Deferred tagged-to-i --------------------)
0x177bccd754a0  comment  (Deferred TaggedToI: lost precision)
0x177bccd754a2  comment  (Deferred TaggedToI: NaN)
0x177bccd754aa  runtime entry  (deoptimization bailout 68)
0x177bccd754b3  position  (1676)
0x177bccd754b3  comment  (;;; <@854,#962> -------------------- Deferred tagged-to-i --------------------)
0x177bccd754d1  comment  (Deferred TaggedToI: lost precision)
0x177bccd754d3  comment  (Deferred TaggedToI: NaN)
0x177bccd754db  runtime entry  (deoptimization bailout 69)
0x177bccd754e4  comment  (;;; <@864,#710> -------------------- Deferred stack-check --------------------)
0x177bccd75507  code target (STUB)  (0x177bccd062a0)
0x177bccd75525  position  (1692)
0x177bccd75525  comment  (;;; <@984,#969> -------------------- Deferred tagged-to-i --------------------)
0x177bccd75543  comment  (Deferred TaggedToI: lost precision)
0x177bccd75545  comment  (Deferred TaggedToI: NaN)
0x177bccd7554d  runtime entry  (deoptimization bailout 70)
0x177bccd75556  position  (1485)
0x177bccd75556  comment  (;;; <@1020,#971> -------------------- Deferred tagged-to-i --------------------)
0x177bccd75574  comment  (Deferred TaggedToI: lost precision)
0x177bccd75576  comment  (Deferred TaggedToI: NaN)
0x177bccd7557e  runtime entry  (deoptimization bailout 71)
0x177bccd75587  comment  (;;; -------------------- Jump table --------------------)
0x177bccd75587  comment  (;;; jump table entry 0: deoptimization bailout 8.)
0x177bccd75588  runtime entry  (deoptimization bailout 8)
0x177bccd7558c  comment  (;;; jump table entry 1: deoptimization bailout 9.)
0x177bccd7558d  runtime entry  (deoptimization bailout 9)
0x177bccd75591  comment  (;;; jump table entry 2: deoptimization bailout 11.)
0x177bccd75592  runtime entry  (deoptimization bailout 11)
0x177bccd75596  comment  (;;; jump table entry 3: deoptimization bailout 12.)
0x177bccd75597  runtime entry  (deoptimization bailout 12)
0x177bccd7559b  comment  (;;; jump table entry 4: deoptimization bailout 13.)
0x177bccd7559c  runtime entry  (deoptimization bailout 13)
0x177bccd755a0  comment  (;;; jump table entry 5: deoptimization bailout 14.)
0x177bccd755a1  runtime entry  (deoptimization bailout 14)
0x177bccd755a5  comment  (;;; jump table entry 6: deoptimization bailout 15.)
0x177bccd755a6  runtime entry  (deoptimization bailout 15)
0x177bccd755aa  comment  (;;; jump table entry 7: deoptimization bailout 17.)
0x177bccd755ab  runtime entry  (deoptimization bailout 17)
0x177bccd755af  comment  (;;; jump table entry 8: deoptimization bailout 18.)
0x177bccd755b0  runtime entry  (deoptimization bailout 18)
0x177bccd755b4  comment  (;;; jump table entry 9: deoptimization bailout 19.)
0x177bccd755b5  runtime entry  (deoptimization bailout 19)
0x177bccd755b9  comment  (;;; jump table entry 10: deoptimization bailout 21.)
0x177bccd755ba  runtime entry  (deoptimization bailout 21)
0x177bccd755be  comment  (;;; jump table entry 11: deoptimization bailout 22.)
0x177bccd755bf  runtime entry  (deoptimization bailout 22)
0x177bccd755c3  comment  (;;; jump table entry 12: deoptimization bailout 23.)
0x177bccd755c4  runtime entry  (deoptimization bailout 23)
0x177bccd755c8  comment  (;;; jump table entry 13: deoptimization bailout 24.)
0x177bccd755c9  runtime entry  (deoptimization bailout 24)
0x177bccd755cd  comment  (;;; jump table entry 14: deoptimization bailout 25.)
0x177bccd755ce  runtime entry  (deoptimization bailout 25)
0x177bccd755d2  comment  (;;; jump table entry 15: deoptimization bailout 29.)
0x177bccd755d3  runtime entry  (deoptimization bailout 29)
0x177bccd755d7  comment  (;;; jump table entry 16: deoptimization bailout 30.)
0x177bccd755d8  runtime entry  (deoptimization bailout 30)
0x177bccd755dc  comment  (;;; jump table entry 17: deoptimization bailout 32.)
0x177bccd755dd  runtime entry  (deoptimization bailout 32)
0x177bccd755e1  comment  (;;; jump table entry 18: deoptimization bailout 33.)
0x177bccd755e2  runtime entry  (deoptimization bailout 33)
0x177bccd755e6  comment  (;;; jump table entry 19: deoptimization bailout 34.)
0x177bccd755e7  runtime entry  (deoptimization bailout 34)
0x177bccd755eb  comment  (;;; jump table entry 20: deoptimization bailout 35.)
0x177bccd755ec  runtime entry  (deoptimization bailout 35)
0x177bccd755f0  comment  (;;; jump table entry 21: deoptimization bailout 36.)
0x177bccd755f1  runtime entry  (deoptimization bailout 36)
0x177bccd755f5  comment  (;;; jump table entry 22: deoptimization bailout 37.)
0x177bccd755f6  runtime entry  (deoptimization bailout 37)
0x177bccd755fa  comment  (;;; jump table entry 23: deoptimization bailout 39.)
0x177bccd755fb  runtime entry  (deoptimization bailout 39)
0x177bccd755ff  comment  (;;; jump table entry 24: deoptimization bailout 40.)
0x177bccd75600  runtime entry  (deoptimization bailout 40)
0x177bccd75604  comment  (;;; jump table entry 25: deoptimization bailout 41.)
0x177bccd75605  runtime entry  (deoptimization bailout 41)
0x177bccd75609  comment  (;;; jump table entry 26: deoptimization bailout 42.)
0x177bccd7560a  runtime entry  (deoptimization bailout 42)
0x177bccd7560e  comment  (;;; jump table entry 27: deoptimization bailout 43.)
0x177bccd7560f  runtime entry  (deoptimization bailout 43)
0x177bccd75613  comment  (;;; jump table entry 28: deoptimization bailout 44.)
0x177bccd75614  runtime entry  (deoptimization bailout 44)
0x177bccd75618  comment  (;;; jump table entry 29: deoptimization bailout 45.)
0x177bccd75619  runtime entry  (deoptimization bailout 45)
0x177bccd7561d  comment  (;;; jump table entry 30: deoptimization bailout 46.)
0x177bccd7561e  runtime entry  (deoptimization bailout 46)
0x177bccd75622  comment  (;;; jump table entry 31: deoptimization bailout 47.)
0x177bccd75623  runtime entry  (deoptimization bailout 47)
0x177bccd75627  comment  (;;; jump table entry 32: deoptimization bailout 48.)
0x177bccd75628  runtime entry  (deoptimization bailout 48)
0x177bccd7562c  comment  (;;; jump table entry 33: deoptimization bailout 50.)
0x177bccd7562d  runtime entry  (deoptimization bailout 50)
0x177bccd75631  comment  (;;; jump table entry 34: deoptimization bailout 51.)
0x177bccd75632  runtime entry  (deoptimization bailout 51)
0x177bccd75636  comment  (;;; jump table entry 35: deoptimization bailout 52.)
0x177bccd75637  runtime entry  (deoptimization bailout 52)
0x177bccd7563b  comment  (;;; jump table entry 36: deoptimization bailout 53.)
0x177bccd7563c  runtime entry  (deoptimization bailout 53)
0x177bccd75640  comment  (;;; jump table entry 37: deoptimization bailout 54.)
0x177bccd75641  runtime entry  (deoptimization bailout 54)
0x177bccd75645  comment  (;;; jump table entry 38: deoptimization bailout 55.)
0x177bccd75646  runtime entry  (deoptimization bailout 55)
0x177bccd7564a  comment  (;;; jump table entry 39: deoptimization bailout 57.)
0x177bccd7564b  runtime entry  (deoptimization bailout 57)
0x177bccd7564f  comment  (;;; jump table entry 40: deoptimization bailout 59.)
0x177bccd75650  runtime entry  (deoptimization bailout 59)
0x177bccd75654  comment  (;;; Safepoint table.)

--- End code ---
[optimizing 0xecbf5c62089 <JS Function (SharedFunctionInfo 0xecbf5c61ff9)> - took 4.888, 12.844, 12.646 ms]
